ARM GAS  /tmp/ccpfxlbk.s 			page 1


   1              		.syntax unified
   2              		.cpu cortex-m4
   3              		.fpu softvfp
   4              		.eabi_attribute 20, 1
   5              		.eabi_attribute 21, 1
   6              		.eabi_attribute 23, 3
   7              		.eabi_attribute 24, 1
   8              		.eabi_attribute 25, 1
   9              		.eabi_attribute 26, 1
  10              		.eabi_attribute 30, 2
  11              		.eabi_attribute 34, 1
  12              		.eabi_attribute 18, 4
  13              		.thumb
  14              		.file	"blinky.c"
  15              		.text
  16              	.Ltext0:
  17              		.cfi_sections	.debug_frame
  18              		.section	.text.tBlinkyBlue,"ax",%progbits
  19              		.align	2
  20              		.p2align 4,,15
  21              		.thumb
  22              		.thumb_func
  23              		.type	tBlinkyBlue, %function
  24              	tBlinkyBlue:
  25              	.LFB118:
  26              		.file 1 "src/blinky.c"
  27              		.loc 1 17 0
  28              		.cfi_startproc
  29              		@ args = 0, pretend = 0, frame = 0
  30              		@ frame_needed = 0, uses_anonymous_args = 0
  31              	.LVL0:
  32              		.loc 1 19 0
  33 0000 084B     		ldr	r3, .L4
  34 0002 094A     		ldr	r2, .L4+4
  35 0004 9869     		ldr	r0, [r3, #24]
  36              	.LVL1:
  37              		.loc 1 17 0
  38 0006 10B5     		push	{r4, lr}
  39              	.LCFI0:
  40              		.cfi_def_cfa_offset 8
  41              		.cfi_offset 4, -8
  42              		.cfi_offset 14, -4
  43              		.loc 1 27 0
  44 0008 4FF48054 		mov	r4, #4096
  45              		.loc 1 19 0
  46 000c 8261     		str	r2, [r0, #24]
  47              		.loc 1 27 0
  48 000e C4F60004 		movt	r4, 18432
  49              	.L2:
  50              		.loc 1 22 0 discriminator 1
  51 0012 4FF4FA70 		mov	r0, #500
  52 0016 FFF7FEFF 		bl	chThdSleep
  53              	.LVL2:
  54              		.loc 1 27 0 discriminator 1
  55 001a 6169     		ldr	r1, [r4, #20]
  56 001c 81F48073 		eor	r3, r1, #256
  57 0020 6361     		str	r3, [r4, #20]
ARM GAS  /tmp/ccpfxlbk.s 			page 2


  58 0022 F6E7     		b	.L2
  59              	.L5:
  60              		.align	2
  61              	.L4:
  62 0024 00000000 		.word	rlist
  63 0028 00000000 		.word	.LC0
  64              		.cfi_endproc
  65              	.LFE118:
  66              		.size	tBlinkyBlue, .-tBlinkyBlue
  67 002c AFF30080 		.section	.text.tBlinkyGreen,"ax",%progbits
  68              		.align	2
  69              		.p2align 4,,15
  70              		.thumb
  71              		.thumb_func
  72              		.type	tBlinkyGreen, %function
  73              	tBlinkyGreen:
  74              	.LFB120:
  75              		.loc 1 41 0
  76              		.cfi_startproc
  77              		@ args = 0, pretend = 0, frame = 8
  78              		@ frame_needed = 0, uses_anonymous_args = 0
  79              	.LVL3:
  80 0000 30B5     		push	{r4, r5, lr}
  81              	.LCFI1:
  82              		.cfi_def_cfa_offset 12
  83              		.cfi_offset 4, -12
  84              		.cfi_offset 5, -8
  85              		.cfi_offset 14, -4
  86              		.loc 1 44 0
  87 0002 0D4B     		ldr	r3, .L8
  88 0004 0D4A     		ldr	r2, .L8+4
  89 0006 9869     		ldr	r0, [r3, #24]
  90              	.LVL4:
  91              		.loc 1 54 0
  92 0008 4FF48054 		mov	r4, #4096
  93              		.loc 1 41 0
  94 000c 83B0     		sub	sp, sp, #12
  95              	.LCFI2:
  96              		.cfi_def_cfa_offset 24
  97              		.loc 1 44 0
  98 000e 8261     		str	r2, [r0, #24]
  99              		.loc 1 54 0
 100 0010 C4F60004 		movt	r4, 18432
 101              		.loc 1 55 0
 102 0014 4D25     		movs	r5, #77
 103              	.LVL5:
 104              	.L7:
 105              		.loc 1 48 0 discriminator 1
 106 0016 4FF49670 		mov	r0, #300
 107 001a FFF7FEFF 		bl	chThdSleep
 108              	.LVL6:
 109              		.loc 1 54 0 discriminator 1
 110 001e 6169     		ldr	r1, [r4, #20]
 111              		.loc 1 57 0 discriminator 1
 112 0020 0748     		ldr	r0, .L8+8
 113              		.loc 1 54 0 discriminator 1
 114 0022 81F40063 		eor	r3, r1, #2048
ARM GAS  /tmp/ccpfxlbk.s 			page 3


 115 0026 6361     		str	r3, [r4, #20]
 116              		.loc 1 57 0 discriminator 1
 117 0028 0121     		movs	r1, #1
 118 002a 0DF10702 		add	r2, sp, #7
 119              		.loc 1 55 0 discriminator 1
 120 002e 8DF80750 		strb	r5, [sp, #7]
 121              		.loc 1 57 0 discriminator 1
 122 0032 FFF7FEFF 		bl	uartStartSend
 123              	.LVL7:
 124 0036 EEE7     		b	.L7
 125              	.L9:
 126              		.align	2
 127              	.L8:
 128 0038 00000000 		.word	rlist
 129 003c 0C000000 		.word	.LC1
 130 0040 00000000 		.word	UARTD1
 131              		.cfi_endproc
 132              	.LFE120:
 133              		.size	tBlinkyGreen, .-tBlinkyGreen
 134 0044 AFF30080 		.section	.text.startBlinkyBlue,"ax",%progbits
 134      AFF30080 
 134      AFF30080 
 135              		.align	2
 136              		.p2align 4,,15
 137              		.global	startBlinkyBlue
 138              		.thumb
 139              		.thumb_func
 140              		.type	startBlinkyBlue, %function
 141              	startBlinkyBlue:
 142              	.LFB119:
 143              		.loc 1 34 0
 144              		.cfi_startproc
 145              		@ args = 0, pretend = 0, frame = 0
 146              		@ frame_needed = 0, uses_anonymous_args = 0
 147 0000 00B5     		push	{lr}
 148              	.LCFI3:
 149              		.cfi_def_cfa_offset 4
 150              		.cfi_offset 14, -4
 151 0002 83B0     		sub	sp, sp, #12
 152              	.LCFI4:
 153              		.cfi_def_cfa_offset 16
 154              		.loc 1 35 0
 155 0004 0023     		movs	r3, #0
 156 0006 0093     		str	r3, [sp, #0]
 157 0008 40F20000 		movw	r0, #:lower16:.LANCHOR0
 158 000c 40F20003 		movw	r3, #:lower16:tBlinkyBlue
 159 0010 4FF49871 		mov	r1, #304
 160 0014 4022     		movs	r2, #64
 161 0016 C0F20003 		movt	r3, #:upper16:tBlinkyBlue
 162 001a C0F20000 		movt	r0, #:upper16:.LANCHOR0
 163 001e FFF7FEFF 		bl	chThdCreateStatic
 164              	.LVL8:
 165              		.loc 1 38 0
 166 0022 03B0     		add	sp, sp, #12
 167 0024 00BD     		pop	{pc}
 168              		.cfi_endproc
 169              	.LFE119:
ARM GAS  /tmp/ccpfxlbk.s 			page 4


 170              		.size	startBlinkyBlue, .-startBlinkyBlue
 171 0026 00BFAFF3 		.section	.text.startBlinkyGreen,"ax",%progbits
 171      0080AFF3 
 171      0080
 172              		.align	2
 173              		.p2align 4,,15
 174              		.global	startBlinkyGreen
 175              		.thumb
 176              		.thumb_func
 177              		.type	startBlinkyGreen, %function
 178              	startBlinkyGreen:
 179              	.LFB121:
 180              		.loc 1 64 0
 181              		.cfi_startproc
 182              		@ args = 0, pretend = 0, frame = 0
 183              		@ frame_needed = 0, uses_anonymous_args = 0
 184 0000 00B5     		push	{lr}
 185              	.LCFI5:
 186              		.cfi_def_cfa_offset 4
 187              		.cfi_offset 14, -4
 188 0002 83B0     		sub	sp, sp, #12
 189              	.LCFI6:
 190              		.cfi_def_cfa_offset 16
 191              		.loc 1 65 0
 192 0004 0023     		movs	r3, #0
 193 0006 0093     		str	r3, [sp, #0]
 194 0008 40F20000 		movw	r0, #:lower16:.LANCHOR1
 195 000c 40F20003 		movw	r3, #:lower16:tBlinkyGreen
 196 0010 4FF49871 		mov	r1, #304
 197 0014 4022     		movs	r2, #64
 198 0016 C0F20003 		movt	r3, #:upper16:tBlinkyGreen
 199 001a C0F20000 		movt	r0, #:upper16:.LANCHOR1
 200 001e FFF7FEFF 		bl	chThdCreateStatic
 201              	.LVL9:
 202              		.loc 1 68 0
 203 0022 03B0     		add	sp, sp, #12
 204 0024 00BD     		pop	{pc}
 205              		.cfi_endproc
 206              	.LFE121:
 207              		.size	startBlinkyGreen, .-startBlinkyGreen
 208 0026 00BFAFF3 		.section	.bss.waBlinkyGreen,"aw",%nobits
 208      0080AFF3 
 208      0080
 209              		.align	3
 210              		.set	.LANCHOR1,. + 0
 211              		.type	waBlinkyGreen, %object
 212              		.size	waBlinkyGreen, 304
 213              	waBlinkyGreen:
 214 0000 00000000 		.space	304
 214      00000000 
 214      00000000 
 214      00000000 
 214      00000000 
 215              		.section	.bss.waBlinkyBlue,"aw",%nobits
 216              		.align	3
 217              		.set	.LANCHOR0,. + 0
 218              		.type	waBlinkyBlue, %object
ARM GAS  /tmp/ccpfxlbk.s 			page 5


 219              		.size	waBlinkyBlue, 304
 220              	waBlinkyBlue:
 221 0000 00000000 		.space	304
 221      00000000 
 221      00000000 
 221      00000000 
 221      00000000 
 222              		.section	.rodata.str1.4,"aMS",%progbits,1
 223              		.align	2
 224              	.LC0:
 225 0000 426C696E 		.ascii	"BlinkyBlue\000"
 225      6B79426C 
 225      756500
 226 000b 00       		.space	1
 227              	.LC1:
 228 000c 426C696E 		.ascii	"BlinkyGreen\000"
 228      6B794772 
 228      65656E00 
 229              		.text
 230              	.Letext0:
 231              		.file 2 "/opt/ARM/gcc-arm-none-eabi-4_7-2013q3/bin/../lib/gcc/arm-none-eabi/4.7.4/include/stddef.h
 232              		.file 3 "/opt/ARM/gcc-arm-none-eabi-4_7-2013q3/bin/../lib/gcc/arm-none-eabi/4.7.4/../../../../arm-
 233              		.file 4 "chibios/os/ports/GCC/ARMCMx/chtypes.h"
 234              		.file 5 "chibios/os/kernel/include/chlists.h"
 235              		.file 6 "chibios/os/kernel/include/chthreads.h"
 236              		.file 7 "chibios/os/ports/GCC/ARMCMx/chcore_v7m.h"
 237              		.file 8 "chibios/os/kernel/include/chschd.h"
 238              		.file 9 "chibios/os/kernel/include/chmtx.h"
 239              		.file 10 "chibios/os/hal/platforms/STM32F30x/stm32f30x.h"
 240              		.file 11 "chibios/os/hal/platforms/STM32F30x/stm32_dma.h"
 241              		.file 12 "chibios/os/hal/platforms/STM32/GPIOv2/pal_lld.h"
 242              		.file 13 "chibios/os/hal/include/uart.h"
 243              		.file 14 "chibios/os/hal/platforms/STM32/USARTv2/uart_lld.h"
 244              		.file 15 "chibios/os/ports/common/ARMCMx/CMSIS/include/core_cm4.h"
 245              		.section	.debug_info,"",%progbits
 246              	.Ldebug_info0:
 247 0000 7C0B0000 		.4byte	0xb7c
 248 0004 0200     		.2byte	0x2
 249 0006 00000000 		.4byte	.Ldebug_abbrev0
 250 000a 04       		.byte	0x4
 251 000b 01       		.uleb128 0x1
 252 000c F7000000 		.4byte	.LASF143
 253 0010 01       		.byte	0x1
 254 0011 39030000 		.4byte	.LASF144
 255 0015 FC010000 		.4byte	.LASF145
 256 0019 00000000 		.4byte	.Ldebug_ranges0+0
 257 001d 00000000 		.4byte	0
 258 0021 00000000 		.4byte	0
 259 0025 00000000 		.4byte	.Ldebug_line0
 260 0029 02       		.uleb128 0x2
 261 002a 04       		.byte	0x4
 262 002b 05       		.byte	0x5
 263 002c 696E7400 		.ascii	"int\000"
 264 0030 03       		.uleb128 0x3
 265 0031 0E000000 		.4byte	.LASF2
 266 0035 02       		.byte	0x2
 267 0036 D5       		.byte	0xd5
ARM GAS  /tmp/ccpfxlbk.s 			page 6


 268 0037 3B000000 		.4byte	0x3b
 269 003b 04       		.uleb128 0x4
 270 003c 04       		.byte	0x4
 271 003d 07       		.byte	0x7
 272 003e E6010000 		.4byte	.LASF0
 273 0042 04       		.uleb128 0x4
 274 0043 01       		.byte	0x1
 275 0044 06       		.byte	0x6
 276 0045 B6000000 		.4byte	.LASF1
 277 0049 03       		.uleb128 0x3
 278 004a 76050000 		.4byte	.LASF3
 279 004e 03       		.byte	0x3
 280 004f 2A       		.byte	0x2a
 281 0050 54000000 		.4byte	0x54
 282 0054 04       		.uleb128 0x4
 283 0055 01       		.byte	0x1
 284 0056 08       		.byte	0x8
 285 0057 27040000 		.4byte	.LASF4
 286 005b 04       		.uleb128 0x4
 287 005c 02       		.byte	0x2
 288 005d 05       		.byte	0x5
 289 005e 3F040000 		.4byte	.LASF5
 290 0062 03       		.uleb128 0x3
 291 0063 F3010000 		.4byte	.LASF6
 292 0067 03       		.byte	0x3
 293 0068 36       		.byte	0x36
 294 0069 6D000000 		.4byte	0x6d
 295 006d 04       		.uleb128 0x4
 296 006e 02       		.byte	0x2
 297 006f 07       		.byte	0x7
 298 0070 5F020000 		.4byte	.LASF7
 299 0074 03       		.uleb128 0x3
 300 0075 1F040000 		.4byte	.LASF8
 301 0079 03       		.byte	0x3
 302 007a 4F       		.byte	0x4f
 303 007b 7F000000 		.4byte	0x7f
 304 007f 04       		.uleb128 0x4
 305 0080 04       		.byte	0x4
 306 0081 05       		.byte	0x5
 307 0082 4E010000 		.4byte	.LASF9
 308 0086 03       		.uleb128 0x3
 309 0087 A6040000 		.4byte	.LASF10
 310 008b 03       		.byte	0x3
 311 008c 50       		.byte	0x50
 312 008d 91000000 		.4byte	0x91
 313 0091 04       		.uleb128 0x4
 314 0092 04       		.byte	0x4
 315 0093 07       		.byte	0x7
 316 0094 C1040000 		.4byte	.LASF11
 317 0098 04       		.uleb128 0x4
 318 0099 08       		.byte	0x8
 319 009a 05       		.byte	0x5
 320 009b A8000000 		.4byte	.LASF12
 321 009f 03       		.uleb128 0x3
 322 00a0 33000000 		.4byte	.LASF13
 323 00a4 03       		.byte	0x3
 324 00a5 78       		.byte	0x78
ARM GAS  /tmp/ccpfxlbk.s 			page 7


 325 00a6 AA000000 		.4byte	0xaa
 326 00aa 04       		.uleb128 0x4
 327 00ab 08       		.byte	0x8
 328 00ac 07       		.byte	0x7
 329 00ad 56000000 		.4byte	.LASF14
 330 00b1 04       		.uleb128 0x4
 331 00b2 01       		.byte	0x1
 332 00b3 02       		.byte	0x2
 333 00b4 19040000 		.4byte	.LASF15
 334 00b8 03       		.uleb128 0x3
 335 00b9 AD020000 		.4byte	.LASF16
 336 00bd 04       		.byte	0x4
 337 00be 25       		.byte	0x25
 338 00bf 49000000 		.4byte	0x49
 339 00c3 03       		.uleb128 0x3
 340 00c4 57010000 		.4byte	.LASF17
 341 00c8 04       		.byte	0x4
 342 00c9 26       		.byte	0x26
 343 00ca 49000000 		.4byte	0x49
 344 00ce 03       		.uleb128 0x3
 345 00cf B4030000 		.4byte	.LASF18
 346 00d3 04       		.byte	0x4
 347 00d4 27       		.byte	0x27
 348 00d5 49000000 		.4byte	0x49
 349 00d9 03       		.uleb128 0x3
 350 00da ED000000 		.4byte	.LASF19
 351 00de 04       		.byte	0x4
 352 00df 28       		.byte	0x28
 353 00e0 49000000 		.4byte	0x49
 354 00e4 03       		.uleb128 0x3
 355 00e5 11040000 		.4byte	.LASF20
 356 00e9 04       		.byte	0x4
 357 00ea 29       		.byte	0x29
 358 00eb 86000000 		.4byte	0x86
 359 00ef 03       		.uleb128 0x3
 360 00f0 99020000 		.4byte	.LASF21
 361 00f4 04       		.byte	0x4
 362 00f5 2A       		.byte	0x2a
 363 00f6 74000000 		.4byte	0x74
 364 00fa 03       		.uleb128 0x3
 365 00fb C1020000 		.4byte	.LASF22
 366 00ff 04       		.byte	0x4
 367 0100 2C       		.byte	0x2c
 368 0101 86000000 		.4byte	0x86
 369 0105 03       		.uleb128 0x3
 370 0106 FD040000 		.4byte	.LASF23
 371 010a 04       		.byte	0x4
 372 010b 2E       		.byte	0x2e
 373 010c 86000000 		.4byte	0x86
 374 0110 03       		.uleb128 0x3
 375 0111 BF010000 		.4byte	.LASF24
 376 0115 05       		.byte	0x5
 377 0116 23       		.byte	0x23
 378 0117 1B010000 		.4byte	0x11b
 379 011b 05       		.uleb128 0x5
 380 011c BF010000 		.4byte	.LASF24
 381 0120 48       		.byte	0x48
ARM GAS  /tmp/ccpfxlbk.s 			page 8


 382 0121 06       		.byte	0x6
 383 0122 57       		.byte	0x57
 384 0123 40020000 		.4byte	0x240
 385 0127 06       		.uleb128 0x6
 386 0128 69040000 		.4byte	.LASF25
 387 012c 06       		.byte	0x6
 388 012d 58       		.byte	0x58
 389 012e 65020000 		.4byte	0x265
 390 0132 02       		.byte	0x2
 391 0133 23       		.byte	0x23
 392 0134 00       		.uleb128 0
 393 0135 06       		.uleb128 0x6
 394 0136 E4030000 		.4byte	.LASF26
 395 013a 06       		.byte	0x6
 396 013b 5A       		.byte	0x5a
 397 013c 65020000 		.4byte	0x265
 398 0140 02       		.byte	0x2
 399 0141 23       		.byte	0x23
 400 0142 04       		.uleb128 0x4
 401 0143 06       		.uleb128 0x6
 402 0144 A1000000 		.4byte	.LASF27
 403 0148 06       		.byte	0x6
 404 0149 5C       		.byte	0x5c
 405 014a E4000000 		.4byte	0xe4
 406 014e 02       		.byte	0x2
 407 014f 23       		.byte	0x23
 408 0150 08       		.uleb128 0x8
 409 0151 06       		.uleb128 0x6
 410 0152 BF050000 		.4byte	.LASF28
 411 0156 06       		.byte	0x6
 412 0157 5D       		.byte	0x5d
 413 0158 3E030000 		.4byte	0x33e
 414 015c 02       		.byte	0x2
 415 015d 23       		.byte	0x23
 416 015e 0C       		.uleb128 0xc
 417 015f 06       		.uleb128 0x6
 418 0160 75010000 		.4byte	.LASF29
 419 0164 06       		.byte	0x6
 420 0165 5F       		.byte	0x5f
 421 0166 65020000 		.4byte	0x265
 422 016a 02       		.byte	0x2
 423 016b 23       		.byte	0x23
 424 016c 10       		.uleb128 0x10
 425 016d 06       		.uleb128 0x6
 426 016e 4B030000 		.4byte	.LASF30
 427 0172 06       		.byte	0x6
 428 0173 60       		.byte	0x60
 429 0174 65020000 		.4byte	0x265
 430 0178 02       		.byte	0x2
 431 0179 23       		.byte	0x23
 432 017a 14       		.uleb128 0x14
 433 017b 06       		.uleb128 0x6
 434 017c 4D050000 		.4byte	.LASF31
 435 0180 06       		.byte	0x6
 436 0181 67       		.byte	0x67
 437 0182 57040000 		.4byte	0x457
 438 0186 02       		.byte	0x2
ARM GAS  /tmp/ccpfxlbk.s 			page 9


 439 0187 23       		.byte	0x23
 440 0188 18       		.uleb128 0x18
 441 0189 06       		.uleb128 0x6
 442 018a 49040000 		.4byte	.LASF32
 443 018e 06       		.byte	0x6
 444 018f 72       		.byte	0x72
 445 0190 C3000000 		.4byte	0xc3
 446 0194 02       		.byte	0x2
 447 0195 23       		.byte	0x23
 448 0196 1C       		.uleb128 0x1c
 449 0197 06       		.uleb128 0x6
 450 0198 7C040000 		.4byte	.LASF33
 451 019c 06       		.byte	0x6
 452 019d 76       		.byte	0x76
 453 019e B8000000 		.4byte	0xb8
 454 01a2 02       		.byte	0x2
 455 01a3 23       		.byte	0x23
 456 01a4 1D       		.uleb128 0x1d
 457 01a5 06       		.uleb128 0x6
 458 01a6 54050000 		.4byte	.LASF34
 459 01aa 06       		.byte	0x6
 460 01ab 7B       		.byte	0x7b
 461 01ac CE000000 		.4byte	0xce
 462 01b0 02       		.byte	0x2
 463 01b1 23       		.byte	0x23
 464 01b2 1E       		.uleb128 0x1e
 465 01b3 06       		.uleb128 0x6
 466 01b4 51040000 		.4byte	.LASF35
 467 01b8 06       		.byte	0x6
 468 01b9 81       		.byte	0x81
 469 01ba D9000000 		.4byte	0xd9
 470 01be 02       		.byte	0x2
 471 01bf 23       		.byte	0x23
 472 01c0 1F       		.uleb128 0x1f
 473 01c1 06       		.uleb128 0x6
 474 01c2 60010000 		.4byte	.LASF36
 475 01c6 06       		.byte	0x6
 476 01c7 88       		.byte	0x88
 477 01c8 6D030000 		.4byte	0x36d
 478 01cc 02       		.byte	0x2
 479 01cd 23       		.byte	0x23
 480 01ce 20       		.uleb128 0x20
 481 01cf 07       		.uleb128 0x7
 482 01d0 705F7500 		.ascii	"p_u\000"
 483 01d4 06       		.byte	0x6
 484 01d5 AD       		.byte	0xad
 485 01d6 22040000 		.4byte	0x422
 486 01da 02       		.byte	0x2
 487 01db 23       		.byte	0x23
 488 01dc 24       		.uleb128 0x24
 489 01dd 06       		.uleb128 0x6
 490 01de C5050000 		.4byte	.LASF37
 491 01e2 06       		.byte	0x6
 492 01e3 B2       		.byte	0xb2
 493 01e4 8D020000 		.4byte	0x28d
 494 01e8 02       		.byte	0x2
 495 01e9 23       		.byte	0x23
ARM GAS  /tmp/ccpfxlbk.s 			page 10


 496 01ea 28       		.uleb128 0x28
 497 01eb 06       		.uleb128 0x6
 498 01ec 31020000 		.4byte	.LASF38
 499 01f0 06       		.byte	0x6
 500 01f1 B8       		.byte	0xb8
 501 01f2 6B020000 		.4byte	0x26b
 502 01f6 02       		.byte	0x2
 503 01f7 23       		.byte	0x23
 504 01f8 2C       		.uleb128 0x2c
 505 01f9 06       		.uleb128 0x6
 506 01fa 35050000 		.4byte	.LASF39
 507 01fe 06       		.byte	0x6
 508 01ff BC       		.byte	0xbc
 509 0200 EF000000 		.4byte	0xef
 510 0204 02       		.byte	0x2
 511 0205 23       		.byte	0x23
 512 0206 34       		.uleb128 0x34
 513 0207 06       		.uleb128 0x6
 514 0208 8C040000 		.4byte	.LASF40
 515 020c 06       		.byte	0x6
 516 020d C2       		.byte	0xc2
 517 020e FA000000 		.4byte	0xfa
 518 0212 02       		.byte	0x2
 519 0213 23       		.byte	0x23
 520 0214 38       		.uleb128 0x38
 521 0215 06       		.uleb128 0x6
 522 0216 35040000 		.4byte	.LASF41
 523 021a 06       		.byte	0x6
 524 021b C9       		.byte	0xc9
 525 021c 69040000 		.4byte	0x469
 526 0220 02       		.byte	0x2
 527 0221 23       		.byte	0x23
 528 0222 3C       		.uleb128 0x3c
 529 0223 06       		.uleb128 0x6
 530 0224 07050000 		.4byte	.LASF42
 531 0228 06       		.byte	0x6
 532 0229 CD       		.byte	0xcd
 533 022a E4000000 		.4byte	0xe4
 534 022e 02       		.byte	0x2
 535 022f 23       		.byte	0x23
 536 0230 40       		.uleb128 0x40
 537 0231 06       		.uleb128 0x6
 538 0232 D5000000 		.4byte	.LASF43
 539 0236 06       		.byte	0x6
 540 0237 D3       		.byte	0xd3
 541 0238 A3020000 		.4byte	0x2a3
 542 023c 02       		.byte	0x2
 543 023d 23       		.byte	0x23
 544 023e 44       		.uleb128 0x44
 545 023f 00       		.byte	0
 546 0240 08       		.uleb128 0x8
 547 0241 08       		.byte	0x8
 548 0242 05       		.byte	0x5
 549 0243 5A       		.byte	0x5a
 550 0244 65020000 		.4byte	0x265
 551 0248 06       		.uleb128 0x6
 552 0249 69040000 		.4byte	.LASF25
ARM GAS  /tmp/ccpfxlbk.s 			page 11


 553 024d 05       		.byte	0x5
 554 024e 5B       		.byte	0x5b
 555 024f 65020000 		.4byte	0x265
 556 0253 02       		.byte	0x2
 557 0254 23       		.byte	0x23
 558 0255 00       		.uleb128 0
 559 0256 06       		.uleb128 0x6
 560 0257 E4030000 		.4byte	.LASF26
 561 025b 05       		.byte	0x5
 562 025c 5D       		.byte	0x5d
 563 025d 65020000 		.4byte	0x265
 564 0261 02       		.byte	0x2
 565 0262 23       		.byte	0x23
 566 0263 04       		.uleb128 0x4
 567 0264 00       		.byte	0
 568 0265 09       		.uleb128 0x9
 569 0266 04       		.byte	0x4
 570 0267 10010000 		.4byte	0x110
 571 026b 03       		.uleb128 0x3
 572 026c 65030000 		.4byte	.LASF44
 573 0270 05       		.byte	0x5
 574 0271 5F       		.byte	0x5f
 575 0272 40020000 		.4byte	0x240
 576 0276 08       		.uleb128 0x8
 577 0277 04       		.byte	0x4
 578 0278 05       		.byte	0x5
 579 0279 64       		.byte	0x64
 580 027a 8D020000 		.4byte	0x28d
 581 027e 06       		.uleb128 0x6
 582 027f 69040000 		.4byte	.LASF25
 583 0283 05       		.byte	0x5
 584 0284 66       		.byte	0x66
 585 0285 65020000 		.4byte	0x265
 586 0289 02       		.byte	0x2
 587 028a 23       		.byte	0x23
 588 028b 00       		.uleb128 0
 589 028c 00       		.byte	0
 590 028d 03       		.uleb128 0x3
 591 028e B5020000 		.4byte	.LASF45
 592 0292 05       		.byte	0x5
 593 0293 69       		.byte	0x69
 594 0294 76020000 		.4byte	0x276
 595 0298 03       		.uleb128 0x3
 596 0299 AC010000 		.4byte	.LASF46
 597 029d 07       		.byte	0x7
 598 029e DE       		.byte	0xde
 599 029f A3020000 		.4byte	0x2a3
 600 02a3 0A       		.uleb128 0xa
 601 02a4 04       		.byte	0x4
 602 02a5 03       		.uleb128 0x3
 603 02a6 DA020000 		.4byte	.LASF47
 604 02aa 07       		.byte	0x7
 605 02ab E4       		.byte	0xe4
 606 02ac 9F000000 		.4byte	0x9f
 607 02b0 0B       		.uleb128 0xb
 608 02b1 3B050000 		.4byte	.LASF48
 609 02b5 24       		.byte	0x24
ARM GAS  /tmp/ccpfxlbk.s 			page 12


 610 02b6 07       		.byte	0x7
 611 02b7 0501     		.2byte	0x105
 612 02b9 3E030000 		.4byte	0x33e
 613 02bd 0C       		.uleb128 0xc
 614 02be 723400   		.ascii	"r4\000"
 615 02c1 07       		.byte	0x7
 616 02c2 1801     		.2byte	0x118
 617 02c4 98020000 		.4byte	0x298
 618 02c8 02       		.byte	0x2
 619 02c9 23       		.byte	0x23
 620 02ca 00       		.uleb128 0
 621 02cb 0C       		.uleb128 0xc
 622 02cc 723500   		.ascii	"r5\000"
 623 02cf 07       		.byte	0x7
 624 02d0 1901     		.2byte	0x119
 625 02d2 98020000 		.4byte	0x298
 626 02d6 02       		.byte	0x2
 627 02d7 23       		.byte	0x23
 628 02d8 04       		.uleb128 0x4
 629 02d9 0C       		.uleb128 0xc
 630 02da 723600   		.ascii	"r6\000"
 631 02dd 07       		.byte	0x7
 632 02de 1A01     		.2byte	0x11a
 633 02e0 98020000 		.4byte	0x298
 634 02e4 02       		.byte	0x2
 635 02e5 23       		.byte	0x23
 636 02e6 08       		.uleb128 0x8
 637 02e7 0C       		.uleb128 0xc
 638 02e8 723700   		.ascii	"r7\000"
 639 02eb 07       		.byte	0x7
 640 02ec 1B01     		.2byte	0x11b
 641 02ee 98020000 		.4byte	0x298
 642 02f2 02       		.byte	0x2
 643 02f3 23       		.byte	0x23
 644 02f4 0C       		.uleb128 0xc
 645 02f5 0C       		.uleb128 0xc
 646 02f6 723800   		.ascii	"r8\000"
 647 02f9 07       		.byte	0x7
 648 02fa 1C01     		.2byte	0x11c
 649 02fc 98020000 		.4byte	0x298
 650 0300 02       		.byte	0x2
 651 0301 23       		.byte	0x23
 652 0302 10       		.uleb128 0x10
 653 0303 0C       		.uleb128 0xc
 654 0304 723900   		.ascii	"r9\000"
 655 0307 07       		.byte	0x7
 656 0308 1D01     		.2byte	0x11d
 657 030a 98020000 		.4byte	0x298
 658 030e 02       		.byte	0x2
 659 030f 23       		.byte	0x23
 660 0310 14       		.uleb128 0x14
 661 0311 0C       		.uleb128 0xc
 662 0312 72313000 		.ascii	"r10\000"
 663 0316 07       		.byte	0x7
 664 0317 1E01     		.2byte	0x11e
 665 0319 98020000 		.4byte	0x298
 666 031d 02       		.byte	0x2
ARM GAS  /tmp/ccpfxlbk.s 			page 13


 667 031e 23       		.byte	0x23
 668 031f 18       		.uleb128 0x18
 669 0320 0C       		.uleb128 0xc
 670 0321 72313100 		.ascii	"r11\000"
 671 0325 07       		.byte	0x7
 672 0326 1F01     		.2byte	0x11f
 673 0328 98020000 		.4byte	0x298
 674 032c 02       		.byte	0x2
 675 032d 23       		.byte	0x23
 676 032e 1C       		.uleb128 0x1c
 677 032f 0C       		.uleb128 0xc
 678 0330 6C7200   		.ascii	"lr\000"
 679 0333 07       		.byte	0x7
 680 0334 2001     		.2byte	0x120
 681 0336 98020000 		.4byte	0x298
 682 033a 02       		.byte	0x2
 683 033b 23       		.byte	0x23
 684 033c 20       		.uleb128 0x20
 685 033d 00       		.byte	0
 686 033e 0B       		.uleb128 0xb
 687 033f 2D050000 		.4byte	.LASF49
 688 0343 04       		.byte	0x4
 689 0344 07       		.byte	0x7
 690 0345 2A01     		.2byte	0x12a
 691 0347 5B030000 		.4byte	0x35b
 692 034b 0C       		.uleb128 0xc
 693 034c 72313300 		.ascii	"r13\000"
 694 0350 07       		.byte	0x7
 695 0351 2B01     		.2byte	0x12b
 696 0353 5B030000 		.4byte	0x35b
 697 0357 02       		.byte	0x2
 698 0358 23       		.byte	0x23
 699 0359 00       		.uleb128 0
 700 035a 00       		.byte	0
 701 035b 09       		.uleb128 0x9
 702 035c 04       		.byte	0x4
 703 035d B0020000 		.4byte	0x2b0
 704 0361 0D       		.uleb128 0xd
 705 0362 86000000 		.4byte	0x86
 706 0366 04       		.uleb128 0x4
 707 0367 04       		.byte	0x4
 708 0368 07       		.byte	0x7
 709 0369 0A030000 		.4byte	.LASF50
 710 036d 0D       		.uleb128 0xd
 711 036e 05010000 		.4byte	0x105
 712 0372 08       		.uleb128 0x8
 713 0373 1C       		.byte	0x1c
 714 0374 08       		.byte	0x8
 715 0375 57       		.byte	0x57
 716 0376 CF030000 		.4byte	0x3cf
 717 037a 06       		.uleb128 0x6
 718 037b AF040000 		.4byte	.LASF51
 719 037f 08       		.byte	0x8
 720 0380 58       		.byte	0x58
 721 0381 6B020000 		.4byte	0x26b
 722 0385 02       		.byte	0x2
 723 0386 23       		.byte	0x23
ARM GAS  /tmp/ccpfxlbk.s 			page 14


 724 0387 00       		.uleb128 0
 725 0388 06       		.uleb128 0x6
 726 0389 5B040000 		.4byte	.LASF52
 727 038d 08       		.byte	0x8
 728 038e 59       		.byte	0x59
 729 038f E4000000 		.4byte	0xe4
 730 0393 02       		.byte	0x2
 731 0394 23       		.byte	0x23
 732 0395 08       		.uleb128 0x8
 733 0396 06       		.uleb128 0x6
 734 0397 53030000 		.4byte	.LASF53
 735 039b 08       		.byte	0x8
 736 039c 5B       		.byte	0x5b
 737 039d 3E030000 		.4byte	0x33e
 738 03a1 02       		.byte	0x2
 739 03a2 23       		.byte	0x23
 740 03a3 0C       		.uleb128 0xc
 741 03a4 06       		.uleb128 0x6
 742 03a5 A4010000 		.4byte	.LASF54
 743 03a9 08       		.byte	0x8
 744 03aa 5E       		.byte	0x5e
 745 03ab 65020000 		.4byte	0x265
 746 03af 02       		.byte	0x2
 747 03b0 23       		.byte	0x23
 748 03b1 10       		.uleb128 0x10
 749 03b2 06       		.uleb128 0x6
 750 03b3 93030000 		.4byte	.LASF55
 751 03b7 08       		.byte	0x8
 752 03b8 5F       		.byte	0x5f
 753 03b9 65020000 		.4byte	0x265
 754 03bd 02       		.byte	0x2
 755 03be 23       		.byte	0x23
 756 03bf 14       		.uleb128 0x14
 757 03c0 06       		.uleb128 0x6
 758 03c1 89030000 		.4byte	.LASF56
 759 03c5 08       		.byte	0x8
 760 03c6 62       		.byte	0x62
 761 03c7 65020000 		.4byte	0x265
 762 03cb 02       		.byte	0x2
 763 03cc 23       		.byte	0x23
 764 03cd 18       		.uleb128 0x18
 765 03ce 00       		.byte	0
 766 03cf 03       		.uleb128 0x3
 767 03d0 5B050000 		.4byte	.LASF57
 768 03d4 08       		.byte	0x8
 769 03d5 64       		.byte	0x64
 770 03d6 72030000 		.4byte	0x372
 771 03da 05       		.uleb128 0x5
 772 03db 2A030000 		.4byte	.LASF58
 773 03df 10       		.byte	0x10
 774 03e0 09       		.byte	0x9
 775 03e1 25       		.byte	0x25
 776 03e2 11040000 		.4byte	0x411
 777 03e6 06       		.uleb128 0x6
 778 03e7 E5000000 		.4byte	.LASF59
 779 03eb 09       		.byte	0x9
 780 03ec 26       		.byte	0x26
ARM GAS  /tmp/ccpfxlbk.s 			page 15


 781 03ed 6B020000 		.4byte	0x26b
 782 03f1 02       		.byte	0x2
 783 03f2 23       		.byte	0x23
 784 03f3 00       		.uleb128 0
 785 03f4 06       		.uleb128 0x6
 786 03f5 A8050000 		.4byte	.LASF60
 787 03f9 09       		.byte	0x9
 788 03fa 28       		.byte	0x28
 789 03fb 65020000 		.4byte	0x265
 790 03ff 02       		.byte	0x2
 791 0400 23       		.byte	0x23
 792 0401 08       		.uleb128 0x8
 793 0402 06       		.uleb128 0x6
 794 0403 F6040000 		.4byte	.LASF61
 795 0407 09       		.byte	0x9
 796 0408 2A       		.byte	0x2a
 797 0409 11040000 		.4byte	0x411
 798 040d 02       		.byte	0x2
 799 040e 23       		.byte	0x23
 800 040f 0C       		.uleb128 0xc
 801 0410 00       		.byte	0
 802 0411 09       		.uleb128 0x9
 803 0412 04       		.byte	0x4
 804 0413 DA030000 		.4byte	0x3da
 805 0417 03       		.uleb128 0x3
 806 0418 2A030000 		.4byte	.LASF58
 807 041c 09       		.byte	0x9
 808 041d 2C       		.byte	0x2c
 809 041e DA030000 		.4byte	0x3da
 810 0422 0E       		.uleb128 0xe
 811 0423 04       		.byte	0x4
 812 0424 06       		.byte	0x6
 813 0425 8F       		.byte	0x8f
 814 0426 57040000 		.4byte	0x457
 815 042a 0F       		.uleb128 0xf
 816 042b 2C000000 		.4byte	.LASF62
 817 042f 06       		.byte	0x6
 818 0430 96       		.byte	0x96
 819 0431 EF000000 		.4byte	0xef
 820 0435 0F       		.uleb128 0xf
 821 0436 73000000 		.4byte	.LASF63
 822 043a 06       		.byte	0x6
 823 043b 9D       		.byte	0x9d
 824 043c EF000000 		.4byte	0xef
 825 0440 0F       		.uleb128 0xf
 826 0441 96050000 		.4byte	.LASF64
 827 0445 06       		.byte	0x6
 828 0446 A4       		.byte	0xa4
 829 0447 A3020000 		.4byte	0x2a3
 830 044b 0F       		.uleb128 0xf
 831 044c 62040000 		.4byte	.LASF65
 832 0450 06       		.byte	0x6
 833 0451 AB       		.byte	0xab
 834 0452 FA000000 		.4byte	0xfa
 835 0456 00       		.byte	0
 836 0457 09       		.uleb128 0x9
 837 0458 04       		.byte	0x4
ARM GAS  /tmp/ccpfxlbk.s 			page 16


 838 0459 5D040000 		.4byte	0x45d
 839 045d 10       		.uleb128 0x10
 840 045e 62040000 		.4byte	0x462
 841 0462 04       		.uleb128 0x4
 842 0463 01       		.byte	0x1
 843 0464 08       		.byte	0x8
 844 0465 D3040000 		.4byte	.LASF66
 845 0469 09       		.uleb128 0x9
 846 046a 04       		.byte	0x4
 847 046b 17040000 		.4byte	0x417
 848 046f 03       		.uleb128 0x3
 849 0470 06000000 		.4byte	.LASF67
 850 0474 06       		.byte	0x6
 851 0475 DE       		.byte	0xde
 852 0476 7A040000 		.4byte	0x47a
 853 047a 09       		.uleb128 0x9
 854 047b 04       		.byte	0x4
 855 047c 80040000 		.4byte	0x480
 856 0480 11       		.uleb128 0x11
 857 0481 01       		.byte	0x1
 858 0482 EF000000 		.4byte	0xef
 859 0486 90040000 		.4byte	0x490
 860 048a 12       		.uleb128 0x12
 861 048b A3020000 		.4byte	0x2a3
 862 048f 00       		.byte	0
 863 0490 0D       		.uleb128 0xd
 864 0491 62000000 		.4byte	0x62
 865 0495 0D       		.uleb128 0xd
 866 0496 74000000 		.4byte	0x74
 867 049a 13       		.uleb128 0x13
 868 049b 10       		.byte	0x10
 869 049c 0A       		.byte	0xa
 870 049d E501     		.2byte	0x1e5
 871 049f E0040000 		.4byte	0x4e0
 872 04a3 0C       		.uleb128 0xc
 873 04a4 43435200 		.ascii	"CCR\000"
 874 04a8 0A       		.byte	0xa
 875 04a9 E701     		.2byte	0x1e7
 876 04ab 61030000 		.4byte	0x361
 877 04af 02       		.byte	0x2
 878 04b0 23       		.byte	0x23
 879 04b1 00       		.uleb128 0
 880 04b2 14       		.uleb128 0x14
 881 04b3 65050000 		.4byte	.LASF68
 882 04b7 0A       		.byte	0xa
 883 04b8 E801     		.2byte	0x1e8
 884 04ba 61030000 		.4byte	0x361
 885 04be 02       		.byte	0x2
 886 04bf 23       		.byte	0x23
 887 04c0 04       		.uleb128 0x4
 888 04c1 14       		.uleb128 0x14
 889 04c2 2C020000 		.4byte	.LASF69
 890 04c6 0A       		.byte	0xa
 891 04c7 E901     		.2byte	0x1e9
 892 04c9 61030000 		.4byte	0x361
 893 04cd 02       		.byte	0x2
 894 04ce 23       		.byte	0x23
ARM GAS  /tmp/ccpfxlbk.s 			page 17


 895 04cf 08       		.uleb128 0x8
 896 04d0 14       		.uleb128 0x14
 897 04d1 6B050000 		.4byte	.LASF70
 898 04d5 0A       		.byte	0xa
 899 04d6 EA01     		.2byte	0x1ea
 900 04d8 61030000 		.4byte	0x361
 901 04dc 02       		.byte	0x2
 902 04dd 23       		.byte	0x23
 903 04de 0C       		.uleb128 0xc
 904 04df 00       		.byte	0
 905 04e0 15       		.uleb128 0x15
 906 04e1 9B030000 		.4byte	.LASF71
 907 04e5 0A       		.byte	0xa
 908 04e6 EB01     		.2byte	0x1eb
 909 04e8 9A040000 		.4byte	0x49a
 910 04ec 13       		.uleb128 0x13
 911 04ed 2C       		.byte	0x2c
 912 04ee 0A       		.byte	0xa
 913 04ef 1B03     		.2byte	0x31b
 914 04f1 E6050000 		.4byte	0x5e6
 915 04f5 0C       		.uleb128 0xc
 916 04f6 43523100 		.ascii	"CR1\000"
 917 04fa 0A       		.byte	0xa
 918 04fb 1D03     		.2byte	0x31d
 919 04fd 61030000 		.4byte	0x361
 920 0501 02       		.byte	0x2
 921 0502 23       		.byte	0x23
 922 0503 00       		.uleb128 0
 923 0504 0C       		.uleb128 0xc
 924 0505 43523200 		.ascii	"CR2\000"
 925 0509 0A       		.byte	0xa
 926 050a 1E03     		.2byte	0x31e
 927 050c 61030000 		.4byte	0x361
 928 0510 02       		.byte	0x2
 929 0511 23       		.byte	0x23
 930 0512 04       		.uleb128 0x4
 931 0513 0C       		.uleb128 0xc
 932 0514 43523300 		.ascii	"CR3\000"
 933 0518 0A       		.byte	0xa
 934 0519 1F03     		.2byte	0x31f
 935 051b 61030000 		.4byte	0x361
 936 051f 02       		.byte	0x2
 937 0520 23       		.byte	0x23
 938 0521 08       		.uleb128 0x8
 939 0522 0C       		.uleb128 0xc
 940 0523 42525200 		.ascii	"BRR\000"
 941 0527 0A       		.byte	0xa
 942 0528 2003     		.2byte	0x320
 943 052a 90040000 		.4byte	0x490
 944 052e 02       		.byte	0x2
 945 052f 23       		.byte	0x23
 946 0530 0C       		.uleb128 0xc
 947 0531 14       		.uleb128 0x14
 948 0532 BC030000 		.4byte	.LASF72
 949 0536 0A       		.byte	0xa
 950 0537 2103     		.2byte	0x321
 951 0539 62000000 		.4byte	0x62
ARM GAS  /tmp/ccpfxlbk.s 			page 18


 952 053d 02       		.byte	0x2
 953 053e 23       		.byte	0x23
 954 053f 0E       		.uleb128 0xe
 955 0540 14       		.uleb128 0x14
 956 0541 D0000000 		.4byte	.LASF73
 957 0545 0A       		.byte	0xa
 958 0546 2203     		.2byte	0x322
 959 0548 90040000 		.4byte	0x490
 960 054c 02       		.byte	0x2
 961 054d 23       		.byte	0x23
 962 054e 10       		.uleb128 0x10
 963 054f 14       		.uleb128 0x14
 964 0550 C6030000 		.4byte	.LASF74
 965 0554 0A       		.byte	0xa
 966 0555 2303     		.2byte	0x323
 967 0557 62000000 		.4byte	0x62
 968 055b 02       		.byte	0x2
 969 055c 23       		.byte	0x23
 970 055d 12       		.uleb128 0x12
 971 055e 14       		.uleb128 0x14
 972 055f 46030000 		.4byte	.LASF75
 973 0563 0A       		.byte	0xa
 974 0564 2403     		.2byte	0x324
 975 0566 61030000 		.4byte	0x361
 976 056a 02       		.byte	0x2
 977 056b 23       		.byte	0x23
 978 056c 14       		.uleb128 0x14
 979 056d 0C       		.uleb128 0xc
 980 056e 52515200 		.ascii	"RQR\000"
 981 0572 0A       		.byte	0xa
 982 0573 2503     		.2byte	0x325
 983 0575 90040000 		.4byte	0x490
 984 0579 02       		.byte	0x2
 985 057a 23       		.byte	0x23
 986 057b 18       		.uleb128 0x18
 987 057c 14       		.uleb128 0x14
 988 057d D0030000 		.4byte	.LASF76
 989 0581 0A       		.byte	0xa
 990 0582 2603     		.2byte	0x326
 991 0584 62000000 		.4byte	0x62
 992 0588 02       		.byte	0x2
 993 0589 23       		.byte	0x23
 994 058a 1A       		.uleb128 0x1a
 995 058b 0C       		.uleb128 0xc
 996 058c 49535200 		.ascii	"ISR\000"
 997 0590 0A       		.byte	0xa
 998 0591 2703     		.2byte	0x327
 999 0593 61030000 		.4byte	0x361
 1000 0597 02       		.byte	0x2
 1001 0598 23       		.byte	0x23
 1002 0599 1C       		.uleb128 0x1c
 1003 059a 0C       		.uleb128 0xc
 1004 059b 49435200 		.ascii	"ICR\000"
 1005 059f 0A       		.byte	0xa
 1006 05a0 2803     		.2byte	0x328
 1007 05a2 61030000 		.4byte	0x361
 1008 05a6 02       		.byte	0x2
ARM GAS  /tmp/ccpfxlbk.s 			page 19


 1009 05a7 23       		.byte	0x23
 1010 05a8 20       		.uleb128 0x20
 1011 05a9 0C       		.uleb128 0xc
 1012 05aa 52445200 		.ascii	"RDR\000"
 1013 05ae 0A       		.byte	0xa
 1014 05af 2903     		.2byte	0x329
 1015 05b1 90040000 		.4byte	0x490
 1016 05b5 02       		.byte	0x2
 1017 05b6 23       		.byte	0x23
 1018 05b7 24       		.uleb128 0x24
 1019 05b8 14       		.uleb128 0x14
 1020 05b9 DA030000 		.4byte	.LASF77
 1021 05bd 0A       		.byte	0xa
 1022 05be 2A03     		.2byte	0x32a
 1023 05c0 62000000 		.4byte	0x62
 1024 05c4 02       		.byte	0x2
 1025 05c5 23       		.byte	0x23
 1026 05c6 26       		.uleb128 0x26
 1027 05c7 0C       		.uleb128 0xc
 1028 05c8 54445200 		.ascii	"TDR\000"
 1029 05cc 0A       		.byte	0xa
 1030 05cd 2B03     		.2byte	0x32b
 1031 05cf 90040000 		.4byte	0x490
 1032 05d3 02       		.byte	0x2
 1033 05d4 23       		.byte	0x23
 1034 05d5 28       		.uleb128 0x28
 1035 05d6 14       		.uleb128 0x14
 1036 05d7 9C040000 		.4byte	.LASF78
 1037 05db 0A       		.byte	0xa
 1038 05dc 2C03     		.2byte	0x32c
 1039 05de 62000000 		.4byte	0x62
 1040 05e2 02       		.byte	0x2
 1041 05e3 23       		.byte	0x23
 1042 05e4 2A       		.uleb128 0x2a
 1043 05e5 00       		.byte	0
 1044 05e6 15       		.uleb128 0x15
 1045 05e7 9F020000 		.4byte	.LASF79
 1046 05eb 0A       		.byte	0xa
 1047 05ec 2D03     		.2byte	0x32d
 1048 05ee EC040000 		.4byte	0x4ec
 1049 05f2 08       		.uleb128 0x8
 1050 05f3 0C       		.byte	0xc
 1051 05f4 0B       		.byte	0xb
 1052 05f5 C1       		.byte	0xc1
 1053 05f6 41060000 		.4byte	0x641
 1054 05fa 06       		.uleb128 0x6
 1055 05fb 84040000 		.4byte	.LASF80
 1056 05ff 0B       		.byte	0xb
 1057 0600 C2       		.byte	0xc2
 1058 0601 41060000 		.4byte	0x641
 1059 0605 02       		.byte	0x2
 1060 0606 23       		.byte	0x23
 1061 0607 00       		.uleb128 0
 1062 0608 06       		.uleb128 0x6
 1063 0609 97040000 		.4byte	.LASF81
 1064 060d 0B       		.byte	0xb
 1065 060e C3       		.byte	0xc3
ARM GAS  /tmp/ccpfxlbk.s 			page 20


 1066 060f 47060000 		.4byte	0x647
 1067 0613 02       		.byte	0x2
 1068 0614 23       		.byte	0x23
 1069 0615 04       		.uleb128 0x4
 1070 0616 06       		.uleb128 0x6
 1071 0617 58020000 		.4byte	.LASF82
 1072 061b 0B       		.byte	0xb
 1073 061c C4       		.byte	0xc4
 1074 061d 49000000 		.4byte	0x49
 1075 0621 02       		.byte	0x2
 1076 0622 23       		.byte	0x23
 1077 0623 08       		.uleb128 0x8
 1078 0624 06       		.uleb128 0x6
 1079 0625 B5010000 		.4byte	.LASF83
 1080 0629 0B       		.byte	0xb
 1081 062a C6       		.byte	0xc6
 1082 062b 49000000 		.4byte	0x49
 1083 062f 02       		.byte	0x2
 1084 0630 23       		.byte	0x23
 1085 0631 09       		.uleb128 0x9
 1086 0632 06       		.uleb128 0x6
 1087 0633 7C000000 		.4byte	.LASF84
 1088 0637 0B       		.byte	0xb
 1089 0638 C7       		.byte	0xc7
 1090 0639 49000000 		.4byte	0x49
 1091 063d 02       		.byte	0x2
 1092 063e 23       		.byte	0x23
 1093 063f 0A       		.uleb128 0xa
 1094 0640 00       		.byte	0
 1095 0641 09       		.uleb128 0x9
 1096 0642 04       		.byte	0x4
 1097 0643 E0040000 		.4byte	0x4e0
 1098 0647 09       		.uleb128 0x9
 1099 0648 04       		.byte	0x4
 1100 0649 61030000 		.4byte	0x361
 1101 064d 03       		.uleb128 0x3
 1102 064e F4030000 		.4byte	.LASF85
 1103 0652 0B       		.byte	0xb
 1104 0653 C8       		.byte	0xc8
 1105 0654 F2050000 		.4byte	0x5f2
 1106 0658 08       		.uleb128 0x8
 1107 0659 04       		.byte	0x4
 1108 065a 0C       		.byte	0xc
 1109 065b 96       		.byte	0x96
 1110 065c 7D060000 		.4byte	0x67d
 1111 0660 07       		.uleb128 0x7
 1112 0661 73657400 		.ascii	"set\000"
 1113 0665 0C       		.byte	0xc
 1114 0666 97       		.byte	0x97
 1115 0667 62000000 		.4byte	0x62
 1116 066b 02       		.byte	0x2
 1117 066c 23       		.byte	0x23
 1118 066d 00       		.uleb128 0
 1119 066e 06       		.uleb128 0x6
 1120 066f 13030000 		.4byte	.LASF86
 1121 0673 0C       		.byte	0xc
 1122 0674 98       		.byte	0x98
ARM GAS  /tmp/ccpfxlbk.s 			page 21


 1123 0675 62000000 		.4byte	0x62
 1124 0679 02       		.byte	0x2
 1125 067a 23       		.byte	0x23
 1126 067b 02       		.uleb128 0x2
 1127 067c 00       		.byte	0
 1128 067d 0E       		.uleb128 0xe
 1129 067e 04       		.byte	0x4
 1130 067f 0C       		.byte	0xc
 1131 0680 94       		.byte	0x94
 1132 0681 98060000 		.4byte	0x698
 1133 0685 16       		.uleb128 0x16
 1134 0686 5700     		.ascii	"W\000"
 1135 0688 0C       		.byte	0xc
 1136 0689 95       		.byte	0x95
 1137 068a 86000000 		.4byte	0x86
 1138 068e 16       		.uleb128 0x16
 1139 068f 4800     		.ascii	"H\000"
 1140 0691 0C       		.byte	0xc
 1141 0692 99       		.byte	0x99
 1142 0693 58060000 		.4byte	0x658
 1143 0697 00       		.byte	0
 1144 0698 08       		.uleb128 0x8
 1145 0699 28       		.byte	0x28
 1146 069a 0C       		.byte	0xc
 1147 069b 8C       		.byte	0x8c
 1148 069c 2D070000 		.4byte	0x72d
 1149 06a0 06       		.uleb128 0x6
 1150 06a1 50000000 		.4byte	.LASF87
 1151 06a5 0C       		.byte	0xc
 1152 06a6 8E       		.byte	0x8e
 1153 06a7 61030000 		.4byte	0x361
 1154 06ab 02       		.byte	0x2
 1155 06ac 23       		.byte	0x23
 1156 06ad 00       		.uleb128 0
 1157 06ae 06       		.uleb128 0x6
 1158 06af 3C000000 		.4byte	.LASF88
 1159 06b3 0C       		.byte	0xc
 1160 06b4 8F       		.byte	0x8f
 1161 06b5 61030000 		.4byte	0x361
 1162 06b9 02       		.byte	0x2
 1163 06ba 23       		.byte	0x23
 1164 06bb 04       		.uleb128 0x4
 1165 06bc 06       		.uleb128 0x6
 1166 06bd 9C010000 		.4byte	.LASF89
 1167 06c1 0C       		.byte	0xc
 1168 06c2 90       		.byte	0x90
 1169 06c3 61030000 		.4byte	0x361
 1170 06c7 02       		.byte	0x2
 1171 06c8 23       		.byte	0x23
 1172 06c9 08       		.uleb128 0x8
 1173 06ca 06       		.uleb128 0x6
 1174 06cb 6D000000 		.4byte	.LASF90
 1175 06cf 0C       		.byte	0xc
 1176 06d0 91       		.byte	0x91
 1177 06d1 61030000 		.4byte	0x361
 1178 06d5 02       		.byte	0x2
 1179 06d6 23       		.byte	0x23
ARM GAS  /tmp/ccpfxlbk.s 			page 22


 1180 06d7 0C       		.uleb128 0xc
 1181 06d8 07       		.uleb128 0x7
 1182 06d9 49445200 		.ascii	"IDR\000"
 1183 06dd 0C       		.byte	0xc
 1184 06de 92       		.byte	0x92
 1185 06df 61030000 		.4byte	0x361
 1186 06e3 02       		.byte	0x2
 1187 06e4 23       		.byte	0x23
 1188 06e5 10       		.uleb128 0x10
 1189 06e6 07       		.uleb128 0x7
 1190 06e7 4F445200 		.ascii	"ODR\000"
 1191 06eb 0C       		.byte	0xc
 1192 06ec 93       		.byte	0x93
 1193 06ed 61030000 		.4byte	0x361
 1194 06f1 02       		.byte	0x2
 1195 06f2 23       		.byte	0x23
 1196 06f3 14       		.uleb128 0x14
 1197 06f4 06       		.uleb128 0x6
 1198 06f5 CB000000 		.4byte	.LASF91
 1199 06f9 0C       		.byte	0xc
 1200 06fa 9A       		.byte	0x9a
 1201 06fb 2D070000 		.4byte	0x72d
 1202 06ff 02       		.byte	0x2
 1203 0700 23       		.byte	0x23
 1204 0701 18       		.uleb128 0x18
 1205 0702 06       		.uleb128 0x6
 1206 0703 53020000 		.4byte	.LASF92
 1207 0707 0C       		.byte	0xc
 1208 0708 9B       		.byte	0x9b
 1209 0709 61030000 		.4byte	0x361
 1210 070d 02       		.byte	0x2
 1211 070e 23       		.byte	0x23
 1212 070f 1C       		.uleb128 0x1c
 1213 0710 06       		.uleb128 0x6
 1214 0711 AF030000 		.4byte	.LASF93
 1215 0715 0C       		.byte	0xc
 1216 0716 9C       		.byte	0x9c
 1217 0717 61030000 		.4byte	0x361
 1218 071b 02       		.byte	0x2
 1219 071c 23       		.byte	0x23
 1220 071d 20       		.uleb128 0x20
 1221 071e 06       		.uleb128 0x6
 1222 071f A3050000 		.4byte	.LASF94
 1223 0723 0C       		.byte	0xc
 1224 0724 9D       		.byte	0x9d
 1225 0725 61030000 		.4byte	0x361
 1226 0729 02       		.byte	0x2
 1227 072a 23       		.byte	0x23
 1228 072b 24       		.uleb128 0x24
 1229 072c 00       		.byte	0
 1230 072d 0D       		.uleb128 0xd
 1231 072e 7D060000 		.4byte	0x67d
 1232 0732 03       		.uleb128 0x3
 1233 0733 3C020000 		.4byte	.LASF95
 1234 0737 0C       		.byte	0xc
 1235 0738 9E       		.byte	0x9e
 1236 0739 98060000 		.4byte	0x698
ARM GAS  /tmp/ccpfxlbk.s 			page 23


 1237 073d 03       		.uleb128 0x3
 1238 073e 43000000 		.4byte	.LASF96
 1239 0742 0C       		.byte	0xc
 1240 0743 E8       		.byte	0xe8
 1241 0744 86000000 		.4byte	0x86
 1242 0748 17       		.uleb128 0x17
 1243 0749 01       		.byte	0x1
 1244 074a 0D       		.byte	0xd
 1245 074b 41       		.byte	0x41
 1246 074c 63070000 		.4byte	0x763
 1247 0750 18       		.uleb128 0x18
 1248 0751 72020000 		.4byte	.LASF97
 1249 0755 00       		.sleb128 0
 1250 0756 18       		.uleb128 0x18
 1251 0757 7E020000 		.4byte	.LASF98
 1252 075b 01       		.sleb128 1
 1253 075c 18       		.uleb128 0x18
 1254 075d C6010000 		.4byte	.LASF99
 1255 0761 02       		.sleb128 2
 1256 0762 00       		.byte	0
 1257 0763 03       		.uleb128 0x3
 1258 0764 70040000 		.4byte	.LASF100
 1259 0768 0D       		.byte	0xd
 1260 0769 45       		.byte	0x45
 1261 076a 48070000 		.4byte	0x748
 1262 076e 17       		.uleb128 0x17
 1263 076f 01       		.byte	0x1
 1264 0770 0D       		.byte	0xd
 1265 0771 4A       		.byte	0x4a
 1266 0772 89070000 		.4byte	0x789
 1267 0776 18       		.uleb128 0x18
 1268 0777 12050000 		.4byte	.LASF101
 1269 077b 00       		.sleb128 0
 1270 077c 18       		.uleb128 0x18
 1271 077d D1010000 		.4byte	.LASF102
 1272 0781 01       		.sleb128 1
 1273 0782 18       		.uleb128 0x18
 1274 0783 CF050000 		.4byte	.LASF103
 1275 0787 02       		.sleb128 2
 1276 0788 00       		.byte	0
 1277 0789 03       		.uleb128 0x3
 1278 078a 7B030000 		.4byte	.LASF104
 1279 078e 0D       		.byte	0xd
 1280 078f 4E       		.byte	0x4e
 1281 0790 6E070000 		.4byte	0x76e
 1282 0794 17       		.uleb128 0x17
 1283 0795 01       		.byte	0x1
 1284 0796 0D       		.byte	0xd
 1285 0797 53       		.byte	0x53
 1286 0798 AF070000 		.4byte	0x7af
 1287 079c 18       		.uleb128 0x18
 1288 079d DF040000 		.4byte	.LASF105
 1289 07a1 00       		.sleb128 0
 1290 07a2 18       		.uleb128 0x18
 1291 07a3 B0050000 		.4byte	.LASF106
 1292 07a7 01       		.sleb128 1
 1293 07a8 18       		.uleb128 0x18
ARM GAS  /tmp/ccpfxlbk.s 			page 24


 1294 07a9 19030000 		.4byte	.LASF107
 1295 07ad 02       		.sleb128 2
 1296 07ae 00       		.byte	0
 1297 07af 03       		.uleb128 0x3
 1298 07b0 7D010000 		.4byte	.LASF108
 1299 07b4 0D       		.byte	0xd
 1300 07b5 57       		.byte	0x57
 1301 07b6 94070000 		.4byte	0x794
 1302 07ba 15       		.uleb128 0x15
 1303 07bb 59030000 		.4byte	.LASF109
 1304 07bf 0E       		.byte	0xe
 1305 07c0 2C01     		.2byte	0x12c
 1306 07c2 86000000 		.4byte	0x86
 1307 07c6 15       		.uleb128 0x15
 1308 07c7 91010000 		.4byte	.LASF110
 1309 07cb 0E       		.byte	0xe
 1310 07cc 3101     		.2byte	0x131
 1311 07ce D2070000 		.4byte	0x7d2
 1312 07d2 0B       		.uleb128 0xb
 1313 07d3 91010000 		.4byte	.LASF110
 1314 07d7 1C       		.byte	0x1c
 1315 07d8 0E       		.byte	0xe
 1316 07d9 7901     		.2byte	0x179
 1317 07db 67080000 		.4byte	0x867
 1318 07df 14       		.uleb128 0x14
 1319 07e0 40010000 		.4byte	.LASF111
 1320 07e4 0E       		.byte	0xe
 1321 07e5 7D01     		.2byte	0x17d
 1322 07e7 63070000 		.4byte	0x763
 1323 07eb 02       		.byte	0x2
 1324 07ec 23       		.byte	0x23
 1325 07ed 00       		.uleb128 0
 1326 07ee 14       		.uleb128 0x14
 1327 07ef 46010000 		.4byte	.LASF112
 1328 07f3 0E       		.byte	0xe
 1329 07f4 8101     		.2byte	0x181
 1330 07f6 89070000 		.4byte	0x789
 1331 07fa 02       		.byte	0x2
 1332 07fb 23       		.byte	0x23
 1333 07fc 01       		.uleb128 0x1
 1334 07fd 14       		.uleb128 0x14
 1335 07fe DD000000 		.4byte	.LASF113
 1336 0802 0E       		.byte	0xe
 1337 0803 8501     		.2byte	0x185
 1338 0805 AF070000 		.4byte	0x7af
 1339 0809 02       		.byte	0x2
 1340 080a 23       		.byte	0x23
 1341 080b 02       		.uleb128 0x2
 1342 080c 14       		.uleb128 0x14
 1343 080d D8040000 		.4byte	.LASF114
 1344 0811 0E       		.byte	0xe
 1345 0812 8901     		.2byte	0x189
 1346 0814 6E090000 		.4byte	0x96e
 1347 0818 02       		.byte	0x2
 1348 0819 23       		.byte	0x23
 1349 081a 04       		.uleb128 0x4
 1350 081b 14       		.uleb128 0x14
ARM GAS  /tmp/ccpfxlbk.s 			page 25


 1351 081c E0010000 		.4byte	.LASF115
 1352 0820 0E       		.byte	0xe
 1353 0821 9101     		.2byte	0x191
 1354 0823 79090000 		.4byte	0x979
 1355 0827 02       		.byte	0x2
 1356 0828 23       		.byte	0x23
 1357 0829 08       		.uleb128 0x8
 1358 082a 14       		.uleb128 0x14
 1359 082b 8E050000 		.4byte	.LASF116
 1360 082f 0E       		.byte	0xe
 1361 0830 9501     		.2byte	0x195
 1362 0832 86000000 		.4byte	0x86
 1363 0836 02       		.byte	0x2
 1364 0837 23       		.byte	0x23
 1365 0838 0C       		.uleb128 0xc
 1366 0839 14       		.uleb128 0x14
 1367 083a 00000000 		.4byte	.LASF117
 1368 083e 0E       		.byte	0xe
 1369 083f 9901     		.2byte	0x199
 1370 0841 7F090000 		.4byte	0x97f
 1371 0845 02       		.byte	0x2
 1372 0846 23       		.byte	0x23
 1373 0847 10       		.uleb128 0x10
 1374 0848 14       		.uleb128 0x14
 1375 0849 8B010000 		.4byte	.LASF118
 1376 084d 0E       		.byte	0xe
 1377 084e 9D01     		.2byte	0x19d
 1378 0850 7F090000 		.4byte	0x97f
 1379 0854 02       		.byte	0x2
 1380 0855 23       		.byte	0x23
 1381 0856 14       		.uleb128 0x14
 1382 0857 14       		.uleb128 0x14
 1383 0858 9B000000 		.4byte	.LASF119
 1384 085c 0E       		.byte	0xe
 1385 085d A101     		.2byte	0x1a1
 1386 085f 90040000 		.4byte	0x490
 1387 0863 02       		.byte	0x2
 1388 0864 23       		.byte	0x23
 1389 0865 18       		.uleb128 0x18
 1390 0866 00       		.byte	0
 1391 0867 15       		.uleb128 0x15
 1392 0868 C2000000 		.4byte	.LASF120
 1393 086c 0E       		.byte	0xe
 1394 086d 3801     		.2byte	0x138
 1395 086f 73080000 		.4byte	0x873
 1396 0873 09       		.uleb128 0x9
 1397 0874 04       		.byte	0x4
 1398 0875 79080000 		.4byte	0x879
 1399 0879 19       		.uleb128 0x19
 1400 087a 01       		.byte	0x1
 1401 087b 85080000 		.4byte	0x885
 1402 087f 12       		.uleb128 0x12
 1403 0880 85080000 		.4byte	0x885
 1404 0884 00       		.byte	0
 1405 0885 09       		.uleb128 0x9
 1406 0886 04       		.byte	0x4
 1407 0887 C6070000 		.4byte	0x7c6
ARM GAS  /tmp/ccpfxlbk.s 			page 26


 1408 088b 15       		.uleb128 0x15
 1409 088c B7040000 		.4byte	.LASF121
 1410 0890 0E       		.byte	0xe
 1411 0891 4001     		.2byte	0x140
 1412 0893 97080000 		.4byte	0x897
 1413 0897 09       		.uleb128 0x9
 1414 0898 04       		.byte	0x4
 1415 0899 9D080000 		.4byte	0x89d
 1416 089d 19       		.uleb128 0x19
 1417 089e 01       		.byte	0x1
 1418 089f AE080000 		.4byte	0x8ae
 1419 08a3 12       		.uleb128 0x12
 1420 08a4 85080000 		.4byte	0x885
 1421 08a8 12       		.uleb128 0x12
 1422 08a9 62000000 		.4byte	0x62
 1423 08ad 00       		.byte	0
 1424 08ae 15       		.uleb128 0x15
 1425 08af 49020000 		.4byte	.LASF122
 1426 08b3 0E       		.byte	0xe
 1427 08b4 4801     		.2byte	0x148
 1428 08b6 BA080000 		.4byte	0x8ba
 1429 08ba 09       		.uleb128 0x9
 1430 08bb 04       		.byte	0x4
 1431 08bc C0080000 		.4byte	0x8c0
 1432 08c0 19       		.uleb128 0x19
 1433 08c1 01       		.byte	0x1
 1434 08c2 D1080000 		.4byte	0x8d1
 1435 08c6 12       		.uleb128 0x12
 1436 08c7 85080000 		.4byte	0x885
 1437 08cb 12       		.uleb128 0x12
 1438 08cc BA070000 		.4byte	0x7ba
 1439 08d0 00       		.byte	0
 1440 08d1 13       		.uleb128 0x13
 1441 08d2 24       		.byte	0x24
 1442 08d3 0E       		.byte	0xe
 1443 08d4 4E01     		.2byte	0x14e
 1444 08d6 62090000 		.4byte	0x962
 1445 08da 14       		.uleb128 0x14
 1446 08db EC040000 		.4byte	.LASF123
 1447 08df 0E       		.byte	0xe
 1448 08e0 5201     		.2byte	0x152
 1449 08e2 67080000 		.4byte	0x867
 1450 08e6 02       		.byte	0x2
 1451 08e7 23       		.byte	0x23
 1452 08e8 00       		.uleb128 0
 1453 08e9 14       		.uleb128 0x14
 1454 08ea 07040000 		.4byte	.LASF124
 1455 08ee 0E       		.byte	0xe
 1456 08ef 5601     		.2byte	0x156
 1457 08f1 67080000 		.4byte	0x867
 1458 08f5 02       		.byte	0x2
 1459 08f6 23       		.byte	0x23
 1460 08f7 04       		.uleb128 0x4
 1461 08f8 14       		.uleb128 0x14
 1462 08f9 72030000 		.4byte	.LASF125
 1463 08fd 0E       		.byte	0xe
 1464 08fe 5A01     		.2byte	0x15a
ARM GAS  /tmp/ccpfxlbk.s 			page 27


 1465 0900 67080000 		.4byte	0x867
 1466 0904 02       		.byte	0x2
 1467 0905 23       		.byte	0x23
 1468 0906 08       		.uleb128 0x8
 1469 0907 14       		.uleb128 0x14
 1470 0908 22000000 		.4byte	.LASF126
 1471 090c 0E       		.byte	0xe
 1472 090d 5E01     		.2byte	0x15e
 1473 090f 8B080000 		.4byte	0x88b
 1474 0913 02       		.byte	0x2
 1475 0914 23       		.byte	0x23
 1476 0915 0C       		.uleb128 0xc
 1477 0916 14       		.uleb128 0x14
 1478 0917 30030000 		.4byte	.LASF127
 1479 091b 0E       		.byte	0xe
 1480 091c 6201     		.2byte	0x162
 1481 091e AE080000 		.4byte	0x8ae
 1482 0922 02       		.byte	0x2
 1483 0923 23       		.byte	0x23
 1484 0924 10       		.uleb128 0x10
 1485 0925 14       		.uleb128 0x14
 1486 0926 9D050000 		.4byte	.LASF128
 1487 092a 0E       		.byte	0xe
 1488 092b 6701     		.2byte	0x167
 1489 092d 86000000 		.4byte	0x86
 1490 0931 02       		.byte	0x2
 1491 0932 23       		.byte	0x23
 1492 0933 14       		.uleb128 0x14
 1493 0934 0C       		.uleb128 0xc
 1494 0935 63723100 		.ascii	"cr1\000"
 1495 0939 0E       		.byte	0xe
 1496 093a 6B01     		.2byte	0x16b
 1497 093c 86000000 		.4byte	0x86
 1498 0940 02       		.byte	0x2
 1499 0941 23       		.byte	0x23
 1500 0942 18       		.uleb128 0x18
 1501 0943 0C       		.uleb128 0xc
 1502 0944 63723200 		.ascii	"cr2\000"
 1503 0948 0E       		.byte	0xe
 1504 0949 6F01     		.2byte	0x16f
 1505 094b 86000000 		.4byte	0x86
 1506 094f 02       		.byte	0x2
 1507 0950 23       		.byte	0x23
 1508 0951 1C       		.uleb128 0x1c
 1509 0952 0C       		.uleb128 0xc
 1510 0953 63723300 		.ascii	"cr3\000"
 1511 0957 0E       		.byte	0xe
 1512 0958 7301     		.2byte	0x173
 1513 095a 86000000 		.4byte	0x86
 1514 095e 02       		.byte	0x2
 1515 095f 23       		.byte	0x23
 1516 0960 20       		.uleb128 0x20
 1517 0961 00       		.byte	0
 1518 0962 15       		.uleb128 0x15
 1519 0963 83000000 		.4byte	.LASF129
 1520 0967 0E       		.byte	0xe
 1521 0968 7401     		.2byte	0x174
ARM GAS  /tmp/ccpfxlbk.s 			page 28


 1522 096a D1080000 		.4byte	0x8d1
 1523 096e 09       		.uleb128 0x9
 1524 096f 04       		.byte	0x4
 1525 0970 74090000 		.4byte	0x974
 1526 0974 10       		.uleb128 0x10
 1527 0975 62090000 		.4byte	0x962
 1528 0979 09       		.uleb128 0x9
 1529 097a 04       		.byte	0x4
 1530 097b E6050000 		.4byte	0x5e6
 1531 097f 09       		.uleb128 0x9
 1532 0980 04       		.byte	0x4
 1533 0981 85090000 		.4byte	0x985
 1534 0985 10       		.uleb128 0x10
 1535 0986 4D060000 		.4byte	0x64d
 1536 098a 1A       		.uleb128 0x1a
 1537 098b E5020000 		.4byte	.LASF130
 1538 098f 01       		.byte	0x1
 1539 0990 11       		.byte	0x11
 1540 0991 01       		.byte	0x1
 1541 0992 EF000000 		.4byte	0xef
 1542 0996 00000000 		.4byte	.LFB118
 1543 099a 2C000000 		.4byte	.LFE118
 1544 099e 00000000 		.4byte	.LLST0
 1545 09a2 01       		.byte	0x1
 1546 09a3 C8090000 		.4byte	0x9c8
 1547 09a7 1B       		.uleb128 0x1b
 1548 09a8 61726700 		.ascii	"arg\000"
 1549 09ac 01       		.byte	0x1
 1550 09ad 11       		.byte	0x11
 1551 09ae A3020000 		.4byte	0x2a3
 1552 09b2 20000000 		.4byte	.LLST1
 1553 09b6 1C       		.uleb128 0x1c
 1554 09b7 1A000000 		.4byte	.LVL2
 1555 09bb 1C0B0000 		.4byte	0xb1c
 1556 09bf 1D       		.uleb128 0x1d
 1557 09c0 01       		.byte	0x1
 1558 09c1 50       		.byte	0x50
 1559 09c2 03       		.byte	0x3
 1560 09c3 0A       		.byte	0xa
 1561 09c4 F401     		.2byte	0x1f4
 1562 09c6 00       		.byte	0
 1563 09c7 00       		.byte	0
 1564 09c8 1A       		.uleb128 0x1a
 1565 09c9 CD020000 		.4byte	.LASF131
 1566 09cd 01       		.byte	0x1
 1567 09ce 29       		.byte	0x29
 1568 09cf 01       		.byte	0x1
 1569 09d0 EF000000 		.4byte	0xef
 1570 09d4 00000000 		.4byte	.LFB120
 1571 09d8 44000000 		.4byte	.LFE120
 1572 09dc 41000000 		.4byte	.LLST2
 1573 09e0 01       		.byte	0x1
 1574 09e1 2D0A0000 		.4byte	0xa2d
 1575 09e5 1B       		.uleb128 0x1b
 1576 09e6 61726700 		.ascii	"arg\000"
 1577 09ea 01       		.byte	0x1
 1578 09eb 29       		.byte	0x29
ARM GAS  /tmp/ccpfxlbk.s 			page 29


 1579 09ec A3020000 		.4byte	0x2a3
 1580 09f0 6D000000 		.4byte	.LLST3
 1581 09f4 1E       		.uleb128 0x1e
 1582 09f5 EB030000 		.4byte	.LASF134
 1583 09f9 01       		.byte	0x1
 1584 09fa 2B       		.byte	0x2b
 1585 09fb 49000000 		.4byte	0x49
 1586 09ff 02       		.byte	0x2
 1587 0a00 91       		.byte	0x91
 1588 0a01 6F       		.sleb128 -17
 1589 0a02 1F       		.uleb128 0x1f
 1590 0a03 1E000000 		.4byte	.LVL6
 1591 0a07 1C0B0000 		.4byte	0xb1c
 1592 0a0b 170A0000 		.4byte	0xa17
 1593 0a0f 1D       		.uleb128 0x1d
 1594 0a10 01       		.byte	0x1
 1595 0a11 50       		.byte	0x50
 1596 0a12 03       		.byte	0x3
 1597 0a13 0A       		.byte	0xa
 1598 0a14 2C01     		.2byte	0x12c
 1599 0a16 00       		.byte	0
 1600 0a17 1C       		.uleb128 0x1c
 1601 0a18 36000000 		.4byte	.LVL7
 1602 0a1c 310B0000 		.4byte	0xb31
 1603 0a20 1D       		.uleb128 0x1d
 1604 0a21 01       		.byte	0x1
 1605 0a22 52       		.byte	0x52
 1606 0a23 02       		.byte	0x2
 1607 0a24 91       		.byte	0x91
 1608 0a25 6F       		.sleb128 -17
 1609 0a26 1D       		.uleb128 0x1d
 1610 0a27 01       		.byte	0x1
 1611 0a28 51       		.byte	0x51
 1612 0a29 01       		.byte	0x1
 1613 0a2a 31       		.byte	0x31
 1614 0a2b 00       		.byte	0
 1615 0a2c 00       		.byte	0
 1616 0a2d 20       		.uleb128 0x20
 1617 0a2e 01       		.byte	0x1
 1618 0a2f 7E050000 		.4byte	.LASF132
 1619 0a33 01       		.byte	0x1
 1620 0a34 22       		.byte	0x22
 1621 0a35 01       		.byte	0x1
 1622 0a36 00000000 		.4byte	.LFB119
 1623 0a3a 26000000 		.4byte	.LFE119
 1624 0a3e 8E000000 		.4byte	.LLST4
 1625 0a42 01       		.byte	0x1
 1626 0a43 770A0000 		.4byte	0xa77
 1627 0a47 1C       		.uleb128 0x1c
 1628 0a48 22000000 		.4byte	.LVL8
 1629 0a4c 560B0000 		.4byte	0xb56
 1630 0a50 1D       		.uleb128 0x1d
 1631 0a51 01       		.byte	0x1
 1632 0a52 53       		.byte	0x53
 1633 0a53 05       		.byte	0x5
 1634 0a54 03       		.byte	0x3
 1635 0a55 00000000 		.4byte	tBlinkyBlue
ARM GAS  /tmp/ccpfxlbk.s 			page 30


 1636 0a59 1D       		.uleb128 0x1d
 1637 0a5a 01       		.byte	0x1
 1638 0a5b 52       		.byte	0x52
 1639 0a5c 02       		.byte	0x2
 1640 0a5d 08       		.byte	0x8
 1641 0a5e 40       		.byte	0x40
 1642 0a5f 1D       		.uleb128 0x1d
 1643 0a60 01       		.byte	0x1
 1644 0a61 51       		.byte	0x51
 1645 0a62 03       		.byte	0x3
 1646 0a63 0A       		.byte	0xa
 1647 0a64 3001     		.2byte	0x130
 1648 0a66 1D       		.uleb128 0x1d
 1649 0a67 01       		.byte	0x1
 1650 0a68 50       		.byte	0x50
 1651 0a69 05       		.byte	0x5
 1652 0a6a 03       		.byte	0x3
 1653 0a6b 00000000 		.4byte	.LANCHOR0
 1654 0a6f 1D       		.uleb128 0x1d
 1655 0a70 02       		.byte	0x2
 1656 0a71 7D       		.byte	0x7d
 1657 0a72 00       		.sleb128 0
 1658 0a73 01       		.byte	0x1
 1659 0a74 30       		.byte	0x30
 1660 0a75 00       		.byte	0
 1661 0a76 00       		.byte	0
 1662 0a77 20       		.uleb128 0x20
 1663 0a78 01       		.byte	0x1
 1664 0a79 88020000 		.4byte	.LASF133
 1665 0a7d 01       		.byte	0x1
 1666 0a7e 40       		.byte	0x40
 1667 0a7f 01       		.byte	0x1
 1668 0a80 00000000 		.4byte	.LFB121
 1669 0a84 26000000 		.4byte	.LFE121
 1670 0a88 BA000000 		.4byte	.LLST5
 1671 0a8c 01       		.byte	0x1
 1672 0a8d C10A0000 		.4byte	0xac1
 1673 0a91 1C       		.uleb128 0x1c
 1674 0a92 22000000 		.4byte	.LVL9
 1675 0a96 560B0000 		.4byte	0xb56
 1676 0a9a 1D       		.uleb128 0x1d
 1677 0a9b 01       		.byte	0x1
 1678 0a9c 53       		.byte	0x53
 1679 0a9d 05       		.byte	0x5
 1680 0a9e 03       		.byte	0x3
 1681 0a9f 00000000 		.4byte	tBlinkyGreen
 1682 0aa3 1D       		.uleb128 0x1d
 1683 0aa4 01       		.byte	0x1
 1684 0aa5 52       		.byte	0x52
 1685 0aa6 02       		.byte	0x2
 1686 0aa7 08       		.byte	0x8
 1687 0aa8 40       		.byte	0x40
 1688 0aa9 1D       		.uleb128 0x1d
 1689 0aaa 01       		.byte	0x1
 1690 0aab 51       		.byte	0x51
 1691 0aac 03       		.byte	0x3
 1692 0aad 0A       		.byte	0xa
ARM GAS  /tmp/ccpfxlbk.s 			page 31


 1693 0aae 3001     		.2byte	0x130
 1694 0ab0 1D       		.uleb128 0x1d
 1695 0ab1 01       		.byte	0x1
 1696 0ab2 50       		.byte	0x50
 1697 0ab3 05       		.byte	0x5
 1698 0ab4 03       		.byte	0x3
 1699 0ab5 00000000 		.4byte	.LANCHOR1
 1700 0ab9 1D       		.uleb128 0x1d
 1701 0aba 02       		.byte	0x2
 1702 0abb 7D       		.byte	0x7d
 1703 0abc 00       		.sleb128 0
 1704 0abd 01       		.byte	0x1
 1705 0abe 30       		.byte	0x30
 1706 0abf 00       		.byte	0
 1707 0ac0 00       		.byte	0
 1708 0ac1 21       		.uleb128 0x21
 1709 0ac2 A5020000 		.4byte	0x2a5
 1710 0ac6 D10A0000 		.4byte	0xad1
 1711 0aca 22       		.uleb128 0x22
 1712 0acb 66030000 		.4byte	0x366
 1713 0acf 25       		.byte	0x25
 1714 0ad0 00       		.byte	0
 1715 0ad1 1E       		.uleb128 0x1e
 1716 0ad2 15000000 		.4byte	.LASF135
 1717 0ad6 01       		.byte	0x1
 1718 0ad7 10       		.byte	0x10
 1719 0ad8 C10A0000 		.4byte	0xac1
 1720 0adc 05       		.byte	0x5
 1721 0add 03       		.byte	0x3
 1722 0ade 00000000 		.4byte	waBlinkyBlue
 1723 0ae2 1E       		.uleb128 0x1e
 1724 0ae3 1F050000 		.4byte	.LASF136
 1725 0ae7 01       		.byte	0x1
 1726 0ae8 28       		.byte	0x28
 1727 0ae9 C10A0000 		.4byte	0xac1
 1728 0aed 05       		.byte	0x5
 1729 0aee 03       		.byte	0x3
 1730 0aef 00000000 		.4byte	waBlinkyGreen
 1731 0af3 23       		.uleb128 0x23
 1732 0af4 70050000 		.4byte	.LASF137
 1733 0af8 08       		.byte	0x8
 1734 0af9 68       		.byte	0x68
 1735 0afa CF030000 		.4byte	0x3cf
 1736 0afe 01       		.byte	0x1
 1737 0aff 01       		.byte	0x1
 1738 0b00 24       		.uleb128 0x24
 1739 0b01 8E000000 		.4byte	.LASF138
 1740 0b05 0F       		.byte	0xf
 1741 0b06 9806     		.2byte	0x698
 1742 0b08 95040000 		.4byte	0x495
 1743 0b0c 01       		.byte	0x1
 1744 0b0d 01       		.byte	0x1
 1745 0b0e 24       		.uleb128 0x24
 1746 0b0f 03030000 		.4byte	.LASF139
 1747 0b13 0E       		.byte	0xe
 1748 0b14 AD01     		.2byte	0x1ad
 1749 0b16 C6070000 		.4byte	0x7c6
ARM GAS  /tmp/ccpfxlbk.s 			page 32


 1750 0b1a 01       		.byte	0x1
 1751 0b1b 01       		.byte	0x1
 1752 0b1c 25       		.uleb128 0x25
 1753 0b1d 01       		.byte	0x1
 1754 0b1e 42050000 		.4byte	.LASF140
 1755 0b22 06       		.byte	0x6
 1756 0b23 6E01     		.2byte	0x16e
 1757 0b25 01       		.byte	0x1
 1758 0b26 01       		.byte	0x1
 1759 0b27 310B0000 		.4byte	0xb31
 1760 0b2b 12       		.uleb128 0x12
 1761 0b2c 05010000 		.4byte	0x105
 1762 0b30 00       		.byte	0
 1763 0b31 26       		.uleb128 0x26
 1764 0b32 01       		.byte	0x1
 1765 0b33 67010000 		.4byte	.LASF141
 1766 0b37 0D       		.byte	0xd
 1767 0b38 6A       		.byte	0x6a
 1768 0b39 01       		.byte	0x1
 1769 0b3a 01       		.byte	0x1
 1770 0b3b 4F0B0000 		.4byte	0xb4f
 1771 0b3f 12       		.uleb128 0x12
 1772 0b40 85080000 		.4byte	0x885
 1773 0b44 12       		.uleb128 0x12
 1774 0b45 30000000 		.4byte	0x30
 1775 0b49 12       		.uleb128 0x12
 1776 0b4a 4F0B0000 		.4byte	0xb4f
 1777 0b4e 00       		.byte	0
 1778 0b4f 09       		.uleb128 0x9
 1779 0b50 04       		.byte	0x4
 1780 0b51 550B0000 		.4byte	0xb55
 1781 0b55 27       		.uleb128 0x27
 1782 0b56 28       		.uleb128 0x28
 1783 0b57 01       		.byte	0x1
 1784 0b58 F1020000 		.4byte	.LASF142
 1785 0b5c 06       		.byte	0x6
 1786 0b5d 6901     		.2byte	0x169
 1787 0b5f 01       		.byte	0x1
 1788 0b60 65020000 		.4byte	0x265
 1789 0b64 01       		.byte	0x1
 1790 0b65 12       		.uleb128 0x12
 1791 0b66 A3020000 		.4byte	0x2a3
 1792 0b6a 12       		.uleb128 0x12
 1793 0b6b 30000000 		.4byte	0x30
 1794 0b6f 12       		.uleb128 0x12
 1795 0b70 E4000000 		.4byte	0xe4
 1796 0b74 12       		.uleb128 0x12
 1797 0b75 6F040000 		.4byte	0x46f
 1798 0b79 12       		.uleb128 0x12
 1799 0b7a A3020000 		.4byte	0x2a3
 1800 0b7e 00       		.byte	0
 1801 0b7f 00       		.byte	0
 1802              		.section	.debug_abbrev,"",%progbits
 1803              	.Ldebug_abbrev0:
 1804 0000 01       		.uleb128 0x1
 1805 0001 11       		.uleb128 0x11
 1806 0002 01       		.byte	0x1
ARM GAS  /tmp/ccpfxlbk.s 			page 33


 1807 0003 25       		.uleb128 0x25
 1808 0004 0E       		.uleb128 0xe
 1809 0005 13       		.uleb128 0x13
 1810 0006 0B       		.uleb128 0xb
 1811 0007 03       		.uleb128 0x3
 1812 0008 0E       		.uleb128 0xe
 1813 0009 1B       		.uleb128 0x1b
 1814 000a 0E       		.uleb128 0xe
 1815 000b 55       		.uleb128 0x55
 1816 000c 06       		.uleb128 0x6
 1817 000d 11       		.uleb128 0x11
 1818 000e 01       		.uleb128 0x1
 1819 000f 52       		.uleb128 0x52
 1820 0010 01       		.uleb128 0x1
 1821 0011 10       		.uleb128 0x10
 1822 0012 06       		.uleb128 0x6
 1823 0013 00       		.byte	0
 1824 0014 00       		.byte	0
 1825 0015 02       		.uleb128 0x2
 1826 0016 24       		.uleb128 0x24
 1827 0017 00       		.byte	0
 1828 0018 0B       		.uleb128 0xb
 1829 0019 0B       		.uleb128 0xb
 1830 001a 3E       		.uleb128 0x3e
 1831 001b 0B       		.uleb128 0xb
 1832 001c 03       		.uleb128 0x3
 1833 001d 08       		.uleb128 0x8
 1834 001e 00       		.byte	0
 1835 001f 00       		.byte	0
 1836 0020 03       		.uleb128 0x3
 1837 0021 16       		.uleb128 0x16
 1838 0022 00       		.byte	0
 1839 0023 03       		.uleb128 0x3
 1840 0024 0E       		.uleb128 0xe
 1841 0025 3A       		.uleb128 0x3a
 1842 0026 0B       		.uleb128 0xb
 1843 0027 3B       		.uleb128 0x3b
 1844 0028 0B       		.uleb128 0xb
 1845 0029 49       		.uleb128 0x49
 1846 002a 13       		.uleb128 0x13
 1847 002b 00       		.byte	0
 1848 002c 00       		.byte	0
 1849 002d 04       		.uleb128 0x4
 1850 002e 24       		.uleb128 0x24
 1851 002f 00       		.byte	0
 1852 0030 0B       		.uleb128 0xb
 1853 0031 0B       		.uleb128 0xb
 1854 0032 3E       		.uleb128 0x3e
 1855 0033 0B       		.uleb128 0xb
 1856 0034 03       		.uleb128 0x3
 1857 0035 0E       		.uleb128 0xe
 1858 0036 00       		.byte	0
 1859 0037 00       		.byte	0
 1860 0038 05       		.uleb128 0x5
 1861 0039 13       		.uleb128 0x13
 1862 003a 01       		.byte	0x1
 1863 003b 03       		.uleb128 0x3
ARM GAS  /tmp/ccpfxlbk.s 			page 34


 1864 003c 0E       		.uleb128 0xe
 1865 003d 0B       		.uleb128 0xb
 1866 003e 0B       		.uleb128 0xb
 1867 003f 3A       		.uleb128 0x3a
 1868 0040 0B       		.uleb128 0xb
 1869 0041 3B       		.uleb128 0x3b
 1870 0042 0B       		.uleb128 0xb
 1871 0043 01       		.uleb128 0x1
 1872 0044 13       		.uleb128 0x13
 1873 0045 00       		.byte	0
 1874 0046 00       		.byte	0
 1875 0047 06       		.uleb128 0x6
 1876 0048 0D       		.uleb128 0xd
 1877 0049 00       		.byte	0
 1878 004a 03       		.uleb128 0x3
 1879 004b 0E       		.uleb128 0xe
 1880 004c 3A       		.uleb128 0x3a
 1881 004d 0B       		.uleb128 0xb
 1882 004e 3B       		.uleb128 0x3b
 1883 004f 0B       		.uleb128 0xb
 1884 0050 49       		.uleb128 0x49
 1885 0051 13       		.uleb128 0x13
 1886 0052 38       		.uleb128 0x38
 1887 0053 0A       		.uleb128 0xa
 1888 0054 00       		.byte	0
 1889 0055 00       		.byte	0
 1890 0056 07       		.uleb128 0x7
 1891 0057 0D       		.uleb128 0xd
 1892 0058 00       		.byte	0
 1893 0059 03       		.uleb128 0x3
 1894 005a 08       		.uleb128 0x8
 1895 005b 3A       		.uleb128 0x3a
 1896 005c 0B       		.uleb128 0xb
 1897 005d 3B       		.uleb128 0x3b
 1898 005e 0B       		.uleb128 0xb
 1899 005f 49       		.uleb128 0x49
 1900 0060 13       		.uleb128 0x13
 1901 0061 38       		.uleb128 0x38
 1902 0062 0A       		.uleb128 0xa
 1903 0063 00       		.byte	0
 1904 0064 00       		.byte	0
 1905 0065 08       		.uleb128 0x8
 1906 0066 13       		.uleb128 0x13
 1907 0067 01       		.byte	0x1
 1908 0068 0B       		.uleb128 0xb
 1909 0069 0B       		.uleb128 0xb
 1910 006a 3A       		.uleb128 0x3a
 1911 006b 0B       		.uleb128 0xb
 1912 006c 3B       		.uleb128 0x3b
 1913 006d 0B       		.uleb128 0xb
 1914 006e 01       		.uleb128 0x1
 1915 006f 13       		.uleb128 0x13
 1916 0070 00       		.byte	0
 1917 0071 00       		.byte	0
 1918 0072 09       		.uleb128 0x9
 1919 0073 0F       		.uleb128 0xf
 1920 0074 00       		.byte	0
ARM GAS  /tmp/ccpfxlbk.s 			page 35


 1921 0075 0B       		.uleb128 0xb
 1922 0076 0B       		.uleb128 0xb
 1923 0077 49       		.uleb128 0x49
 1924 0078 13       		.uleb128 0x13
 1925 0079 00       		.byte	0
 1926 007a 00       		.byte	0
 1927 007b 0A       		.uleb128 0xa
 1928 007c 0F       		.uleb128 0xf
 1929 007d 00       		.byte	0
 1930 007e 0B       		.uleb128 0xb
 1931 007f 0B       		.uleb128 0xb
 1932 0080 00       		.byte	0
 1933 0081 00       		.byte	0
 1934 0082 0B       		.uleb128 0xb
 1935 0083 13       		.uleb128 0x13
 1936 0084 01       		.byte	0x1
 1937 0085 03       		.uleb128 0x3
 1938 0086 0E       		.uleb128 0xe
 1939 0087 0B       		.uleb128 0xb
 1940 0088 0B       		.uleb128 0xb
 1941 0089 3A       		.uleb128 0x3a
 1942 008a 0B       		.uleb128 0xb
 1943 008b 3B       		.uleb128 0x3b
 1944 008c 05       		.uleb128 0x5
 1945 008d 01       		.uleb128 0x1
 1946 008e 13       		.uleb128 0x13
 1947 008f 00       		.byte	0
 1948 0090 00       		.byte	0
 1949 0091 0C       		.uleb128 0xc
 1950 0092 0D       		.uleb128 0xd
 1951 0093 00       		.byte	0
 1952 0094 03       		.uleb128 0x3
 1953 0095 08       		.uleb128 0x8
 1954 0096 3A       		.uleb128 0x3a
 1955 0097 0B       		.uleb128 0xb
 1956 0098 3B       		.uleb128 0x3b
 1957 0099 05       		.uleb128 0x5
 1958 009a 49       		.uleb128 0x49
 1959 009b 13       		.uleb128 0x13
 1960 009c 38       		.uleb128 0x38
 1961 009d 0A       		.uleb128 0xa
 1962 009e 00       		.byte	0
 1963 009f 00       		.byte	0
 1964 00a0 0D       		.uleb128 0xd
 1965 00a1 35       		.uleb128 0x35
 1966 00a2 00       		.byte	0
 1967 00a3 49       		.uleb128 0x49
 1968 00a4 13       		.uleb128 0x13
 1969 00a5 00       		.byte	0
 1970 00a6 00       		.byte	0
 1971 00a7 0E       		.uleb128 0xe
 1972 00a8 17       		.uleb128 0x17
 1973 00a9 01       		.byte	0x1
 1974 00aa 0B       		.uleb128 0xb
 1975 00ab 0B       		.uleb128 0xb
 1976 00ac 3A       		.uleb128 0x3a
 1977 00ad 0B       		.uleb128 0xb
ARM GAS  /tmp/ccpfxlbk.s 			page 36


 1978 00ae 3B       		.uleb128 0x3b
 1979 00af 0B       		.uleb128 0xb
 1980 00b0 01       		.uleb128 0x1
 1981 00b1 13       		.uleb128 0x13
 1982 00b2 00       		.byte	0
 1983 00b3 00       		.byte	0
 1984 00b4 0F       		.uleb128 0xf
 1985 00b5 0D       		.uleb128 0xd
 1986 00b6 00       		.byte	0
 1987 00b7 03       		.uleb128 0x3
 1988 00b8 0E       		.uleb128 0xe
 1989 00b9 3A       		.uleb128 0x3a
 1990 00ba 0B       		.uleb128 0xb
 1991 00bb 3B       		.uleb128 0x3b
 1992 00bc 0B       		.uleb128 0xb
 1993 00bd 49       		.uleb128 0x49
 1994 00be 13       		.uleb128 0x13
 1995 00bf 00       		.byte	0
 1996 00c0 00       		.byte	0
 1997 00c1 10       		.uleb128 0x10
 1998 00c2 26       		.uleb128 0x26
 1999 00c3 00       		.byte	0
 2000 00c4 49       		.uleb128 0x49
 2001 00c5 13       		.uleb128 0x13
 2002 00c6 00       		.byte	0
 2003 00c7 00       		.byte	0
 2004 00c8 11       		.uleb128 0x11
 2005 00c9 15       		.uleb128 0x15
 2006 00ca 01       		.byte	0x1
 2007 00cb 27       		.uleb128 0x27
 2008 00cc 0C       		.uleb128 0xc
 2009 00cd 49       		.uleb128 0x49
 2010 00ce 13       		.uleb128 0x13
 2011 00cf 01       		.uleb128 0x1
 2012 00d0 13       		.uleb128 0x13
 2013 00d1 00       		.byte	0
 2014 00d2 00       		.byte	0
 2015 00d3 12       		.uleb128 0x12
 2016 00d4 05       		.uleb128 0x5
 2017 00d5 00       		.byte	0
 2018 00d6 49       		.uleb128 0x49
 2019 00d7 13       		.uleb128 0x13
 2020 00d8 00       		.byte	0
 2021 00d9 00       		.byte	0
 2022 00da 13       		.uleb128 0x13
 2023 00db 13       		.uleb128 0x13
 2024 00dc 01       		.byte	0x1
 2025 00dd 0B       		.uleb128 0xb
 2026 00de 0B       		.uleb128 0xb
 2027 00df 3A       		.uleb128 0x3a
 2028 00e0 0B       		.uleb128 0xb
 2029 00e1 3B       		.uleb128 0x3b
 2030 00e2 05       		.uleb128 0x5
 2031 00e3 01       		.uleb128 0x1
 2032 00e4 13       		.uleb128 0x13
 2033 00e5 00       		.byte	0
 2034 00e6 00       		.byte	0
ARM GAS  /tmp/ccpfxlbk.s 			page 37


 2035 00e7 14       		.uleb128 0x14
 2036 00e8 0D       		.uleb128 0xd
 2037 00e9 00       		.byte	0
 2038 00ea 03       		.uleb128 0x3
 2039 00eb 0E       		.uleb128 0xe
 2040 00ec 3A       		.uleb128 0x3a
 2041 00ed 0B       		.uleb128 0xb
 2042 00ee 3B       		.uleb128 0x3b
 2043 00ef 05       		.uleb128 0x5
 2044 00f0 49       		.uleb128 0x49
 2045 00f1 13       		.uleb128 0x13
 2046 00f2 38       		.uleb128 0x38
 2047 00f3 0A       		.uleb128 0xa
 2048 00f4 00       		.byte	0
 2049 00f5 00       		.byte	0
 2050 00f6 15       		.uleb128 0x15
 2051 00f7 16       		.uleb128 0x16
 2052 00f8 00       		.byte	0
 2053 00f9 03       		.uleb128 0x3
 2054 00fa 0E       		.uleb128 0xe
 2055 00fb 3A       		.uleb128 0x3a
 2056 00fc 0B       		.uleb128 0xb
 2057 00fd 3B       		.uleb128 0x3b
 2058 00fe 05       		.uleb128 0x5
 2059 00ff 49       		.uleb128 0x49
 2060 0100 13       		.uleb128 0x13
 2061 0101 00       		.byte	0
 2062 0102 00       		.byte	0
 2063 0103 16       		.uleb128 0x16
 2064 0104 0D       		.uleb128 0xd
 2065 0105 00       		.byte	0
 2066 0106 03       		.uleb128 0x3
 2067 0107 08       		.uleb128 0x8
 2068 0108 3A       		.uleb128 0x3a
 2069 0109 0B       		.uleb128 0xb
 2070 010a 3B       		.uleb128 0x3b
 2071 010b 0B       		.uleb128 0xb
 2072 010c 49       		.uleb128 0x49
 2073 010d 13       		.uleb128 0x13
 2074 010e 00       		.byte	0
 2075 010f 00       		.byte	0
 2076 0110 17       		.uleb128 0x17
 2077 0111 04       		.uleb128 0x4
 2078 0112 01       		.byte	0x1
 2079 0113 0B       		.uleb128 0xb
 2080 0114 0B       		.uleb128 0xb
 2081 0115 3A       		.uleb128 0x3a
 2082 0116 0B       		.uleb128 0xb
 2083 0117 3B       		.uleb128 0x3b
 2084 0118 0B       		.uleb128 0xb
 2085 0119 01       		.uleb128 0x1
 2086 011a 13       		.uleb128 0x13
 2087 011b 00       		.byte	0
 2088 011c 00       		.byte	0
 2089 011d 18       		.uleb128 0x18
 2090 011e 28       		.uleb128 0x28
 2091 011f 00       		.byte	0
ARM GAS  /tmp/ccpfxlbk.s 			page 38


 2092 0120 03       		.uleb128 0x3
 2093 0121 0E       		.uleb128 0xe
 2094 0122 1C       		.uleb128 0x1c
 2095 0123 0D       		.uleb128 0xd
 2096 0124 00       		.byte	0
 2097 0125 00       		.byte	0
 2098 0126 19       		.uleb128 0x19
 2099 0127 15       		.uleb128 0x15
 2100 0128 01       		.byte	0x1
 2101 0129 27       		.uleb128 0x27
 2102 012a 0C       		.uleb128 0xc
 2103 012b 01       		.uleb128 0x1
 2104 012c 13       		.uleb128 0x13
 2105 012d 00       		.byte	0
 2106 012e 00       		.byte	0
 2107 012f 1A       		.uleb128 0x1a
 2108 0130 2E       		.uleb128 0x2e
 2109 0131 01       		.byte	0x1
 2110 0132 03       		.uleb128 0x3
 2111 0133 0E       		.uleb128 0xe
 2112 0134 3A       		.uleb128 0x3a
 2113 0135 0B       		.uleb128 0xb
 2114 0136 3B       		.uleb128 0x3b
 2115 0137 0B       		.uleb128 0xb
 2116 0138 27       		.uleb128 0x27
 2117 0139 0C       		.uleb128 0xc
 2118 013a 49       		.uleb128 0x49
 2119 013b 13       		.uleb128 0x13
 2120 013c 11       		.uleb128 0x11
 2121 013d 01       		.uleb128 0x1
 2122 013e 12       		.uleb128 0x12
 2123 013f 01       		.uleb128 0x1
 2124 0140 40       		.uleb128 0x40
 2125 0141 06       		.uleb128 0x6
 2126 0142 9742     		.uleb128 0x2117
 2127 0144 0C       		.uleb128 0xc
 2128 0145 01       		.uleb128 0x1
 2129 0146 13       		.uleb128 0x13
 2130 0147 00       		.byte	0
 2131 0148 00       		.byte	0
 2132 0149 1B       		.uleb128 0x1b
 2133 014a 05       		.uleb128 0x5
 2134 014b 00       		.byte	0
 2135 014c 03       		.uleb128 0x3
 2136 014d 08       		.uleb128 0x8
 2137 014e 3A       		.uleb128 0x3a
 2138 014f 0B       		.uleb128 0xb
 2139 0150 3B       		.uleb128 0x3b
 2140 0151 0B       		.uleb128 0xb
 2141 0152 49       		.uleb128 0x49
 2142 0153 13       		.uleb128 0x13
 2143 0154 02       		.uleb128 0x2
 2144 0155 06       		.uleb128 0x6
 2145 0156 00       		.byte	0
 2146 0157 00       		.byte	0
 2147 0158 1C       		.uleb128 0x1c
 2148 0159 898201   		.uleb128 0x4109
ARM GAS  /tmp/ccpfxlbk.s 			page 39


 2149 015c 01       		.byte	0x1
 2150 015d 11       		.uleb128 0x11
 2151 015e 01       		.uleb128 0x1
 2152 015f 31       		.uleb128 0x31
 2153 0160 13       		.uleb128 0x13
 2154 0161 00       		.byte	0
 2155 0162 00       		.byte	0
 2156 0163 1D       		.uleb128 0x1d
 2157 0164 8A8201   		.uleb128 0x410a
 2158 0167 00       		.byte	0
 2159 0168 02       		.uleb128 0x2
 2160 0169 0A       		.uleb128 0xa
 2161 016a 9142     		.uleb128 0x2111
 2162 016c 0A       		.uleb128 0xa
 2163 016d 00       		.byte	0
 2164 016e 00       		.byte	0
 2165 016f 1E       		.uleb128 0x1e
 2166 0170 34       		.uleb128 0x34
 2167 0171 00       		.byte	0
 2168 0172 03       		.uleb128 0x3
 2169 0173 0E       		.uleb128 0xe
 2170 0174 3A       		.uleb128 0x3a
 2171 0175 0B       		.uleb128 0xb
 2172 0176 3B       		.uleb128 0x3b
 2173 0177 0B       		.uleb128 0xb
 2174 0178 49       		.uleb128 0x49
 2175 0179 13       		.uleb128 0x13
 2176 017a 02       		.uleb128 0x2
 2177 017b 0A       		.uleb128 0xa
 2178 017c 00       		.byte	0
 2179 017d 00       		.byte	0
 2180 017e 1F       		.uleb128 0x1f
 2181 017f 898201   		.uleb128 0x4109
 2182 0182 01       		.byte	0x1
 2183 0183 11       		.uleb128 0x11
 2184 0184 01       		.uleb128 0x1
 2185 0185 31       		.uleb128 0x31
 2186 0186 13       		.uleb128 0x13
 2187 0187 01       		.uleb128 0x1
 2188 0188 13       		.uleb128 0x13
 2189 0189 00       		.byte	0
 2190 018a 00       		.byte	0
 2191 018b 20       		.uleb128 0x20
 2192 018c 2E       		.uleb128 0x2e
 2193 018d 01       		.byte	0x1
 2194 018e 3F       		.uleb128 0x3f
 2195 018f 0C       		.uleb128 0xc
 2196 0190 03       		.uleb128 0x3
 2197 0191 0E       		.uleb128 0xe
 2198 0192 3A       		.uleb128 0x3a
 2199 0193 0B       		.uleb128 0xb
 2200 0194 3B       		.uleb128 0x3b
 2201 0195 0B       		.uleb128 0xb
 2202 0196 27       		.uleb128 0x27
 2203 0197 0C       		.uleb128 0xc
 2204 0198 11       		.uleb128 0x11
 2205 0199 01       		.uleb128 0x1
ARM GAS  /tmp/ccpfxlbk.s 			page 40


 2206 019a 12       		.uleb128 0x12
 2207 019b 01       		.uleb128 0x1
 2208 019c 40       		.uleb128 0x40
 2209 019d 06       		.uleb128 0x6
 2210 019e 9742     		.uleb128 0x2117
 2211 01a0 0C       		.uleb128 0xc
 2212 01a1 01       		.uleb128 0x1
 2213 01a2 13       		.uleb128 0x13
 2214 01a3 00       		.byte	0
 2215 01a4 00       		.byte	0
 2216 01a5 21       		.uleb128 0x21
 2217 01a6 01       		.uleb128 0x1
 2218 01a7 01       		.byte	0x1
 2219 01a8 49       		.uleb128 0x49
 2220 01a9 13       		.uleb128 0x13
 2221 01aa 01       		.uleb128 0x1
 2222 01ab 13       		.uleb128 0x13
 2223 01ac 00       		.byte	0
 2224 01ad 00       		.byte	0
 2225 01ae 22       		.uleb128 0x22
 2226 01af 21       		.uleb128 0x21
 2227 01b0 00       		.byte	0
 2228 01b1 49       		.uleb128 0x49
 2229 01b2 13       		.uleb128 0x13
 2230 01b3 2F       		.uleb128 0x2f
 2231 01b4 0B       		.uleb128 0xb
 2232 01b5 00       		.byte	0
 2233 01b6 00       		.byte	0
 2234 01b7 23       		.uleb128 0x23
 2235 01b8 34       		.uleb128 0x34
 2236 01b9 00       		.byte	0
 2237 01ba 03       		.uleb128 0x3
 2238 01bb 0E       		.uleb128 0xe
 2239 01bc 3A       		.uleb128 0x3a
 2240 01bd 0B       		.uleb128 0xb
 2241 01be 3B       		.uleb128 0x3b
 2242 01bf 0B       		.uleb128 0xb
 2243 01c0 49       		.uleb128 0x49
 2244 01c1 13       		.uleb128 0x13
 2245 01c2 3F       		.uleb128 0x3f
 2246 01c3 0C       		.uleb128 0xc
 2247 01c4 3C       		.uleb128 0x3c
 2248 01c5 0C       		.uleb128 0xc
 2249 01c6 00       		.byte	0
 2250 01c7 00       		.byte	0
 2251 01c8 24       		.uleb128 0x24
 2252 01c9 34       		.uleb128 0x34
 2253 01ca 00       		.byte	0
 2254 01cb 03       		.uleb128 0x3
 2255 01cc 0E       		.uleb128 0xe
 2256 01cd 3A       		.uleb128 0x3a
 2257 01ce 0B       		.uleb128 0xb
 2258 01cf 3B       		.uleb128 0x3b
 2259 01d0 05       		.uleb128 0x5
 2260 01d1 49       		.uleb128 0x49
 2261 01d2 13       		.uleb128 0x13
 2262 01d3 3F       		.uleb128 0x3f
ARM GAS  /tmp/ccpfxlbk.s 			page 41


 2263 01d4 0C       		.uleb128 0xc
 2264 01d5 3C       		.uleb128 0x3c
 2265 01d6 0C       		.uleb128 0xc
 2266 01d7 00       		.byte	0
 2267 01d8 00       		.byte	0
 2268 01d9 25       		.uleb128 0x25
 2269 01da 2E       		.uleb128 0x2e
 2270 01db 01       		.byte	0x1
 2271 01dc 3F       		.uleb128 0x3f
 2272 01dd 0C       		.uleb128 0xc
 2273 01de 03       		.uleb128 0x3
 2274 01df 0E       		.uleb128 0xe
 2275 01e0 3A       		.uleb128 0x3a
 2276 01e1 0B       		.uleb128 0xb
 2277 01e2 3B       		.uleb128 0x3b
 2278 01e3 05       		.uleb128 0x5
 2279 01e4 27       		.uleb128 0x27
 2280 01e5 0C       		.uleb128 0xc
 2281 01e6 3C       		.uleb128 0x3c
 2282 01e7 0C       		.uleb128 0xc
 2283 01e8 01       		.uleb128 0x1
 2284 01e9 13       		.uleb128 0x13
 2285 01ea 00       		.byte	0
 2286 01eb 00       		.byte	0
 2287 01ec 26       		.uleb128 0x26
 2288 01ed 2E       		.uleb128 0x2e
 2289 01ee 01       		.byte	0x1
 2290 01ef 3F       		.uleb128 0x3f
 2291 01f0 0C       		.uleb128 0xc
 2292 01f1 03       		.uleb128 0x3
 2293 01f2 0E       		.uleb128 0xe
 2294 01f3 3A       		.uleb128 0x3a
 2295 01f4 0B       		.uleb128 0xb
 2296 01f5 3B       		.uleb128 0x3b
 2297 01f6 0B       		.uleb128 0xb
 2298 01f7 27       		.uleb128 0x27
 2299 01f8 0C       		.uleb128 0xc
 2300 01f9 3C       		.uleb128 0x3c
 2301 01fa 0C       		.uleb128 0xc
 2302 01fb 01       		.uleb128 0x1
 2303 01fc 13       		.uleb128 0x13
 2304 01fd 00       		.byte	0
 2305 01fe 00       		.byte	0
 2306 01ff 27       		.uleb128 0x27
 2307 0200 26       		.uleb128 0x26
 2308 0201 00       		.byte	0
 2309 0202 00       		.byte	0
 2310 0203 00       		.byte	0
 2311 0204 28       		.uleb128 0x28
 2312 0205 2E       		.uleb128 0x2e
 2313 0206 01       		.byte	0x1
 2314 0207 3F       		.uleb128 0x3f
 2315 0208 0C       		.uleb128 0xc
 2316 0209 03       		.uleb128 0x3
 2317 020a 0E       		.uleb128 0xe
 2318 020b 3A       		.uleb128 0x3a
 2319 020c 0B       		.uleb128 0xb
ARM GAS  /tmp/ccpfxlbk.s 			page 42


 2320 020d 3B       		.uleb128 0x3b
 2321 020e 05       		.uleb128 0x5
 2322 020f 27       		.uleb128 0x27
 2323 0210 0C       		.uleb128 0xc
 2324 0211 49       		.uleb128 0x49
 2325 0212 13       		.uleb128 0x13
 2326 0213 3C       		.uleb128 0x3c
 2327 0214 0C       		.uleb128 0xc
 2328 0215 00       		.byte	0
 2329 0216 00       		.byte	0
 2330 0217 00       		.byte	0
 2331              		.section	.debug_loc,"",%progbits
 2332              	.Ldebug_loc0:
 2333              	.LLST0:
 2334 0000 00000000 		.4byte	.LFB118
 2335 0004 08000000 		.4byte	.LCFI0
 2336 0008 0200     		.2byte	0x2
 2337 000a 7D       		.byte	0x7d
 2338 000b 00       		.sleb128 0
 2339 000c 08000000 		.4byte	.LCFI0
 2340 0010 2C000000 		.4byte	.LFE118
 2341 0014 0200     		.2byte	0x2
 2342 0016 7D       		.byte	0x7d
 2343 0017 08       		.sleb128 8
 2344 0018 00000000 		.4byte	0
 2345 001c 00000000 		.4byte	0
 2346              	.LLST1:
 2347 0020 00000000 		.4byte	.LVL0
 2348 0024 06000000 		.4byte	.LVL1
 2349 0028 0100     		.2byte	0x1
 2350 002a 50       		.byte	0x50
 2351 002b 06000000 		.4byte	.LVL1
 2352 002f 2C000000 		.4byte	.LFE118
 2353 0033 0400     		.2byte	0x4
 2354 0035 F3       		.byte	0xf3
 2355 0036 01       		.uleb128 0x1
 2356 0037 50       		.byte	0x50
 2357 0038 9F       		.byte	0x9f
 2358 0039 00000000 		.4byte	0
 2359 003d 00000000 		.4byte	0
 2360              	.LLST2:
 2361 0041 00000000 		.4byte	.LFB120
 2362 0045 02000000 		.4byte	.LCFI1
 2363 0049 0200     		.2byte	0x2
 2364 004b 7D       		.byte	0x7d
 2365 004c 00       		.sleb128 0
 2366 004d 02000000 		.4byte	.LCFI1
 2367 0051 0E000000 		.4byte	.LCFI2
 2368 0055 0200     		.2byte	0x2
 2369 0057 7D       		.byte	0x7d
 2370 0058 0C       		.sleb128 12
 2371 0059 0E000000 		.4byte	.LCFI2
 2372 005d 44000000 		.4byte	.LFE120
 2373 0061 0200     		.2byte	0x2
 2374 0063 7D       		.byte	0x7d
 2375 0064 18       		.sleb128 24
 2376 0065 00000000 		.4byte	0
ARM GAS  /tmp/ccpfxlbk.s 			page 43


 2377 0069 00000000 		.4byte	0
 2378              	.LLST3:
 2379 006d 00000000 		.4byte	.LVL3
 2380 0071 08000000 		.4byte	.LVL4
 2381 0075 0100     		.2byte	0x1
 2382 0077 50       		.byte	0x50
 2383 0078 08000000 		.4byte	.LVL4
 2384 007c 44000000 		.4byte	.LFE120
 2385 0080 0400     		.2byte	0x4
 2386 0082 F3       		.byte	0xf3
 2387 0083 01       		.uleb128 0x1
 2388 0084 50       		.byte	0x50
 2389 0085 9F       		.byte	0x9f
 2390 0086 00000000 		.4byte	0
 2391 008a 00000000 		.4byte	0
 2392              	.LLST4:
 2393 008e 00000000 		.4byte	.LFB119
 2394 0092 02000000 		.4byte	.LCFI3
 2395 0096 0200     		.2byte	0x2
 2396 0098 7D       		.byte	0x7d
 2397 0099 00       		.sleb128 0
 2398 009a 02000000 		.4byte	.LCFI3
 2399 009e 04000000 		.4byte	.LCFI4
 2400 00a2 0200     		.2byte	0x2
 2401 00a4 7D       		.byte	0x7d
 2402 00a5 04       		.sleb128 4
 2403 00a6 04000000 		.4byte	.LCFI4
 2404 00aa 26000000 		.4byte	.LFE119
 2405 00ae 0200     		.2byte	0x2
 2406 00b0 7D       		.byte	0x7d
 2407 00b1 10       		.sleb128 16
 2408 00b2 00000000 		.4byte	0
 2409 00b6 00000000 		.4byte	0
 2410              	.LLST5:
 2411 00ba 00000000 		.4byte	.LFB121
 2412 00be 02000000 		.4byte	.LCFI5
 2413 00c2 0200     		.2byte	0x2
 2414 00c4 7D       		.byte	0x7d
 2415 00c5 00       		.sleb128 0
 2416 00c6 02000000 		.4byte	.LCFI5
 2417 00ca 04000000 		.4byte	.LCFI6
 2418 00ce 0200     		.2byte	0x2
 2419 00d0 7D       		.byte	0x7d
 2420 00d1 04       		.sleb128 4
 2421 00d2 04000000 		.4byte	.LCFI6
 2422 00d6 26000000 		.4byte	.LFE121
 2423 00da 0200     		.2byte	0x2
 2424 00dc 7D       		.byte	0x7d
 2425 00dd 10       		.sleb128 16
 2426 00de 00000000 		.4byte	0
 2427 00e2 00000000 		.4byte	0
 2428              		.section	.debug_aranges,"",%progbits
 2429 0000 34000000 		.4byte	0x34
 2430 0004 0200     		.2byte	0x2
 2431 0006 00000000 		.4byte	.Ldebug_info0
 2432 000a 04       		.byte	0x4
 2433 000b 00       		.byte	0
ARM GAS  /tmp/ccpfxlbk.s 			page 44


 2434 000c 0000     		.2byte	0
 2435 000e 0000     		.2byte	0
 2436 0010 00000000 		.4byte	.LFB118
 2437 0014 2C000000 		.4byte	.LFE118-.LFB118
 2438 0018 00000000 		.4byte	.LFB120
 2439 001c 44000000 		.4byte	.LFE120-.LFB120
 2440 0020 00000000 		.4byte	.LFB119
 2441 0024 26000000 		.4byte	.LFE119-.LFB119
 2442 0028 00000000 		.4byte	.LFB121
 2443 002c 26000000 		.4byte	.LFE121-.LFB121
 2444 0030 00000000 		.4byte	0
 2445 0034 00000000 		.4byte	0
 2446              		.section	.debug_ranges,"",%progbits
 2447              	.Ldebug_ranges0:
 2448 0000 00000000 		.4byte	.LFB118
 2449 0004 2C000000 		.4byte	.LFE118
 2450 0008 00000000 		.4byte	.LFB120
 2451 000c 44000000 		.4byte	.LFE120
 2452 0010 00000000 		.4byte	.LFB119
 2453 0014 26000000 		.4byte	.LFE119
 2454 0018 00000000 		.4byte	.LFB121
 2455 001c 26000000 		.4byte	.LFE121
 2456 0020 00000000 		.4byte	0
 2457 0024 00000000 		.4byte	0
 2458              		.section	.debug_line,"",%progbits
 2459              	.Ldebug_line0:
 2460 0000 0C030000 		.section	.debug_str,"MS",%progbits,1
 2460      02008202 
 2460      00000201 
 2460      FB0E0D00 
 2460      01010101 
 2461              	.LASF117:
 2462 0000 646D6172 		.ascii	"dmarx\000"
 2462      7800
 2463              	.LASF67:
 2464 0006 7466756E 		.ascii	"tfunc_t\000"
 2464      635F7400 
 2465              	.LASF2:
 2466 000e 73697A65 		.ascii	"size_t\000"
 2466      5F7400
 2467              	.LASF135:
 2468 0015 7761426C 		.ascii	"waBlinkyBlue\000"
 2468      696E6B79 
 2468      426C7565 
 2468      00
 2469              	.LASF126:
 2470 0022 72786368 		.ascii	"rxchar_cb\000"
 2470      61725F63 
 2470      6200
 2471              	.LASF62:
 2472 002c 7264796D 		.ascii	"rdymsg\000"
 2472      736700
 2473              	.LASF13:
 2474 0033 75696E74 		.ascii	"uint64_t\000"
 2474      36345F74 
 2474      00
 2475              	.LASF88:
ARM GAS  /tmp/ccpfxlbk.s 			page 45


 2476 003c 4F545950 		.ascii	"OTYPER\000"
 2476      455200
 2477              	.LASF96:
 2478 0043 696F706F 		.ascii	"ioportmask_t\000"
 2478      72746D61 
 2478      736B5F74 
 2478      00
 2479              	.LASF87:
 2480 0050 4D4F4445 		.ascii	"MODER\000"
 2480      5200
 2481              	.LASF14:
 2482 0056 6C6F6E67 		.ascii	"long long unsigned int\000"
 2482      206C6F6E 
 2482      6720756E 
 2482      7369676E 
 2482      65642069 
 2483              	.LASF90:
 2484 006d 50555044 		.ascii	"PUPDR\000"
 2484      5200
 2485              	.LASF63:
 2486 0073 65786974 		.ascii	"exitcode\000"
 2486      636F6465 
 2486      00
 2487              	.LASF84:
 2488 007c 76656374 		.ascii	"vector\000"
 2488      6F7200
 2489              	.LASF129:
 2490 0083 55415254 		.ascii	"UARTConfig\000"
 2490      436F6E66 
 2490      696700
 2491              	.LASF138:
 2492 008e 49544D5F 		.ascii	"ITM_RxBuffer\000"
 2492      52784275 
 2492      66666572 
 2492      00
 2493              	.LASF119:
 2494 009b 72786275 		.ascii	"rxbuf\000"
 2494      6600
 2495              	.LASF27:
 2496 00a1 705F7072 		.ascii	"p_prio\000"
 2496      696F00
 2497              	.LASF12:
 2498 00a8 6C6F6E67 		.ascii	"long long int\000"
 2498      206C6F6E 
 2498      6720696E 
 2498      7400
 2499              	.LASF1:
 2500 00b6 7369676E 		.ascii	"signed char\000"
 2500      65642063 
 2500      68617200 
 2501              	.LASF120:
 2502 00c2 75617274 		.ascii	"uartcb_t\000"
 2502      63625F74 
 2502      00
 2503              	.LASF91:
 2504 00cb 42535252 		.ascii	"BSRR\000"
 2504      00
ARM GAS  /tmp/ccpfxlbk.s 			page 46


 2505              	.LASF73:
 2506 00d0 47545052 		.ascii	"GTPR\000"
 2506      00
 2507              	.LASF43:
 2508 00d5 705F6D70 		.ascii	"p_mpool\000"
 2508      6F6F6C00 
 2509              	.LASF113:
 2510 00dd 72787374 		.ascii	"rxstate\000"
 2510      61746500 
 2511              	.LASF59:
 2512 00e5 6D5F7175 		.ascii	"m_queue\000"
 2512      65756500 
 2513              	.LASF19:
 2514 00ed 74736C69 		.ascii	"tslices_t\000"
 2514      6365735F 
 2514      7400
 2515              	.LASF143:
 2516 00f7 474E5520 		.ascii	"GNU C 4.7.4 20130913 (release) [ARM/embedded-4_7-br"
 2516      4320342E 
 2516      372E3420 
 2516      32303133 
 2516      30393133 
 2517 012a 616E6368 		.ascii	"anch revision 202601]\000"
 2517      20726576 
 2517      6973696F 
 2517      6E203230 
 2517      32363031 
 2518              	.LASF111:
 2519 0140 73746174 		.ascii	"state\000"
 2519      6500
 2520              	.LASF112:
 2521 0146 74787374 		.ascii	"txstate\000"
 2521      61746500 
 2522              	.LASF9:
 2523 014e 6C6F6E67 		.ascii	"long int\000"
 2523      20696E74 
 2523      00
 2524              	.LASF17:
 2525 0157 74737461 		.ascii	"tstate_t\000"
 2525      74655F74 
 2525      00
 2526              	.LASF36:
 2527 0160 705F7469 		.ascii	"p_time\000"
 2527      6D6500
 2528              	.LASF141:
 2529 0167 75617274 		.ascii	"uartStartSend\000"
 2529      53746172 
 2529      7453656E 
 2529      6400
 2530              	.LASF29:
 2531 0175 705F6E65 		.ascii	"p_newer\000"
 2531      77657200 
 2532              	.LASF108:
 2533 017d 75617274 		.ascii	"uartrxstate_t\000"
 2533      72787374 
 2533      6174655F 
 2533      7400
ARM GAS  /tmp/ccpfxlbk.s 			page 47


 2534              	.LASF118:
 2535 018b 646D6174 		.ascii	"dmatx\000"
 2535      7800
 2536              	.LASF110:
 2537 0191 55415254 		.ascii	"UARTDriver\000"
 2537      44726976 
 2537      657200
 2538              	.LASF89:
 2539 019c 4F535045 		.ascii	"OSPEEDR\000"
 2539      45445200 
 2540              	.LASF54:
 2541 01a4 725F6E65 		.ascii	"r_newer\000"
 2541      77657200 
 2542              	.LASF46:
 2543 01ac 72656761 		.ascii	"regarm_t\000"
 2543      726D5F74 
 2543      00
 2544              	.LASF83:
 2545 01b5 73656C66 		.ascii	"selfindex\000"
 2545      696E6465 
 2545      7800
 2546              	.LASF24:
 2547 01bf 54687265 		.ascii	"Thread\000"
 2547      616400
 2548              	.LASF99:
 2549 01c6 55415254 		.ascii	"UART_READY\000"
 2549      5F524541 
 2549      445900
 2550              	.LASF102:
 2551 01d1 55415254 		.ascii	"UART_TX_ACTIVE\000"
 2551      5F54585F 
 2551      41435449 
 2551      564500
 2552              	.LASF115:
 2553 01e0 75736172 		.ascii	"usart\000"
 2553      7400
 2554              	.LASF0:
 2555 01e6 756E7369 		.ascii	"unsigned int\000"
 2555      676E6564 
 2555      20696E74 
 2555      00
 2556              	.LASF6:
 2557 01f3 75696E74 		.ascii	"uint16_t\000"
 2557      31365F74 
 2557      00
 2558              	.LASF145:
 2559 01fc 2F686F6D 		.ascii	"/home/joerg/repos/OpenBLDC/kjellhar/bldc-strip/\000"
 2559      652F6A6F 
 2559      6572672F 
 2559      7265706F 
 2559      732F4F70 
 2560              	.LASF69:
 2561 022c 43504152 		.ascii	"CPAR\000"
 2561      00
 2562              	.LASF38:
 2563 0231 705F6D73 		.ascii	"p_msgqueue\000"
 2563      67717565 
ARM GAS  /tmp/ccpfxlbk.s 			page 48


 2563      756500
 2564              	.LASF95:
 2565 023c 4750494F 		.ascii	"GPIO_TypeDef\000"
 2565      5F547970 
 2565      65446566 
 2565      00
 2566              	.LASF122:
 2567 0249 75617274 		.ascii	"uartecb_t\000"
 2567      6563625F 
 2567      7400
 2568              	.LASF92:
 2569 0253 4C434B52 		.ascii	"LCKR\000"
 2569      00
 2570              	.LASF82:
 2571 0258 69736869 		.ascii	"ishift\000"
 2571      667400
 2572              	.LASF7:
 2573 025f 73686F72 		.ascii	"short unsigned int\000"
 2573      7420756E 
 2573      7369676E 
 2573      65642069 
 2573      6E7400
 2574              	.LASF97:
 2575 0272 55415254 		.ascii	"UART_UNINIT\000"
 2575      5F554E49 
 2575      4E495400 
 2576              	.LASF98:
 2577 027e 55415254 		.ascii	"UART_STOP\000"
 2577      5F53544F 
 2577      5000
 2578              	.LASF133:
 2579 0288 73746172 		.ascii	"startBlinkyGreen\000"
 2579      74426C69 
 2579      6E6B7947 
 2579      7265656E 
 2579      00
 2580              	.LASF21:
 2581 0299 6D73675F 		.ascii	"msg_t\000"
 2581      7400
 2582              	.LASF79:
 2583 029f 55534152 		.ascii	"USART_TypeDef\000"
 2583      545F5479 
 2583      70654465 
 2583      6600
 2584              	.LASF16:
 2585 02ad 746D6F64 		.ascii	"tmode_t\000"
 2585      655F7400 
 2586              	.LASF45:
 2587 02b5 54687265 		.ascii	"ThreadsList\000"
 2587      6164734C 
 2587      69737400 
 2588              	.LASF22:
 2589 02c1 6576656E 		.ascii	"eventmask_t\000"
 2589      746D6173 
 2589      6B5F7400 
 2590              	.LASF131:
 2591 02cd 74426C69 		.ascii	"tBlinkyGreen\000"
ARM GAS  /tmp/ccpfxlbk.s 			page 49


 2591      6E6B7947 
 2591      7265656E 
 2591      00
 2592              	.LASF47:
 2593 02da 73746B61 		.ascii	"stkalign_t\000"
 2593      6C69676E 
 2593      5F7400
 2594              	.LASF130:
 2595 02e5 74426C69 		.ascii	"tBlinkyBlue\000"
 2595      6E6B7942 
 2595      6C756500 
 2596              	.LASF142:
 2597 02f1 63685468 		.ascii	"chThdCreateStatic\000"
 2597      64437265 
 2597      61746553 
 2597      74617469 
 2597      6300
 2598              	.LASF139:
 2599 0303 55415254 		.ascii	"UARTD1\000"
 2599      443100
 2600              	.LASF50:
 2601 030a 73697A65 		.ascii	"sizetype\000"
 2601      74797065 
 2601      00
 2602              	.LASF86:
 2603 0313 636C6561 		.ascii	"clear\000"
 2603      7200
 2604              	.LASF107:
 2605 0319 55415254 		.ascii	"UART_RX_COMPLETE\000"
 2605      5F52585F 
 2605      434F4D50 
 2605      4C455445 
 2605      00
 2606              	.LASF58:
 2607 032a 4D757465 		.ascii	"Mutex\000"
 2607      7800
 2608              	.LASF127:
 2609 0330 72786572 		.ascii	"rxerr_cb\000"
 2609      725F6362 
 2609      00
 2610              	.LASF144:
 2611 0339 7372632F 		.ascii	"src/blinky.c\000"
 2611      626C696E 
 2611      6B792E63 
 2611      00
 2612              	.LASF75:
 2613 0346 52544F52 		.ascii	"RTOR\000"
 2613      00
 2614              	.LASF30:
 2615 034b 705F6F6C 		.ascii	"p_older\000"
 2615      64657200 
 2616              	.LASF53:
 2617 0353 725F6374 		.ascii	"r_ctx\000"
 2617      7800
 2618              	.LASF109:
 2619 0359 75617274 		.ascii	"uartflags_t\000"
 2619      666C6167 
ARM GAS  /tmp/ccpfxlbk.s 			page 50


 2619      735F7400 
 2620              	.LASF44:
 2621 0365 54687265 		.ascii	"ThreadsQueue\000"
 2621      61647351 
 2621      75657565 
 2621      00
 2622              	.LASF125:
 2623 0372 7278656E 		.ascii	"rxend_cb\000"
 2623      645F6362 
 2623      00
 2624              	.LASF104:
 2625 037b 75617274 		.ascii	"uarttxstate_t\000"
 2625      74787374 
 2625      6174655F 
 2625      7400
 2626              	.LASF56:
 2627 0389 725F6375 		.ascii	"r_current\000"
 2627      7272656E 
 2627      7400
 2628              	.LASF55:
 2629 0393 725F6F6C 		.ascii	"r_older\000"
 2629      64657200 
 2630              	.LASF71:
 2631 039b 444D415F 		.ascii	"DMA_Channel_TypeDef\000"
 2631      4368616E 
 2631      6E656C5F 
 2631      54797065 
 2631      44656600 
 2632              	.LASF93:
 2633 03af 4146524C 		.ascii	"AFRL\000"
 2633      00
 2634              	.LASF18:
 2635 03b4 74726566 		.ascii	"trefs_t\000"
 2635      735F7400 
 2636              	.LASF72:
 2637 03bc 52455345 		.ascii	"RESERVED1\000"
 2637      52564544 
 2637      3100
 2638              	.LASF74:
 2639 03c6 52455345 		.ascii	"RESERVED2\000"
 2639      52564544 
 2639      3200
 2640              	.LASF76:
 2641 03d0 52455345 		.ascii	"RESERVED3\000"
 2641      52564544 
 2641      3300
 2642              	.LASF77:
 2643 03da 52455345 		.ascii	"RESERVED4\000"
 2643      52564544 
 2643      3400
 2644              	.LASF26:
 2645 03e4 705F7072 		.ascii	"p_prev\000"
 2645      657600
 2646              	.LASF134:
 2647 03eb 74657374 		.ascii	"testbyte\000"
 2647      62797465 
 2647      00
ARM GAS  /tmp/ccpfxlbk.s 			page 51


 2648              	.LASF85:
 2649 03f4 73746D33 		.ascii	"stm32_dma_stream_t\000"
 2649      325F646D 
 2649      615F7374 
 2649      7265616D 
 2649      5F7400
 2650              	.LASF124:
 2651 0407 7478656E 		.ascii	"txend2_cb\000"
 2651      64325F63 
 2651      6200
 2652              	.LASF20:
 2653 0411 74707269 		.ascii	"tprio_t\000"
 2653      6F5F7400 
 2654              	.LASF15:
 2655 0419 5F426F6F 		.ascii	"_Bool\000"
 2655      6C00
 2656              	.LASF8:
 2657 041f 696E7433 		.ascii	"int32_t\000"
 2657      325F7400 
 2658              	.LASF4:
 2659 0427 756E7369 		.ascii	"unsigned char\000"
 2659      676E6564 
 2659      20636861 
 2659      7200
 2660              	.LASF41:
 2661 0435 705F6D74 		.ascii	"p_mtxlist\000"
 2661      786C6973 
 2661      7400
 2662              	.LASF5:
 2663 043f 73686F72 		.ascii	"short int\000"
 2663      7420696E 
 2663      7400
 2664              	.LASF32:
 2665 0449 705F7374 		.ascii	"p_state\000"
 2665      61746500 
 2666              	.LASF35:
 2667 0451 705F7072 		.ascii	"p_preempt\000"
 2667      65656D70 
 2667      7400
 2668              	.LASF52:
 2669 045b 725F7072 		.ascii	"r_prio\000"
 2669      696F00
 2670              	.LASF65:
 2671 0462 65776D61 		.ascii	"ewmask\000"
 2671      736B00
 2672              	.LASF25:
 2673 0469 705F6E65 		.ascii	"p_next\000"
 2673      787400
 2674              	.LASF100:
 2675 0470 75617274 		.ascii	"uartstate_t\000"
 2675      73746174 
 2675      655F7400 
 2676              	.LASF33:
 2677 047c 705F666C 		.ascii	"p_flags\000"
 2677      61677300 
 2678              	.LASF80:
 2679 0484 6368616E 		.ascii	"channel\000"
ARM GAS  /tmp/ccpfxlbk.s 			page 52


 2679      6E656C00 
 2680              	.LASF40:
 2681 048c 705F6570 		.ascii	"p_epending\000"
 2681      656E6469 
 2681      6E6700
 2682              	.LASF81:
 2683 0497 69666372 		.ascii	"ifcr\000"
 2683      00
 2684              	.LASF78:
 2685 049c 52455345 		.ascii	"RESERVED5\000"
 2685      52564544 
 2685      3500
 2686              	.LASF10:
 2687 04a6 75696E74 		.ascii	"uint32_t\000"
 2687      33325F74 
 2687      00
 2688              	.LASF51:
 2689 04af 725F7175 		.ascii	"r_queue\000"
 2689      65756500 
 2690              	.LASF121:
 2691 04b7 75617274 		.ascii	"uartccb_t\000"
 2691      6363625F 
 2691      7400
 2692              	.LASF11:
 2693 04c1 6C6F6E67 		.ascii	"long unsigned int\000"
 2693      20756E73 
 2693      69676E65 
 2693      6420696E 
 2693      7400
 2694              	.LASF66:
 2695 04d3 63686172 		.ascii	"char\000"
 2695      00
 2696              	.LASF114:
 2697 04d8 636F6E66 		.ascii	"config\000"
 2697      696700
 2698              	.LASF105:
 2699 04df 55415254 		.ascii	"UART_RX_IDLE\000"
 2699      5F52585F 
 2699      49444C45 
 2699      00
 2700              	.LASF123:
 2701 04ec 7478656E 		.ascii	"txend1_cb\000"
 2701      64315F63 
 2701      6200
 2702              	.LASF61:
 2703 04f6 6D5F6E65 		.ascii	"m_next\000"
 2703      787400
 2704              	.LASF23:
 2705 04fd 73797374 		.ascii	"systime_t\000"
 2705      696D655F 
 2705      7400
 2706              	.LASF42:
 2707 0507 705F7265 		.ascii	"p_realprio\000"
 2707      616C7072 
 2707      696F00
 2708              	.LASF101:
 2709 0512 55415254 		.ascii	"UART_TX_IDLE\000"
ARM GAS  /tmp/ccpfxlbk.s 			page 53


 2709      5F54585F 
 2709      49444C45 
 2709      00
 2710              	.LASF136:
 2711 051f 7761426C 		.ascii	"waBlinkyGreen\000"
 2711      696E6B79 
 2711      47726565 
 2711      6E00
 2712              	.LASF49:
 2713 052d 636F6E74 		.ascii	"context\000"
 2713      65787400 
 2714              	.LASF39:
 2715 0535 705F6D73 		.ascii	"p_msg\000"
 2715      6700
 2716              	.LASF48:
 2717 053b 696E7463 		.ascii	"intctx\000"
 2717      747800
 2718              	.LASF140:
 2719 0542 63685468 		.ascii	"chThdSleep\000"
 2719      64536C65 
 2719      657000
 2720              	.LASF31:
 2721 054d 705F6E61 		.ascii	"p_name\000"
 2721      6D6500
 2722              	.LASF34:
 2723 0554 705F7265 		.ascii	"p_refs\000"
 2723      667300
 2724              	.LASF57:
 2725 055b 52656164 		.ascii	"ReadyList\000"
 2725      794C6973 
 2725      7400
 2726              	.LASF68:
 2727 0565 434E4454 		.ascii	"CNDTR\000"
 2727      5200
 2728              	.LASF70:
 2729 056b 434D4152 		.ascii	"CMAR\000"
 2729      00
 2730              	.LASF137:
 2731 0570 726C6973 		.ascii	"rlist\000"
 2731      7400
 2732              	.LASF3:
 2733 0576 75696E74 		.ascii	"uint8_t\000"
 2733      385F7400 
 2734              	.LASF132:
 2735 057e 73746172 		.ascii	"startBlinkyBlue\000"
 2735      74426C69 
 2735      6E6B7942 
 2735      6C756500 
 2736              	.LASF116:
 2737 058e 646D616D 		.ascii	"dmamode\000"
 2737      6F646500 
 2738              	.LASF64:
 2739 0596 77746F62 		.ascii	"wtobjp\000"
 2739      6A7000
 2740              	.LASF128:
 2741 059d 73706565 		.ascii	"speed\000"
 2741      6400
ARM GAS  /tmp/ccpfxlbk.s 			page 54


 2742              	.LASF94:
 2743 05a3 41465248 		.ascii	"AFRH\000"
 2743      00
 2744              	.LASF60:
 2745 05a8 6D5F6F77 		.ascii	"m_owner\000"
 2745      6E657200 
 2746              	.LASF106:
 2747 05b0 55415254 		.ascii	"UART_RX_ACTIVE\000"
 2747      5F52585F 
 2747      41435449 
 2747      564500
 2748              	.LASF28:
 2749 05bf 705F6374 		.ascii	"p_ctx\000"
 2749      7800
 2750              	.LASF37:
 2751 05c5 705F7761 		.ascii	"p_waiting\000"
 2751      6974696E 
 2751      6700
 2752              	.LASF103:
 2753 05cf 55415254 		.ascii	"UART_TX_COMPLETE\000"
 2753      5F54585F 
 2753      434F4D50 
 2753      4C455445 
 2753      00
 2754              		.ident	"GCC: (GNU Tools for ARM Embedded Processors) 4.7.4 20130913 (release) [ARM/embedded-4_7-br
ARM GAS  /tmp/ccpfxlbk.s 			page 55


DEFINED SYMBOLS
                            *ABS*:00000000 blinky.c
     /tmp/ccpfxlbk.s:19     .text.tBlinkyBlue:00000000 $t
     /tmp/ccpfxlbk.s:24     .text.tBlinkyBlue:00000000 tBlinkyBlue
     /tmp/ccpfxlbk.s:62     .text.tBlinkyBlue:00000024 $d
     /tmp/ccpfxlbk.s:68     .text.tBlinkyGreen:00000000 $t
     /tmp/ccpfxlbk.s:73     .text.tBlinkyGreen:00000000 tBlinkyGreen
     /tmp/ccpfxlbk.s:128    .text.tBlinkyGreen:00000038 $d
     /tmp/ccpfxlbk.s:135    .text.startBlinkyBlue:00000000 $t
     /tmp/ccpfxlbk.s:141    .text.startBlinkyBlue:00000000 startBlinkyBlue
     /tmp/ccpfxlbk.s:217    .bss.waBlinkyBlue:00000000 .LANCHOR0
     /tmp/ccpfxlbk.s:172    .text.startBlinkyGreen:00000000 $t
     /tmp/ccpfxlbk.s:178    .text.startBlinkyGreen:00000000 startBlinkyGreen
     /tmp/ccpfxlbk.s:210    .bss.waBlinkyGreen:00000000 .LANCHOR1
     /tmp/ccpfxlbk.s:209    .bss.waBlinkyGreen:00000000 $d
     /tmp/ccpfxlbk.s:213    .bss.waBlinkyGreen:00000000 waBlinkyGreen
     /tmp/ccpfxlbk.s:216    .bss.waBlinkyBlue:00000000 $d
     /tmp/ccpfxlbk.s:220    .bss.waBlinkyBlue:00000000 waBlinkyBlue
     /tmp/ccpfxlbk.s:223    .rodata.str1.4:00000000 $d
                     .debug_frame:00000010 $d
     /tmp/ccpfxlbk.s:67     .text.tBlinkyBlue:0000002c $t
     /tmp/ccpfxlbk.s:134    .text.tBlinkyGreen:00000044 $t

UNDEFINED SYMBOLS
chThdSleep
rlist
uartStartSend
UARTD1
chThdCreateStatic
