ARM GAS  /tmp/ccpfxlbk.s 			page 1


   1              		.syntax unified
   2              		.cpu cortex-m4
   3              		.fpu softvfp
   4              		.eabi_attribute 20, 1
   5              		.eabi_attribute 21, 1
   6              		.eabi_attribute 23, 3
   7              		.eabi_attribute 24, 1
   8              		.eabi_attribute 25, 1
   9              		.eabi_attribute 26, 1
  10              		.eabi_attribute 30, 2
  11              		.eabi_attribute 34, 1
  12              		.eabi_attribute 18, 4
  13              		.thumb
  14              		.file	"blinky.c"
  15              		.text
  16              	.Ltext0:
  17              		.cfi_sections	.debug_frame
  18              		.section	.text.tBlinkyBlue,"ax",%progbits
  19              		.align	2
  20              		.p2align 4,,15
  21              		.thumb
  22              		.thumb_func
  23              		.type	tBlinkyBlue, %function
  24              	tBlinkyBlue:
  25              	.LFB118:
  26              		.file 1 "src/blinky.c"
  27              		.loc 1 17 0
  28              		.cfi_startproc
  29              		@ args = 0, pretend = 0, frame = 0
  30              		@ frame_needed = 0, uses_anonymous_args = 0
  31              	.LVL0:
  32              		.loc 1 19 0
  33 0000 084B     		ldr	r3, .L4
  34 0002 094A     		ldr	r2, .L4+4
  35 0004 9869     		ldr	r0, [r3, #24]
  36              	.LVL1:
  37              		.loc 1 17 0
  38 0006 10B5     		push	{r4, lr}
  39              	.LCFI0:
  40              		.cfi_def_cfa_offset 8
  41              		.cfi_offset 4, -8
  42              		.cfi_offset 14, -4
  43              		.loc 1 27 0
  44 0008 4FF48054 		mov	r4, #4096
  45              		.loc 1 19 0
  46 000c 8261     		str	r2, [r0, #24]
  47              		.loc 1 27 0
  48 000e C4F60004 		movt	r4, 18432
  49              	.L2:
  50              		.loc 1 22 0 discriminator 1
  51 0012 4FF4FA70 		mov	r0, #500
  52 0016 FFF7FEFF 		bl	chThdSleep
  53              	.LVL2:
  54              		.loc 1 27 0 discriminator 1
  55 001a 6169     		ldr	r1, [r4, #20]
  56 001c 81F48073 		eor	r3, r1, #256
  57 0020 6361     		str	r3, [r4, #20]
ARM GAS  /tmp/ccpfxlbk.s 			page 2


  58 0022 F6E7     		b	.L2
  59              	.L5:
  60              		.align	2
  61              	.L4:
  62 0024 00000000 		.word	rlist
  63 0028 00000000 		.word	.LC0
  64              		.cfi_endproc
  65              	.LFE118:
  66              		.size	tBlinkyBlue, .-tBlinkyBlue
  67 002c AFF30080 		.section	.text.tBlinkyGreen,"ax",%progbits
  68              		.align	2
  69              		.p2align 4,,15
  70              		.thumb
  71              		.thumb_func
  72              		.type	tBlinkyGreen, %function
  73              	tBlinkyGreen:
  74              	.LFB120:
  75              		.loc 1 41 0
  76              		.cfi_startproc
  77              		@ args = 0, pretend = 0, frame = 8
  78              		@ frame_needed = 0, uses_anonymous_args = 0
  79              	.LVL3:
  80 0000 30B5     		push	{r4, r5, lr}
  81              	.LCFI1:
  82              		.cfi_def_cfa_offset 12
  83              		.cfi_offset 4, -12
  84              		.cfi_offset 5, -8
  85              		.cfi_offset 14, -4
  86              		.loc 1 44 0
  87 0002 0D4B     		ldr	r3, .L8
  88 0004 0D4A     		ldr	r2, .L8+4
  89 0006 9869     		ldr	r0, [r3, #24]
  90              	.LVL4:
  91              		.loc 1 54 0
  92 0008 4FF48054 		mov	r4, #4096
  93              		.loc 1 41 0
  94 000c 83B0     		sub	sp, sp, #12
  95              	.LCFI2:
  96              		.cfi_def_cfa_offset 24
  97              		.loc 1 44 0
  98 000e 8261     		str	r2, [r0, #24]
  99              		.loc 1 54 0
 100 0010 C4F60004 		movt	r4, 18432
 101              		.loc 1 55 0
 102 0014 4D25     		movs	r5, #77
 103              	.LVL5:
 104              	.L7:
 105              		.loc 1 48 0 discriminator 1
 106 0016 4FF49670 		mov	r0, #300
 107 001a FFF7FEFF 		bl	chThdSleep
 108              	.LVL6:
 109              		.loc 1 54 0 discriminator 1
 110 001e 6169     		ldr	r1, [r4, #20]
 111              		.loc 1 57 0 discriminator 1
 112 0020 0748     		ldr	r0, .L8+8
 113              		.loc 1 54 0 discriminator 1
 114 0022 81F40063 		eor	r3, r1, #2048
ARM GAS  /tmp/ccpfxlbk.s 			page 3


 115 0026 6361     		str	r3, [r4, #20]
 116              		.loc 1 57 0 discriminator 1
 117 0028 0121     		movs	r1, #1
 118 002a 0DF10702 		add	r2, sp, #7
 119              		.loc 1 55 0 discriminator 1
 120 002e 8DF80750 		strb	r5, [sp, #7]
 121              		.loc 1 57 0 discriminator 1
 122 0032 FFF7FEFF 		bl	uartStartSend
 123              	.LVL7:
 124 0036 EEE7     		b	.L7
 125              	.L9:
 126              		.align	2
 127              	.L8:
 128 0038 00000000 		.word	rlist
 129 003c 0C000000 		.word	.LC1
 130 0040 00000000 		.word	UARTD1
 131              		.cfi_endproc
 132              	.LFE120:
 133              		.size	tBlinkyGreen, .-tBlinkyGreen
 134 0044 AFF30080 		.section	.text.startBlinkyBlue,"ax",%progbits
 134      AFF30080 
 134      AFF30080 
 135              		.align	2
 136              		.p2align 4,,15
 137              		.global	startBlinkyBlue
 138              		.thumb
 139              		.thumb_func
 140              		.type	startBlinkyBlue, %function
 141              	startBlinkyBlue:
 142              	.LFB119:
 143              		.loc 1 34 0
 144              		.cfi_startproc
 145              		@ args = 0, pretend = 0, frame = 0
 146              		@ frame_needed = 0, uses_anonymous_args = 0
 147 0000 00B5     		push	{lr}
 148              	.LCFI3:
 149              		.cfi_def_cfa_offset 4
 150              		.cfi_offset 14, -4
 151 0002 83B0     		sub	sp, sp, #12
 152              	.LCFI4:
 153              		.cfi_def_cfa_offset 16
 154              		.loc 1 35 0
 155 0004 0023     		movs	r3, #0
 156 0006 0093     		str	r3, [sp, #0]
 157 0008 40F20000 		movw	r0, #:lower16:.LANCHOR0
 158 000c 40F20003 		movw	r3, #:lower16:tBlinkyBlue
 159 0010 4FF49871 		mov	r1, #304
 160 0014 4022     		movs	r2, #64
 161 0016 C0F20003 		movt	r3, #:upper16:tBlinkyBlue
 162 001a C0F20000 		movt	r0, #:upper16:.LANCHOR0
 163 001e FFF7FEFF 		bl	chThdCreateStatic
 164              	.LVL8:
 165              		.loc 1 38 0
 166 0022 03B0     		add	sp, sp, #12
 167 0024 00BD     		pop	{pc}
 168              		.cfi_endproc
 169              	.LFE119:
ARM GAS  /tmp/ccpfxlbk.s 			page 4


 170              		.size	startBlinkyBlue, .-startBlinkyBlue
 171 0026 00BFAFF3 		.section	.text.startBlinkyGreen,"ax",%progbits
 171      0080AFF3 
 171      0080
 172              		.align	2
 173              		.p2align 4,,15
 174              		.global	startBlinkyGreen
 175              		.thumb
 176              		.thumb_func
 177              		.type	startBlinkyGreen, %function
 178              	startBlinkyGreen:
 179              	.LFB121:
 180              		.loc 1 64 0
 181              		.cfi_startproc
 182              		@ args = 0, pretend = 0, frame = 0
 183              		@ frame_needed = 0, uses_anonymous_args = 0
 184 0000 00B5     		push	{lr}
 185              	.LCFI5:
 186              		.cfi_def_cfa_offset 4
 187              		.cfi_offset 14, -4
 188 0002 83B0     		sub	sp, sp, #12
 189              	.LCFI6:
 190              		.cfi_def_cfa_offset 16
 191              		.loc 1 65 0
 192 0004 0023     		movs	r3, #0
 193 0006 0093     		str	r3, [sp, #0]
 194 0008 40F20000 		movw	r0, #:lower16:.LANCHOR1
 195 000c 40F20003 		movw	r3, #:lower16:tBlinkyGreen
 196 0010 4FF49871 		mov	r1, #304
 197 0014 4022     		movs	r2, #64
 198 0016 C0F20003 		movt	r3, #:upper16:tBlinkyGreen
 199 001a C0F20000 		movt	r0, #:upper16:.LANCHOR1
 200 001e FFF7FEFF 		bl	chThdCreateStatic
 201              	.LVL9:
 202              		.loc 1 68 0
 203 0022 03B0     		add	sp, sp, #12
 204 0024 00BD     		pop	{pc}
 205              		.cfi_endproc
 206              	.LFE121:
 207              		.size	startBlinkyGreen, .-startBlinkyGreen
 208 0026 00BFAFF3 		.section	.bss.waBlinkyGreen,"aw",%nobits
 208      0080AFF3 
 208      0080
 209              		.align	3
 210              		.set	.LANCHOR1,. + 0
 211              		.type	waBlinkyGreen, %object
 212              		.size	waBlinkyGreen, 304
 213              	waBlinkyGreen:
 214 0000 00000000 		.space	304
 214      00000000 
 214      00000000 
 214      00000000 
 214      00000000 
 215              		.section	.bss.waBlinkyBlue,"aw",%nobits
 216              		.align	3
 217              		.set	.LANCHOR0,. + 0
 218              		.type	waBlinkyBlue, %object
ARM GAS  /tmp/ccpfxlbk.s 			page 5


 219              		.size	waBlinkyBlue, 304
 220              	waBlinkyBlue:
 221 0000 00000000 		.space	304
 221      00000000 
 221      00000000 
 221      00000000 
 221      00000000 
 222              		.section	.rodata.str1.4,"aMS",%progbits,1
 223              		.align	2
 224              	.LC0:
 225 0000 426C696E 		.ascii	"BlinkyBlue\000"
 225      6B79426C 
 225      756500
 226 000b 00       		.space	1
 227              	.LC1:
 228 000c 426C696E 		.ascii	"BlinkyGreen\000"
 228      6B794772 
 228      65656E00 
 229              		.text
 230              	.Letext0:
 231              		.file 2 "/opt/ARM/gcc-arm-none-eabi-4_7-2013q3/bin/../lib/gcc/arm-none-eabi/4.7.4/include/stddef.h
 232              		.file 3 "/opt/ARM/gcc-arm-none-eabi-4_7-2013q3/bin/../lib/gcc/arm-none-eabi/4.7.4/../../../../arm-
 233              		.file 4 "chibios/os/ports/GCC/ARMCMx/chtypes.h"
 234              		.file 5 "chibios/os/kernel/include/chlists.h"
 235              		.file 6 "chibios/os/kernel/include/chthreads.h"
 236              		.file 7 "chibios/os/ports/GCC/ARMCMx/chcore_v7m.h"
 237              		.file 8 "chibios/os/kernel/include/chschd.h"
 238              		.file 9 "chibios/os/kernel/include/chmtx.h"
 239              		.file 10 "chibios/os/hal/platforms/STM32F30x/stm32f30x.h"
 240              		.file 11 "chibios/os/hal/platforms/STM32F30x/stm32_dma.h"
 241              		.file 12 "chibios/os/hal/platforms/STM32/GPIOv2/pal_lld.h"
 242              		.file 13 "chibios/os/hal/include/uart.h"
 243              		.file 14 "chibios/os/hal/platforms/STM32/USARTv2/uart_lld.h"
 244              		.file 15 "chibios/os/ports/common/ARMCMx/CMSIS/include/core_cm4.h"