ARM GAS  /tmp/ccPBVwCV.s 			page 1


   1              		.syntax unified
   2              		.cpu cortex-m4
   3              		.fpu softvfp
   4              		.eabi_attribute 20, 1
   5              		.eabi_attribute 21, 1
   6              		.eabi_attribute 23, 3
   7              		.eabi_attribute 24, 1
   8              		.eabi_attribute 25, 1
   9              		.eabi_attribute 26, 1
  10              		.eabi_attribute 30, 2
  11              		.eabi_attribute 34, 1
  12              		.eabi_attribute 18, 4
  13              		.thumb
  14              		.file	"pwm_lld.c"
  15              		.text
  16              	.Ltext0:
  17              		.cfi_sections	.debug_frame
  18              		.section	.text.VectorB8,"ax",%progbits
  19              		.align	2
  20              		.p2align 4,,15
  21              		.global	VectorB8
  22              		.thumb
  23              		.thumb_func
  24              		.type	VectorB8, %function
  25              	VectorB8:
  26              	.LFB119:
  27              		.file 1 "chibios/os/hal/platforms/STM32/TIMv1/pwm_lld.c"
  28              		.loc 1 235 0
  29              		.cfi_startproc
  30              		@ args = 0, pretend = 0, frame = 0
  31              		@ frame_needed = 0, uses_anonymous_args = 0
  32              	.LVL0:
  33 0000 38B5     		push	{r3, r4, r5, lr}
  34              	.LCFI0:
  35              		.cfi_def_cfa_offset 16
  36              		.cfi_offset 3, -16
  37              		.cfi_offset 4, -12
  38              		.cfi_offset 5, -8
  39              		.cfi_offset 14, -4
  40              	.LBB4:
  41              	.LBB5:
  42              		.loc 1 115 0
  43 0002 1C4D     		ldr	r5, .L27
  44 0004 2B69     		ldr	r3, [r5, #16]
  45 0006 1A69     		ldr	r2, [r3, #16]
  46              	.LVL1:
  47              		.loc 1 116 0
  48 0008 DC68     		ldr	r4, [r3, #12]
  49 000a 1440     		ands	r4, r4, r2
  50 000c A4B2     		uxth	r4, r4
  51              	.LVL2:
  52              		.loc 1 117 0
  53 000e E1B2     		uxtb	r1, r4
  54              		.loc 1 118 0
  55 0010 04F00200 		and	r0, r4, #2
  56              		.loc 1 117 0
  57 0014 C943     		mvns	r1, r1
ARM GAS  /tmp/ccPBVwCV.s 			page 2


  58              		.loc 1 118 0
  59 0016 82B2     		uxth	r2, r0
  60              		.loc 1 117 0
  61 0018 1961     		str	r1, [r3, #16]
  62              		.loc 1 118 0
  63 001a 002A     		cmp	r2, #0
  64 001c 24D1     		bne	.L23
  65              	.L2:
  66              		.loc 1 120 0
  67 001e 04F00400 		and	r0, r4, #4
  68 0022 82B2     		uxth	r2, r0
  69 0024 DAB9     		cbnz	r2, .L24
  70              	.L3:
  71              		.loc 1 122 0
  72 0026 04F00800 		and	r0, r4, #8
  73 002a 82B2     		uxth	r2, r0
  74 002c 92B9     		cbnz	r2, .L25
  75              	.L4:
  76              		.loc 1 124 0
  77 002e 04F01000 		and	r0, r4, #16
  78 0032 82B2     		uxth	r2, r0
  79 0034 4AB9     		cbnz	r2, .L26
  80              	.L5:
  81              		.loc 1 126 0
  82 0036 E307     		lsls	r3, r4, #31
  83 0038 03D5     		bpl	.L6
  84              		.loc 1 127 0
  85 003a 6A68     		ldr	r2, [r5, #4]
  86 003c 0D48     		ldr	r0, .L27
  87 003e 9368     		ldr	r3, [r2, #8]
  88 0040 9847     		blx	r3
  89              	.LVL3:
  90              	.L6:
  91              	.LBE5:
  92              	.LBE4:
  93              		.loc 1 242 0
  94 0042 BDE83840 		pop	{r3, r4, r5, lr}
  95              		.loc 1 241 0
  96 0046 FFF7FEBF 		b	_port_irq_epilogue
  97              	.LVL4:
  98              	.L26:
  99              	.LBB7:
 100              	.LBB6:
 101              		.loc 1 125 0
 102 004a 6B68     		ldr	r3, [r5, #4]
 103 004c 0948     		ldr	r0, .L27
 104 004e 996A     		ldr	r1, [r3, #40]
 105 0050 8847     		blx	r1
 106              	.LVL5:
 107 0052 F0E7     		b	.L5
 108              	.L25:
 109              		.loc 1 123 0
 110 0054 6B68     		ldr	r3, [r5, #4]
 111 0056 0748     		ldr	r0, .L27
 112 0058 196A     		ldr	r1, [r3, #32]
 113 005a 8847     		blx	r1
 114              	.LVL6:
ARM GAS  /tmp/ccPBVwCV.s 			page 3


 115 005c E7E7     		b	.L4
 116              	.L24:
 117              		.loc 1 121 0
 118 005e 6B68     		ldr	r3, [r5, #4]
 119 0060 0448     		ldr	r0, .L27
 120 0062 9969     		ldr	r1, [r3, #24]
 121 0064 8847     		blx	r1
 122              	.LVL7:
 123 0066 DEE7     		b	.L3
 124              	.L23:
 125              		.loc 1 119 0
 126 0068 6B68     		ldr	r3, [r5, #4]
 127 006a 2846     		mov	r0, r5
 128 006c 1969     		ldr	r1, [r3, #16]
 129 006e 8847     		blx	r1
 130              	.LVL8:
 131 0070 D5E7     		b	.L2
 132              	.L28:
 133 0072 00BF     		.align	2
 134              	.L27:
 135 0074 00000000 		.word	.LANCHOR0
 136              	.LBE6:
 137              	.LBE7:
 138              		.cfi_endproc
 139              	.LFE119:
 140              		.size	VectorB8, .-VectorB8
 141 0078 AFF30080 		.section	.text.pwm_lld_init,"ax",%progbits
 141      AFF30080 
 142              		.align	2
 143              		.p2align 4,,15
 144              		.global	pwm_lld_init
 145              		.thumb
 146              		.thumb_func
 147              		.type	pwm_lld_init, %function
 148              	pwm_lld_init:
 149              	.LFB120:
 150              		.loc 1 345 0
 151              		.cfi_startproc
 152              		@ args = 0, pretend = 0, frame = 0
 153              		@ frame_needed = 0, uses_anonymous_args = 0
 154 0000 10B5     		push	{r4, lr}
 155              	.LCFI1:
 156              		.cfi_def_cfa_offset 8
 157              		.cfi_offset 4, -8
 158              		.cfi_offset 14, -4
 159              		.loc 1 367 0
 160 0002 40F20004 		movw	r4, #:lower16:.LANCHOR0
 161 0006 C0F20004 		movt	r4, #:upper16:.LANCHOR0
 162 000a 2046     		mov	r0, r4
 163 000c FFF7FEFF 		bl	pwmObjectInit
 164              	.LVL9:
 165              		.loc 1 368 0
 166 0010 4FF40063 		mov	r3, #2048
 167 0014 C4F20003 		movt	r3, 16384
 168 0018 2361     		str	r3, [r4, #16]
 169 001a 10BD     		pop	{r4, pc}
 170              		.cfi_endproc
ARM GAS  /tmp/ccPBVwCV.s 			page 4


 171              	.LFE120:
 172              		.size	pwm_lld_init, .-pwm_lld_init
 173 001c AFF30080 		.section	.text.pwm_lld_start,"ax",%progbits
 174              		.align	2
 175              		.p2align 4,,15
 176              		.global	pwm_lld_start
 177              		.thumb
 178              		.thumb_func
 179              		.type	pwm_lld_start, %function
 180              	pwm_lld_start:
 181              	.LFB121:
 182              		.loc 1 399 0
 183              		.cfi_startproc
 184              		@ args = 0, pretend = 0, frame = 0
 185              		@ frame_needed = 0, uses_anonymous_args = 0
 186              	.LVL10:
 187              		.loc 1 403 0
 188 0000 0378     		ldrb	r3, [r0, #0]	@ zero_extendqisi2
 189 0002 012B     		cmp	r3, #1
 190              		.loc 1 399 0
 191 0004 70B5     		push	{r4, r5, r6, lr}
 192              	.LCFI2:
 193              		.cfi_def_cfa_offset 16
 194              		.cfi_offset 4, -16
 195              		.cfi_offset 5, -12
 196              		.cfi_offset 6, -8
 197              		.cfi_offset 14, -4
 198              		.loc 1 399 0
 199 0006 0446     		mov	r4, r0
 200              		.loc 1 403 0
 201 0008 65D0     		beq	.L57
 202              		.loc 1 484 0
 203 000a 4268     		ldr	r2, [r0, #4]
 204              		.loc 1 483 0
 205 000c 0369     		ldr	r3, [r0, #16]
 206              		.loc 1 484 0
 207 000e 106B     		ldr	r0, [r2, #48]
 208              	.LVL11:
 209              		.loc 1 483 0
 210 0010 0021     		movs	r1, #0
 211              		.loc 1 484 0
 212 0012 20F0FF05 		bic	r5, r0, #255
 213              		.loc 1 483 0
 214 0016 1960     		str	r1, [r3, #0]
 215              		.loc 1 484 0
 216 0018 DD60     		str	r5, [r3, #12]
 217              		.loc 1 486 0
 218 001a 1961     		str	r1, [r3, #16]
 219              		.loc 1 487 0
 220 001c 5963     		str	r1, [r3, #52]
 221              		.loc 1 488 0
 222 001e 9963     		str	r1, [r3, #56]
 223              		.loc 1 489 0
 224 0020 D963     		str	r1, [r3, #60]
 225              		.loc 1 490 0
 226 0022 1964     		str	r1, [r3, #64]
 227              		.loc 1 491 0
ARM GAS  /tmp/ccPBVwCV.s 			page 5


 228 0024 5962     		str	r1, [r3, #36]
 229              	.L33:
 230              	.LVL12:
 231              		.loc 1 495 0
 232 0026 E668     		ldr	r6, [r4, #12]
 233 0028 1568     		ldr	r5, [r2, #0]
 234              		.loc 1 500 0
 235 002a 2489     		ldrh	r4, [r4, #8]
 236              	.LVL13:
 237              		.loc 1 505 0
 238 002c D168     		ldr	r1, [r2, #12]
 239              		.loc 1 501 0
 240 002e D06A     		ldr	r0, [r2, #44]
 241              		.loc 1 495 0
 242 0030 B6FBF5F5 		udiv	r5, r6, r5
 243 0034 013D     		subs	r5, r5, #1
 244              	.LVL14:
 245              		.loc 1 500 0
 246 0036 013C     		subs	r4, r4, #1
 247              		.loc 1 505 0
 248 0038 01F00F01 		and	r1, r1, #15
 249              		.loc 1 499 0
 250 003c ADB2     		uxth	r5, r5
 251              	.LVL15:
 252              		.loc 1 500 0
 253 003e A4B2     		uxth	r4, r4
 254              		.loc 1 505 0
 255 0040 0129     		cmp	r1, #1
 256              		.loc 1 499 0
 257 0042 9D62     		str	r5, [r3, #40]
 258              		.loc 1 500 0
 259 0044 DC62     		str	r4, [r3, #44]
 260              		.loc 1 501 0
 261 0046 5860     		str	r0, [r3, #4]
 262              	.LVL16:
 263              		.loc 1 505 0
 264 0048 03D0     		beq	.L34
 265              		.loc 1 504 0
 266 004a 0229     		cmp	r1, #2
 267 004c 0CBF     		ite	eq
 268 004e 0321     		moveq	r1, #3
 269 0050 0021     		movne	r1, #0
 270              	.L34:
 271              	.LVL17:
 272              		.loc 1 513 0
 273 0052 5069     		ldr	r0, [r2, #20]
 274 0054 00F00F00 		and	r0, r0, #15
 275 0058 0128     		cmp	r0, #1
 276 005a 21D0     		beq	.L38
 277 005c 0228     		cmp	r0, #2
 278 005e 1DD0     		beq	.L58
 279              		.loc 1 521 0
 280 0060 D069     		ldr	r0, [r2, #28]
 281 0062 00F00F00 		and	r0, r0, #15
 282 0066 0128     		cmp	r0, #1
 283 0068 21D0     		beq	.L41
 284              	.LVL18:
ARM GAS  /tmp/ccPBVwCV.s 			page 6


 285              	.L61:
 286 006a 0228     		cmp	r0, #2
 287 006c 2ED0     		beq	.L59
 288              	.LVL19:
 289              		.loc 1 529 0
 290 006e 506A     		ldr	r0, [r2, #36]
 291 0070 00F00F00 		and	r0, r0, #15
 292 0074 0128     		cmp	r0, #1
 293 0076 21D0     		beq	.L44
 294              	.LVL20:
 295              	.L62:
 296 0078 0228     		cmp	r0, #2
 297 007a 22D0     		beq	.L60
 298              	.L43:
 299              	.LVL21:
 300              		.loc 1 575 0
 301 007c 0120     		movs	r0, #1
 302              		.loc 1 574 0
 303 007e 1962     		str	r1, [r3, #32]
 304              		.loc 1 575 0
 305 0080 5861     		str	r0, [r3, #20]
 306              		.loc 1 576 0
 307 0082 D968     		ldr	r1, [r3, #12]
 308              	.LVL22:
 309 0084 9268     		ldr	r2, [r2, #8]
 310              	.LVL23:
 311 0086 002A     		cmp	r2, #0
 312 0088 0CBF     		ite	eq
 313 008a 0846     		moveq	r0, r1
 314 008c 41F00100 		orrne	r0, r1, #1
 315              		.loc 1 577 0
 316 0090 0021     		movs	r1, #0
 317              		.loc 1 586 0
 318 0092 8522     		movs	r2, #133
 319              		.loc 1 576 0
 320 0094 D860     		str	r0, [r3, #12]
 321              		.loc 1 577 0
 322 0096 1961     		str	r1, [r3, #16]
 323              		.loc 1 586 0
 324 0098 1A60     		str	r2, [r3, #0]
 325 009a 70BD     		pop	{r4, r5, r6, pc}
 326              	.LVL24:
 327              	.L58:
 328              		.loc 1 515 0
 329 009c 41F02001 		orr	r1, r1, #32
 330              	.LVL25:
 331              	.L38:
 332              		.loc 1 521 0
 333 00a0 D069     		ldr	r0, [r2, #28]
 334 00a2 00F00F00 		and	r0, r0, #15
 335 00a6 0128     		cmp	r0, #1
 336              		.loc 1 517 0
 337 00a8 41F01001 		orr	r1, r1, #16
 338              	.LVL26:
 339              		.loc 1 521 0
 340 00ac DDD1     		bne	.L61
 341              	.LVL27:
ARM GAS  /tmp/ccPBVwCV.s 			page 7


 342              	.L41:
 343              		.loc 1 525 0
 344 00ae 41F48071 		orr	r1, r1, #256
 345              	.LVL28:
 346              	.L63:
 347              		.loc 1 529 0
 348 00b2 506A     		ldr	r0, [r2, #36]
 349 00b4 00F00F00 		and	r0, r0, #15
 350 00b8 0128     		cmp	r0, #1
 351 00ba DDD1     		bne	.L62
 352              	.LVL29:
 353              	.L44:
 354              		.loc 1 533 0
 355 00bc 41F48051 		orr	r1, r1, #4096
 356              	.LVL30:
 357 00c0 DCE7     		b	.L43
 358              	.LVL31:
 359              	.L60:
 360              		.loc 1 531 0
 361 00c2 41F40051 		orr	r1, r1, #8192
 362              	.LVL32:
 363              		.loc 1 533 0
 364 00c6 41F48051 		orr	r1, r1, #4096
 365              	.LVL33:
 366 00ca D7E7     		b	.L43
 367              	.LVL34:
 368              	.L59:
 369              		.loc 1 523 0
 370 00cc 41F40071 		orr	r1, r1, #512
 371              	.LVL35:
 372              		.loc 1 525 0
 373 00d0 41F48071 		orr	r1, r1, #256
 374              	.LVL36:
 375 00d4 EDE7     		b	.L63
 376              	.LVL37:
 377              	.L57:
 378              		.loc 1 435 0
 379 00d6 124E     		ldr	r6, .L65
 380 00d8 B042     		cmp	r0, r6
 381 00da 08D0     		beq	.L64
 382              	.LVL38:
 383              	.L32:
 384              		.loc 1 476 0
 385 00dc 2369     		ldr	r3, [r4, #16]
 386 00de 6268     		ldr	r2, [r4, #4]
 387 00e0 46F66800 		movw	r0, #26728
 388 00e4 C0F20110 		movt	r0, 257
 389 00e8 9861     		str	r0, [r3, #24]
 390              		.loc 1 478 0
 391 00ea D861     		str	r0, [r3, #28]
 392 00ec 9BE7     		b	.L33
 393              	.LVL39:
 394              	.L64:
 395              		.loc 1 436 0
 396 00ee 4FF48053 		mov	r3, #4096
 397 00f2 C4F20203 		movt	r3, 16386
 398              		.loc 1 437 0
ARM GAS  /tmp/ccPBVwCV.s 			page 8


 399 00f6 0026     		movs	r6, #0
 400              		.loc 1 436 0
 401 00f8 DA69     		ldr	r2, [r3, #28]
 402 00fa 42F00400 		orr	r0, r2, #4
 403              	.LVL40:
 404 00fe D861     		str	r0, [r3, #28]
 405              		.loc 1 437 0
 406 0100 1969     		ldr	r1, [r3, #16]
 407 0102 41F00405 		orr	r5, r1, #4
 408 0106 1D61     		str	r5, [r3, #16]
 409              		.loc 1 438 0
 410 0108 1E20     		movs	r0, #30
 411              		.loc 1 437 0
 412 010a 1E61     		str	r6, [r3, #16]
 413              		.loc 1 438 0
 414 010c 7021     		movs	r1, #112
 415 010e FFF7FEFF 		bl	nvicEnableVector
 416              	.LVL41:
 417              		.loc 1 440 0
 418 0112 4FF42243 		mov	r3, #41472
 419 0116 C0F24A43 		movt	r3, 1098
 420 011a E360     		str	r3, [r4, #12]
 421 011c DEE7     		b	.L32
 422              	.L66:
 423 011e 00BF     		.align	2
 424              	.L65:
 425 0120 00000000 		.word	.LANCHOR0
 426              		.cfi_endproc
 427              	.LFE121:
 428              		.size	pwm_lld_start, .-pwm_lld_start
 429 0124 AFF30080 		.section	.text.pwm_lld_stop,"ax",%progbits
 429      AFF30080 
 429      AFF30080 
 430              		.align	2
 431              		.p2align 4,,15
 432              		.global	pwm_lld_stop
 433              		.thumb
 434              		.thumb_func
 435              		.type	pwm_lld_stop, %function
 436              	pwm_lld_stop:
 437              	.LFB122:
 438              		.loc 1 597 0
 439              		.cfi_startproc
 440              		@ args = 0, pretend = 0, frame = 0
 441              		@ frame_needed = 0, uses_anonymous_args = 0
 442              	.LVL42:
 443 0000 08B5     		push	{r3, lr}
 444              	.LCFI3:
 445              		.cfi_def_cfa_offset 8
 446              		.cfi_offset 3, -8
 447              		.cfi_offset 14, -4
 448              		.loc 1 600 0
 449 0002 0378     		ldrb	r3, [r0, #0]	@ zero_extendqisi2
 450 0004 022B     		cmp	r3, #2
 451 0006 00D0     		beq	.L71
 452              	.LVL43:
 453              	.L67:
ARM GAS  /tmp/ccPBVwCV.s 			page 9


 454 0008 08BD     		pop	{r3, pc}
 455              	.LVL44:
 456              	.L71:
 457              		.loc 1 628 0
 458 000a 0A4B     		ldr	r3, .L72
 459              		.loc 1 601 0
 460 000c 0169     		ldr	r1, [r0, #16]
 461 000e 0022     		movs	r2, #0
 462              		.loc 1 628 0
 463 0010 9842     		cmp	r0, r3
 464              		.loc 1 601 0
 465 0012 0A60     		str	r2, [r1, #0]
 466              		.loc 1 602 0
 467 0014 CA60     		str	r2, [r1, #12]
 468              		.loc 1 603 0
 469 0016 0A61     		str	r2, [r1, #16]
 470              		.loc 1 628 0
 471 0018 F6D1     		bne	.L67
 472              		.loc 1 629 0
 473 001a 1E20     		movs	r0, #30
 474              	.LVL45:
 475 001c FFF7FEFF 		bl	nvicDisableVector
 476              	.LVL46:
 477              		.loc 1 630 0
 478 0020 4FF48050 		mov	r0, #4096
 479 0024 C4F20200 		movt	r0, 16386
 480 0028 C169     		ldr	r1, [r0, #28]
 481 002a 21F00402 		bic	r2, r1, #4
 482 002e C261     		str	r2, [r0, #28]
 483 0030 EAE7     		b	.L67
 484              	.L73:
 485 0032 00BF     		.align	2
 486              	.L72:
 487 0034 00000000 		.word	.LANCHOR0
 488              		.cfi_endproc
 489              	.LFE122:
 490              		.size	pwm_lld_stop, .-pwm_lld_stop
 491 0038 AFF30080 		.section	.text.pwm_lld_enable_channel,"ax",%progbits
 491      AFF30080 
 492              		.align	2
 493              		.p2align 4,,15
 494              		.global	pwm_lld_enable_channel
 495              		.thumb
 496              		.thumb_func
 497              		.type	pwm_lld_enable_channel, %function
 498              	pwm_lld_enable_channel:
 499              	.LFB123:
 500              		.loc 1 669 0
 501              		.cfi_startproc
 502              		@ args = 0, pretend = 0, frame = 0
 503              		@ frame_needed = 0, uses_anonymous_args = 0
 504              		@ link register save eliminated.
 505              	.LVL47:
 506 0000 10B4     		push	{r4}
 507              	.LCFI4:
 508              		.cfi_def_cfa_offset 4
 509              		.cfi_offset 4, -4
ARM GAS  /tmp/ccPBVwCV.s 			page 10


 510              		.loc 1 674 0
 511 0002 4468     		ldr	r4, [r0, #4]
 512              		.loc 1 671 0
 513 0004 0369     		ldr	r3, [r0, #16]
 514              		.loc 1 674 0
 515 0006 04EBC100 		add	r0, r4, r1, lsl #3
 516              	.LVL48:
 517              		.loc 1 671 0
 518 000a 01F10C04 		add	r4, r1, #12
 519 000e 03EB8404 		add	r4, r3, r4, lsl #2
 520              		.loc 1 674 0
 521 0012 0069     		ldr	r0, [r0, #16]
 522              		.loc 1 671 0
 523 0014 6260     		str	r2, [r4, #4]
 524              		.loc 1 674 0
 525 0016 48B1     		cbz	r0, .L74
 526              	.LBB8:
 527              		.loc 1 678 0
 528 0018 0220     		movs	r0, #2
 529              		.loc 1 675 0
 530 001a DA68     		ldr	r2, [r3, #12]
 531              	.LVL49:
 532              		.loc 1 678 0
 533 001c 00FA01F1 		lsl	r1, r0, r1
 534              	.LVL50:
 535 0020 1142     		tst	r1, r2
 536 0022 03D1     		bne	.L74
 537              		.loc 1 679 0
 538 0024 0A43     		orrs	r2, r2, r1
 539              	.LVL51:
 540              		.loc 1 680 0
 541 0026 C843     		mvns	r0, r1
 542              		.loc 1 679 0
 543 0028 DA60     		str	r2, [r3, #12]
 544              		.loc 1 680 0
 545 002a 1861     		str	r0, [r3, #16]
 546              	.L74:
 547              	.LBE8:
 548              		.loc 1 683 0
 549 002c 10BC     		pop	{r4}
 550 002e 7047     		bx	lr
 551              		.cfi_endproc
 552              	.LFE123:
 553              		.size	pwm_lld_enable_channel, .-pwm_lld_enable_channel
 554              		.section	.text.pwm_lld_disable_channel,"ax",%progbits
 555              		.align	2
 556              		.p2align 4,,15
 557              		.global	pwm_lld_disable_channel
 558              		.thumb
 559              		.thumb_func
 560              		.type	pwm_lld_disable_channel, %function
 561              	pwm_lld_disable_channel:
 562              	.LFB124:
 563              		.loc 1 697 0
 564              		.cfi_startproc
 565              		@ args = 0, pretend = 0, frame = 0
 566              		@ frame_needed = 0, uses_anonymous_args = 0
ARM GAS  /tmp/ccPBVwCV.s 			page 11


 567              		@ link register save eliminated.
 568              	.LVL52:
 569              		.loc 1 699 0
 570 0000 0369     		ldr	r3, [r0, #16]
 571 0002 01F10C02 		add	r2, r1, #12
 572 0006 03EB8202 		add	r2, r3, r2, lsl #2
 573 000a 0020     		movs	r0, #0
 574              	.LVL53:
 575 000c 5060     		str	r0, [r2, #4]
 576              		.loc 1 700 0
 577 000e DA68     		ldr	r2, [r3, #12]
 578 0010 0220     		movs	r0, #2
 579 0012 00FA01F1 		lsl	r1, r0, r1
 580              	.LVL54:
 581 0016 22EA0102 		bic	r2, r2, r1
 582 001a DA60     		str	r2, [r3, #12]
 583 001c 7047     		bx	lr
 584              		.cfi_endproc
 585              	.LFE124:
 586              		.size	pwm_lld_disable_channel, .-pwm_lld_disable_channel
 587              		.global	PWMD4
 588 001e 00BF     		.section	.bss.PWMD4,"aw",%nobits
 589              		.align	2
 590              		.set	.LANCHOR0,. + 0
 591              		.type	PWMD4, %object
 592              		.size	PWMD4, 20
 593              	PWMD4:
 594 0000 00000000 		.space	20
 594      00000000 
 594      00000000 
 594      00000000 
 594      00000000 
 595              		.text
 596              	.Letext0:
 597              		.file 2 "/opt/ARM/gcc-arm-none-eabi-4_7-2013q3/bin/../lib/gcc/arm-none-eabi/4.7.4/../../../../arm-
 598              		.file 3 "chibios/os/hal/platforms/STM32F30x/stm32f30x.h"
 599              		.file 4 "chibios/os/hal/include/pwm.h"
 600              		.file 5 "chibios/os/hal/platforms/STM32/TIMv1/pwm_lld.h"
 601              		.file 6 "chibios/os/hal/platforms/STM32/TIMv1/stm32_tim.h"
 602              		.file 7 "chibios/os/ports/common/ARMCMx/CMSIS/include/core_cm4.h"
 603              		.file 8 "chibios/os/ports/common/ARMCMx/nvic.h"
 604              		.file 9 "chibios/os/ports/GCC/ARMCMx/chcore_v7m.h"