ARM GAS  /tmp/ccUacns9.s 			page 1


   1              		.syntax unified
   2              		.cpu cortex-m4
   3              		.fpu softvfp
   4              		.eabi_attribute 20, 1
   5              		.eabi_attribute 21, 1
   6              		.eabi_attribute 23, 3
   7              		.eabi_attribute 24, 1
   8              		.eabi_attribute 25, 1
   9              		.eabi_attribute 26, 1
  10              		.eabi_attribute 30, 2
  11              		.eabi_attribute 34, 1
  12              		.eabi_attribute 18, 4
  13              		.thumb
  14              		.file	"stm32_dma.c"
  15              		.text
  16              	.Ltext0:
  17              		.cfi_sections	.debug_frame
  18              		.section	.text.Vector6C,"ax",%progbits
  19              		.align	2
  20              		.p2align 4,,15
  21              		.global	Vector6C
  22              		.thumb
  23              		.thumb_func
  24              		.type	Vector6C, %function
  25              	Vector6C:
  26              	.LFB118:
  27              		.file 1 "chibios/os/hal/platforms/STM32F30x/stm32_dma.c"
  28              		.loc 1 119 0
  29              		.cfi_startproc
  30              		@ args = 0, pretend = 0, frame = 0
  31              		@ frame_needed = 0, uses_anonymous_args = 0
  32 0000 08B5     		push	{r3, lr}
  33              	.LCFI0:
  34              		.cfi_def_cfa_offset 8
  35              		.cfi_offset 3, -8
  36              		.cfi_offset 14, -4
  37              		.loc 1 124 0
  38 0002 0023     		movs	r3, #0
  39 0004 C4F20203 		movt	r3, 16386
  40              		.loc 1 126 0
  41 0008 0648     		ldr	r0, .L7
  42              		.loc 1 124 0
  43 000a 1968     		ldr	r1, [r3, #0]
  44              		.loc 1 126 0
  45 000c 0268     		ldr	r2, [r0, #0]
  46              		.loc 1 124 0
  47 000e 01F00F01 		and	r1, r1, #15
  48              	.LVL0:
  49              		.loc 1 125 0
  50 0012 5960     		str	r1, [r3, #4]
  51              		.loc 1 126 0
  52 0014 0AB1     		cbz	r2, .L2
  53              		.loc 1 127 0
  54 0016 4068     		ldr	r0, [r0, #4]
  55 0018 9047     		blx	r2
  56              	.LVL1:
  57              	.L2:
ARM GAS  /tmp/ccUacns9.s 			page 2


  58              		.loc 1 130 0
  59 001a BDE80840 		pop	{r3, lr}
  60              		.loc 1 129 0
  61 001e FFF7FEBF 		b	_port_irq_epilogue
  62              	.LVL2:
  63              	.L8:
  64 0022 00BF     		.align	2
  65              	.L7:
  66 0024 00000000 		.word	.LANCHOR0
  67              		.cfi_endproc
  68              	.LFE118:
  69              		.size	Vector6C, .-Vector6C
  70 0028 AFF30080 		.section	.text.Vector70,"ax",%progbits
  70      AFF30080 
  71              		.align	2
  72              		.p2align 4,,15
  73              		.global	Vector70
  74              		.thumb
  75              		.thumb_func
  76              		.type	Vector70, %function
  77              	Vector70:
  78              	.LFB119:
  79              		.loc 1 137 0
  80              		.cfi_startproc
  81              		@ args = 0, pretend = 0, frame = 0
  82              		@ frame_needed = 0, uses_anonymous_args = 0
  83              		.loc 1 142 0
  84 0000 0023     		movs	r3, #0
  85 0002 C4F20203 		movt	r3, 16386
  86              		.loc 1 144 0
  87 0006 0748     		ldr	r0, .L14
  88              		.loc 1 142 0
  89 0008 1968     		ldr	r1, [r3, #0]
  90              		.loc 1 144 0
  91 000a 8268     		ldr	r2, [r0, #8]
  92              		.loc 1 142 0
  93 000c C1F30311 		ubfx	r1, r1, #4, #4
  94              	.LVL3:
  95              		.loc 1 137 0
  96 0010 10B5     		push	{r4, lr}
  97              	.LCFI1:
  98              		.cfi_def_cfa_offset 8
  99              		.cfi_offset 4, -8
 100              		.cfi_offset 14, -4
 101              		.loc 1 143 0
 102 0012 0C01     		lsls	r4, r1, #4
 103 0014 5C60     		str	r4, [r3, #4]
 104              		.loc 1 144 0
 105 0016 0AB1     		cbz	r2, .L10
 106              		.loc 1 145 0
 107 0018 C068     		ldr	r0, [r0, #12]
 108 001a 9047     		blx	r2
 109              	.LVL4:
 110              	.L10:
 111              		.loc 1 148 0
 112 001c BDE81040 		pop	{r4, lr}
 113              		.loc 1 147 0
ARM GAS  /tmp/ccUacns9.s 			page 3


 114 0020 FFF7FEBF 		b	_port_irq_epilogue
 115              	.LVL5:
 116              	.L15:
 117              		.align	2
 118              	.L14:
 119 0024 00000000 		.word	.LANCHOR0
 120              		.cfi_endproc
 121              	.LFE119:
 122              		.size	Vector70, .-Vector70
 123 0028 AFF30080 		.section	.text.Vector74,"ax",%progbits
 123      AFF30080 
 124              		.align	2
 125              		.p2align 4,,15
 126              		.global	Vector74
 127              		.thumb
 128              		.thumb_func
 129              		.type	Vector74, %function
 130              	Vector74:
 131              	.LFB120:
 132              		.loc 1 155 0
 133              		.cfi_startproc
 134              		@ args = 0, pretend = 0, frame = 0
 135              		@ frame_needed = 0, uses_anonymous_args = 0
 136              		.loc 1 160 0
 137 0000 0023     		movs	r3, #0
 138 0002 C4F20203 		movt	r3, 16386
 139              		.loc 1 162 0
 140 0006 0748     		ldr	r0, .L21
 141              		.loc 1 160 0
 142 0008 1968     		ldr	r1, [r3, #0]
 143              		.loc 1 162 0
 144 000a 0269     		ldr	r2, [r0, #16]
 145              		.loc 1 160 0
 146 000c C1F30321 		ubfx	r1, r1, #8, #4
 147              	.LVL6:
 148              		.loc 1 155 0
 149 0010 10B5     		push	{r4, lr}
 150              	.LCFI2:
 151              		.cfi_def_cfa_offset 8
 152              		.cfi_offset 4, -8
 153              		.cfi_offset 14, -4
 154              		.loc 1 161 0
 155 0012 0C02     		lsls	r4, r1, #8
 156 0014 5C60     		str	r4, [r3, #4]
 157              		.loc 1 162 0
 158 0016 0AB1     		cbz	r2, .L17
 159              		.loc 1 163 0
 160 0018 4069     		ldr	r0, [r0, #20]
 161 001a 9047     		blx	r2
 162              	.LVL7:
 163              	.L17:
 164              		.loc 1 166 0
 165 001c BDE81040 		pop	{r4, lr}
 166              		.loc 1 165 0
 167 0020 FFF7FEBF 		b	_port_irq_epilogue
 168              	.LVL8:
 169              	.L22:
ARM GAS  /tmp/ccUacns9.s 			page 4


 170              		.align	2
 171              	.L21:
 172 0024 00000000 		.word	.LANCHOR0
 173              		.cfi_endproc
 174              	.LFE120:
 175              		.size	Vector74, .-Vector74
 176 0028 AFF30080 		.section	.text.Vector78,"ax",%progbits
 176      AFF30080 
 177              		.align	2
 178              		.p2align 4,,15
 179              		.global	Vector78
 180              		.thumb
 181              		.thumb_func
 182              		.type	Vector78, %function
 183              	Vector78:
 184              	.LFB121:
 185              		.loc 1 173 0
 186              		.cfi_startproc
 187              		@ args = 0, pretend = 0, frame = 0
 188              		@ frame_needed = 0, uses_anonymous_args = 0
 189              		.loc 1 178 0
 190 0000 0023     		movs	r3, #0
 191 0002 C4F20203 		movt	r3, 16386
 192              		.loc 1 180 0
 193 0006 0748     		ldr	r0, .L28
 194              		.loc 1 178 0
 195 0008 1968     		ldr	r1, [r3, #0]
 196              		.loc 1 180 0
 197 000a 8269     		ldr	r2, [r0, #24]
 198              		.loc 1 178 0
 199 000c C1F30331 		ubfx	r1, r1, #12, #4
 200              	.LVL9:
 201              		.loc 1 173 0
 202 0010 10B5     		push	{r4, lr}
 203              	.LCFI3:
 204              		.cfi_def_cfa_offset 8
 205              		.cfi_offset 4, -8
 206              		.cfi_offset 14, -4
 207              		.loc 1 179 0
 208 0012 0C03     		lsls	r4, r1, #12
 209 0014 5C60     		str	r4, [r3, #4]
 210              		.loc 1 180 0
 211 0016 0AB1     		cbz	r2, .L24
 212              		.loc 1 181 0
 213 0018 C069     		ldr	r0, [r0, #28]
 214 001a 9047     		blx	r2
 215              	.LVL10:
 216              	.L24:
 217              		.loc 1 184 0
 218 001c BDE81040 		pop	{r4, lr}
 219              		.loc 1 183 0
 220 0020 FFF7FEBF 		b	_port_irq_epilogue
 221              	.LVL11:
 222              	.L29:
 223              		.align	2
 224              	.L28:
 225 0024 00000000 		.word	.LANCHOR0
ARM GAS  /tmp/ccUacns9.s 			page 5


 226              		.cfi_endproc
 227              	.LFE121:
 228              		.size	Vector78, .-Vector78
 229 0028 AFF30080 		.section	.text.Vector7C,"ax",%progbits
 229      AFF30080 
 230              		.align	2
 231              		.p2align 4,,15
 232              		.global	Vector7C
 233              		.thumb
 234              		.thumb_func
 235              		.type	Vector7C, %function
 236              	Vector7C:
 237              	.LFB122:
 238              		.loc 1 191 0
 239              		.cfi_startproc
 240              		@ args = 0, pretend = 0, frame = 0
 241              		@ frame_needed = 0, uses_anonymous_args = 0
 242              		.loc 1 196 0
 243 0000 0023     		movs	r3, #0
 244 0002 C4F20203 		movt	r3, 16386
 245              		.loc 1 198 0
 246 0006 0748     		ldr	r0, .L35
 247              		.loc 1 196 0
 248 0008 1968     		ldr	r1, [r3, #0]
 249              		.loc 1 198 0
 250 000a 026A     		ldr	r2, [r0, #32]
 251              		.loc 1 196 0
 252 000c C1F30341 		ubfx	r1, r1, #16, #4
 253              	.LVL12:
 254              		.loc 1 191 0
 255 0010 10B5     		push	{r4, lr}
 256              	.LCFI4:
 257              		.cfi_def_cfa_offset 8
 258              		.cfi_offset 4, -8
 259              		.cfi_offset 14, -4
 260              		.loc 1 197 0
 261 0012 0C04     		lsls	r4, r1, #16
 262 0014 5C60     		str	r4, [r3, #4]
 263              		.loc 1 198 0
 264 0016 0AB1     		cbz	r2, .L31
 265              		.loc 1 199 0
 266 0018 406A     		ldr	r0, [r0, #36]
 267 001a 9047     		blx	r2
 268              	.LVL13:
 269              	.L31:
 270              		.loc 1 202 0
 271 001c BDE81040 		pop	{r4, lr}
 272              		.loc 1 201 0
 273 0020 FFF7FEBF 		b	_port_irq_epilogue
 274              	.LVL14:
 275              	.L36:
 276              		.align	2
 277              	.L35:
 278 0024 00000000 		.word	.LANCHOR0
 279              		.cfi_endproc
 280              	.LFE122:
 281              		.size	Vector7C, .-Vector7C
ARM GAS  /tmp/ccUacns9.s 			page 6


 282 0028 AFF30080 		.section	.text.Vector80,"ax",%progbits
 282      AFF30080 
 283              		.align	2
 284              		.p2align 4,,15
 285              		.global	Vector80
 286              		.thumb
 287              		.thumb_func
 288              		.type	Vector80, %function
 289              	Vector80:
 290              	.LFB123:
 291              		.loc 1 209 0
 292              		.cfi_startproc
 293              		@ args = 0, pretend = 0, frame = 0
 294              		@ frame_needed = 0, uses_anonymous_args = 0
 295              		.loc 1 214 0
 296 0000 0023     		movs	r3, #0
 297 0002 C4F20203 		movt	r3, 16386
 298              		.loc 1 216 0
 299 0006 0748     		ldr	r0, .L42
 300              		.loc 1 214 0
 301 0008 1968     		ldr	r1, [r3, #0]
 302              		.loc 1 216 0
 303 000a 826A     		ldr	r2, [r0, #40]
 304              		.loc 1 214 0
 305 000c C1F30351 		ubfx	r1, r1, #20, #4
 306              	.LVL15:
 307              		.loc 1 209 0
 308 0010 10B5     		push	{r4, lr}
 309              	.LCFI5:
 310              		.cfi_def_cfa_offset 8
 311              		.cfi_offset 4, -8
 312              		.cfi_offset 14, -4
 313              		.loc 1 215 0
 314 0012 0C05     		lsls	r4, r1, #20
 315 0014 5C60     		str	r4, [r3, #4]
 316              		.loc 1 216 0
 317 0016 0AB1     		cbz	r2, .L38
 318              		.loc 1 217 0
 319 0018 C06A     		ldr	r0, [r0, #44]
 320 001a 9047     		blx	r2
 321              	.LVL16:
 322              	.L38:
 323              		.loc 1 220 0
 324 001c BDE81040 		pop	{r4, lr}
 325              		.loc 1 219 0
 326 0020 FFF7FEBF 		b	_port_irq_epilogue
 327              	.LVL17:
 328              	.L43:
 329              		.align	2
 330              	.L42:
 331 0024 00000000 		.word	.LANCHOR0
 332              		.cfi_endproc
 333              	.LFE123:
 334              		.size	Vector80, .-Vector80
 335 0028 AFF30080 		.section	.text.Vector84,"ax",%progbits
 335      AFF30080 
 336              		.align	2
ARM GAS  /tmp/ccUacns9.s 			page 7


 337              		.p2align 4,,15
 338              		.global	Vector84
 339              		.thumb
 340              		.thumb_func
 341              		.type	Vector84, %function
 342              	Vector84:
 343              	.LFB124:
 344              		.loc 1 227 0
 345              		.cfi_startproc
 346              		@ args = 0, pretend = 0, frame = 0
 347              		@ frame_needed = 0, uses_anonymous_args = 0
 348              		.loc 1 232 0
 349 0000 0023     		movs	r3, #0
 350 0002 C4F20203 		movt	r3, 16386
 351              		.loc 1 234 0
 352 0006 0748     		ldr	r0, .L49
 353              		.loc 1 232 0
 354 0008 1968     		ldr	r1, [r3, #0]
 355              		.loc 1 234 0
 356 000a 026B     		ldr	r2, [r0, #48]
 357              		.loc 1 232 0
 358 000c C1F30361 		ubfx	r1, r1, #24, #4
 359              	.LVL18:
 360              		.loc 1 227 0
 361 0010 10B5     		push	{r4, lr}
 362              	.LCFI6:
 363              		.cfi_def_cfa_offset 8
 364              		.cfi_offset 4, -8
 365              		.cfi_offset 14, -4
 366              		.loc 1 233 0
 367 0012 0C06     		lsls	r4, r1, #24
 368 0014 5C60     		str	r4, [r3, #4]
 369              		.loc 1 234 0
 370 0016 0AB1     		cbz	r2, .L45
 371              		.loc 1 235 0
 372 0018 406B     		ldr	r0, [r0, #52]
 373 001a 9047     		blx	r2
 374              	.LVL19:
 375              	.L45:
 376              		.loc 1 238 0
 377 001c BDE81040 		pop	{r4, lr}
 378              		.loc 1 237 0
 379 0020 FFF7FEBF 		b	_port_irq_epilogue
 380              	.LVL20:
 381              	.L50:
 382              		.align	2
 383              	.L49:
 384 0024 00000000 		.word	.LANCHOR0
 385              		.cfi_endproc
 386              	.LFE124:
 387              		.size	Vector84, .-Vector84
 388 0028 AFF30080 		.section	.text.Vector120,"ax",%progbits
 388      AFF30080 
 389              		.align	2
 390              		.p2align 4,,15
 391              		.global	Vector120
 392              		.thumb
ARM GAS  /tmp/ccUacns9.s 			page 8


 393              		.thumb_func
 394              		.type	Vector120, %function
 395              	Vector120:
 396              	.LFB125:
 397              		.loc 1 245 0
 398              		.cfi_startproc
 399              		@ args = 0, pretend = 0, frame = 0
 400              		@ frame_needed = 0, uses_anonymous_args = 0
 401 0000 08B5     		push	{r3, lr}
 402              	.LCFI7:
 403              		.cfi_def_cfa_offset 8
 404              		.cfi_offset 3, -8
 405              		.cfi_offset 14, -4
 406              		.loc 1 250 0
 407 0002 4FF48063 		mov	r3, #1024
 408 0006 C4F20203 		movt	r3, 16386
 409              		.loc 1 252 0
 410 000a 0648     		ldr	r0, .L56
 411              		.loc 1 250 0
 412 000c 1968     		ldr	r1, [r3, #0]
 413              		.loc 1 252 0
 414 000e 826B     		ldr	r2, [r0, #56]
 415              		.loc 1 250 0
 416 0010 01F00F01 		and	r1, r1, #15
 417              	.LVL21:
 418              		.loc 1 251 0
 419 0014 5960     		str	r1, [r3, #4]
 420              		.loc 1 252 0
 421 0016 0AB1     		cbz	r2, .L52
 422              		.loc 1 253 0
 423 0018 C06B     		ldr	r0, [r0, #60]
 424 001a 9047     		blx	r2
 425              	.LVL22:
 426              	.L52:
 427              		.loc 1 256 0
 428 001c BDE80840 		pop	{r3, lr}
 429              		.loc 1 255 0
 430 0020 FFF7FEBF 		b	_port_irq_epilogue
 431              	.LVL23:
 432              	.L57:
 433              		.align	2
 434              	.L56:
 435 0024 00000000 		.word	.LANCHOR0
 436              		.cfi_endproc
 437              	.LFE125:
 438              		.size	Vector120, .-Vector120
 439 0028 AFF30080 		.section	.text.Vector124,"ax",%progbits
 439      AFF30080 
 440              		.align	2
 441              		.p2align 4,,15
 442              		.global	Vector124
 443              		.thumb
 444              		.thumb_func
 445              		.type	Vector124, %function
 446              	Vector124:
 447              	.LFB126:
 448              		.loc 1 263 0
ARM GAS  /tmp/ccUacns9.s 			page 9


 449              		.cfi_startproc
 450              		@ args = 0, pretend = 0, frame = 0
 451              		@ frame_needed = 0, uses_anonymous_args = 0
 452              		.loc 1 268 0
 453 0000 4FF48063 		mov	r3, #1024
 454 0004 C4F20203 		movt	r3, 16386
 455              		.loc 1 270 0
 456 0008 0748     		ldr	r0, .L63
 457              		.loc 1 268 0
 458 000a 1968     		ldr	r1, [r3, #0]
 459              		.loc 1 270 0
 460 000c 026C     		ldr	r2, [r0, #64]
 461              		.loc 1 268 0
 462 000e C1F30311 		ubfx	r1, r1, #4, #4
 463              	.LVL24:
 464              		.loc 1 263 0
 465 0012 10B5     		push	{r4, lr}
 466              	.LCFI8:
 467              		.cfi_def_cfa_offset 8
 468              		.cfi_offset 4, -8
 469              		.cfi_offset 14, -4
 470              		.loc 1 269 0
 471 0014 0C01     		lsls	r4, r1, #4
 472 0016 5C60     		str	r4, [r3, #4]
 473              		.loc 1 270 0
 474 0018 0AB1     		cbz	r2, .L59
 475              		.loc 1 271 0
 476 001a 406C     		ldr	r0, [r0, #68]
 477 001c 9047     		blx	r2
 478              	.LVL25:
 479              	.L59:
 480              		.loc 1 274 0
 481 001e BDE81040 		pop	{r4, lr}
 482              		.loc 1 273 0
 483 0022 FFF7FEBF 		b	_port_irq_epilogue
 484              	.LVL26:
 485              	.L64:
 486 0026 00BF     		.align	2
 487              	.L63:
 488 0028 00000000 		.word	.LANCHOR0
 489              		.cfi_endproc
 490              	.LFE126:
 491              		.size	Vector124, .-Vector124
 492 002c AFF30080 		.section	.text.Vector128,"ax",%progbits
 493              		.align	2
 494              		.p2align 4,,15
 495              		.global	Vector128
 496              		.thumb
 497              		.thumb_func
 498              		.type	Vector128, %function
 499              	Vector128:
 500              	.LFB127:
 501              		.loc 1 281 0
 502              		.cfi_startproc
 503              		@ args = 0, pretend = 0, frame = 0
 504              		@ frame_needed = 0, uses_anonymous_args = 0
 505              		.loc 1 286 0
ARM GAS  /tmp/ccUacns9.s 			page 10


 506 0000 4FF48063 		mov	r3, #1024
 507 0004 C4F20203 		movt	r3, 16386
 508              		.loc 1 288 0
 509 0008 0748     		ldr	r0, .L70
 510              		.loc 1 286 0
 511 000a 1968     		ldr	r1, [r3, #0]
 512              		.loc 1 288 0
 513 000c 826C     		ldr	r2, [r0, #72]
 514              		.loc 1 286 0
 515 000e C1F30321 		ubfx	r1, r1, #8, #4
 516              	.LVL27:
 517              		.loc 1 281 0
 518 0012 10B5     		push	{r4, lr}
 519              	.LCFI9:
 520              		.cfi_def_cfa_offset 8
 521              		.cfi_offset 4, -8
 522              		.cfi_offset 14, -4
 523              		.loc 1 287 0
 524 0014 0C02     		lsls	r4, r1, #8
 525 0016 5C60     		str	r4, [r3, #4]
 526              		.loc 1 288 0
 527 0018 0AB1     		cbz	r2, .L66
 528              		.loc 1 289 0
 529 001a C06C     		ldr	r0, [r0, #76]
 530 001c 9047     		blx	r2
 531              	.LVL28:
 532              	.L66:
 533              		.loc 1 292 0
 534 001e BDE81040 		pop	{r4, lr}
 535              		.loc 1 291 0
 536 0022 FFF7FEBF 		b	_port_irq_epilogue
 537              	.LVL29:
 538              	.L71:
 539 0026 00BF     		.align	2
 540              	.L70:
 541 0028 00000000 		.word	.LANCHOR0
 542              		.cfi_endproc
 543              	.LFE127:
 544              		.size	Vector128, .-Vector128
 545 002c AFF30080 		.section	.text.Vector12C,"ax",%progbits
 546              		.align	2
 547              		.p2align 4,,15
 548              		.global	Vector12C
 549              		.thumb
 550              		.thumb_func
 551              		.type	Vector12C, %function
 552              	Vector12C:
 553              	.LFB128:
 554              		.loc 1 299 0
 555              		.cfi_startproc
 556              		@ args = 0, pretend = 0, frame = 0
 557              		@ frame_needed = 0, uses_anonymous_args = 0
 558              		.loc 1 304 0
 559 0000 4FF48063 		mov	r3, #1024
 560 0004 C4F20203 		movt	r3, 16386
 561              		.loc 1 306 0
 562 0008 0748     		ldr	r0, .L77
ARM GAS  /tmp/ccUacns9.s 			page 11


 563              		.loc 1 304 0
 564 000a 1968     		ldr	r1, [r3, #0]
 565              		.loc 1 306 0
 566 000c 026D     		ldr	r2, [r0, #80]
 567              		.loc 1 304 0
 568 000e C1F30331 		ubfx	r1, r1, #12, #4
 569              	.LVL30:
 570              		.loc 1 299 0
 571 0012 10B5     		push	{r4, lr}
 572              	.LCFI10:
 573              		.cfi_def_cfa_offset 8
 574              		.cfi_offset 4, -8
 575              		.cfi_offset 14, -4
 576              		.loc 1 305 0
 577 0014 0C03     		lsls	r4, r1, #12
 578 0016 5C60     		str	r4, [r3, #4]
 579              		.loc 1 306 0
 580 0018 0AB1     		cbz	r2, .L73
 581              		.loc 1 307 0
 582 001a 406D     		ldr	r0, [r0, #84]
 583 001c 9047     		blx	r2
 584              	.LVL31:
 585              	.L73:
 586              		.loc 1 310 0
 587 001e BDE81040 		pop	{r4, lr}
 588              		.loc 1 309 0
 589 0022 FFF7FEBF 		b	_port_irq_epilogue
 590              	.LVL32:
 591              	.L78:
 592 0026 00BF     		.align	2
 593              	.L77:
 594 0028 00000000 		.word	.LANCHOR0
 595              		.cfi_endproc
 596              	.LFE128:
 597              		.size	Vector12C, .-Vector12C
 598 002c AFF30080 		.section	.text.Vector130,"ax",%progbits
 599              		.align	2
 600              		.p2align 4,,15
 601              		.global	Vector130
 602              		.thumb
 603              		.thumb_func
 604              		.type	Vector130, %function
 605              	Vector130:
 606              	.LFB129:
 607              		.loc 1 317 0
 608              		.cfi_startproc
 609              		@ args = 0, pretend = 0, frame = 0
 610              		@ frame_needed = 0, uses_anonymous_args = 0
 611              		.loc 1 322 0
 612 0000 4FF48063 		mov	r3, #1024
 613 0004 C4F20203 		movt	r3, 16386
 614              		.loc 1 324 0
 615 0008 0748     		ldr	r0, .L84
 616              		.loc 1 322 0
 617 000a 1968     		ldr	r1, [r3, #0]
 618              		.loc 1 324 0
 619 000c 826D     		ldr	r2, [r0, #88]
ARM GAS  /tmp/ccUacns9.s 			page 12


 620              		.loc 1 322 0
 621 000e C1F30341 		ubfx	r1, r1, #16, #4
 622              	.LVL33:
 623              		.loc 1 317 0
 624 0012 10B5     		push	{r4, lr}
 625              	.LCFI11:
 626              		.cfi_def_cfa_offset 8
 627              		.cfi_offset 4, -8
 628              		.cfi_offset 14, -4
 629              		.loc 1 323 0
 630 0014 0C04     		lsls	r4, r1, #16
 631 0016 5C60     		str	r4, [r3, #4]
 632              		.loc 1 324 0
 633 0018 0AB1     		cbz	r2, .L80
 634              		.loc 1 325 0
 635 001a C06D     		ldr	r0, [r0, #92]
 636 001c 9047     		blx	r2
 637              	.LVL34:
 638              	.L80:
 639              		.loc 1 328 0
 640 001e BDE81040 		pop	{r4, lr}
 641              		.loc 1 327 0
 642 0022 FFF7FEBF 		b	_port_irq_epilogue
 643              	.LVL35:
 644              	.L85:
 645 0026 00BF     		.align	2
 646              	.L84:
 647 0028 00000000 		.word	.LANCHOR0
 648              		.cfi_endproc
 649              	.LFE129:
 650              		.size	Vector130, .-Vector130
 651 002c AFF30080 		.section	.text.dmaInit,"ax",%progbits
 652              		.align	2
 653              		.p2align 4,,15
 654              		.global	dmaInit
 655              		.thumb
 656              		.thumb_func
 657              		.type	dmaInit, %function
 658              	dmaInit:
 659              	.LFB130:
 660              		.loc 1 339 0
 661              		.cfi_startproc
 662              		@ args = 0, pretend = 0, frame = 24
 663              		@ frame_needed = 0, uses_anonymous_args = 0
 664              		@ link register save eliminated.
 665 0000 2DE9F00F 		push	{r4, r5, r6, r7, r8, r9, sl, fp}
 666              	.LCFI12:
 667              		.cfi_def_cfa_offset 32
 668              		.cfi_offset 4, -32
 669              		.cfi_offset 5, -28
 670              		.cfi_offset 6, -24
 671              		.cfi_offset 7, -20
 672              		.cfi_offset 8, -16
 673              		.cfi_offset 9, -12
 674              		.cfi_offset 10, -8
 675              		.cfi_offset 11, -4
 676              		.loc 1 342 0
ARM GAS  /tmp/ccUacns9.s 			page 13


 677 0004 40F20002 		movw	r2, #:lower16:.LANCHOR1
 678              		.loc 1 339 0
 679 0008 86B0     		sub	sp, sp, #24
 680              	.LCFI13:
 681              		.cfi_def_cfa_offset 56
 682              		.loc 1 342 0
 683 000a C0F20002 		movt	r2, #:upper16:.LANCHOR1
 684              		.loc 1 344 0
 685 000e 4FF48660 		mov	r0, #1072
 686              		.loc 1 342 0
 687 0012 0292     		str	r2, [sp, #8]
 688              		.loc 1 344 0
 689 0014 C4F20200 		movt	r0, 16386
 690 0018 40F24442 		movw	r2, #1092
 691 001c 0190     		str	r0, [sp, #4]
 692 001e C4F20202 		movt	r2, 16386
 693 0022 4FF48B60 		mov	r0, #1112
 694 0026 0392     		str	r2, [sp, #12]
 695 0028 C4F20200 		movt	r0, 16386
 696              		.loc 1 349 0
 697 002c 4FF48062 		mov	r2, #1024
 698              		.loc 1 344 0
 699 0030 0490     		str	r0, [sp, #16]
 700              		.loc 1 349 0
 701 0032 C4F20202 		movt	r2, 16386
 702              		.loc 1 342 0
 703 0036 0298     		ldr	r0, [sp, #8]
 704              		.loc 1 349 0
 705 0038 0592     		str	r2, [sp, #20]
 706              		.loc 1 344 0
 707 003a 4FF0080B 		mov	fp, #8
 708              		.loc 1 342 0
 709 003e 0022     		movs	r2, #0
 710              		.loc 1 345 0
 711 0040 40F20003 		movw	r3, #:lower16:.LANCHOR0
 712              		.loc 1 344 0
 713 0044 4FF01C0A 		mov	sl, #28
 714 0048 4FF03009 		mov	r9, #48
 715 004c 4FF04408 		mov	r8, #68
 716 0050 4FF0580C 		mov	ip, #88
 717 0054 6C27     		movs	r7, #108
 718 0056 8026     		movs	r6, #128
 719 0058 4FF48165 		mov	r5, #1032
 720 005c 40F21C44 		movw	r4, #1052
 721              		.loc 1 342 0
 722 0060 0260     		str	r2, [r0, #0]
 723              	.LVL36:
 724              		.loc 1 345 0
 725 0062 C0F20003 		movt	r3, #:upper16:.LANCHOR0
 726              		.loc 1 344 0
 727 0066 0198     		ldr	r0, [sp, #4]
 728 0068 C4F2020B 		movt	fp, 16386
 729 006c C4F2020A 		movt	sl, 16386
 730 0070 C4F20209 		movt	r9, 16386
 731 0074 C4F20208 		movt	r8, 16386
 732 0078 C4F2020C 		movt	ip, 16386
 733 007c C4F20207 		movt	r7, 16386
ARM GAS  /tmp/ccUacns9.s 			page 14


 734 0080 C4F20206 		movt	r6, 16386
 735 0084 C4F20205 		movt	r5, 16386
 736 0088 C4F20204 		movt	r4, 16386
 737 008c CBF80020 		str	r2, [fp, #0]
 738              		.loc 1 345 0
 739 0090 1A60     		str	r2, [r3, #0]
 740              	.LVL37:
 741              		.loc 1 344 0
 742 0092 CAF80020 		str	r2, [sl, #0]
 743              		.loc 1 345 0
 744 0096 9A60     		str	r2, [r3, #8]
 745              	.LVL38:
 746              		.loc 1 344 0
 747 0098 C9F80020 		str	r2, [r9, #0]
 748              		.loc 1 345 0
 749 009c 1A61     		str	r2, [r3, #16]
 750              	.LVL39:
 751              		.loc 1 344 0
 752 009e C8F80020 		str	r2, [r8, #0]
 753              		.loc 1 345 0
 754 00a2 9A61     		str	r2, [r3, #24]
 755              	.LVL40:
 756              		.loc 1 344 0
 757 00a4 CCF80020 		str	r2, [ip, #0]
 758              		.loc 1 345 0
 759 00a8 1A62     		str	r2, [r3, #32]
 760              	.LVL41:
 761              		.loc 1 344 0
 762 00aa 3A60     		str	r2, [r7, #0]
 763              		.loc 1 345 0
 764 00ac 9A62     		str	r2, [r3, #40]
 765              	.LVL42:
 766              		.loc 1 344 0
 767 00ae 3260     		str	r2, [r6, #0]
 768              		.loc 1 345 0
 769 00b0 1A63     		str	r2, [r3, #48]
 770              	.LVL43:
 771              		.loc 1 344 0
 772 00b2 2A60     		str	r2, [r5, #0]
 773              		.loc 1 345 0
 774 00b4 9A63     		str	r2, [r3, #56]
 775              	.LVL44:
 776              		.loc 1 344 0
 777 00b6 2260     		str	r2, [r4, #0]
 778              		.loc 1 345 0
 779 00b8 1A64     		str	r2, [r3, #64]
 780              	.LVL45:
 781              		.loc 1 344 0
 782 00ba 0260     		str	r2, [r0, #0]
 783 00bc 0398     		ldr	r0, [sp, #12]
 784              		.loc 1 345 0
 785 00be 9A64     		str	r2, [r3, #72]
 786              	.LVL46:
 787              		.loc 1 344 0
 788 00c0 0260     		str	r2, [r0, #0]
 789 00c2 0498     		ldr	r0, [sp, #16]
 790              		.loc 1 345 0
ARM GAS  /tmp/ccUacns9.s 			page 15


 791 00c4 1A65     		str	r2, [r3, #80]
 792              	.LVL47:
 793              		.loc 1 347 0
 794 00c6 0021     		movs	r1, #0
 795              		.loc 1 344 0
 796 00c8 0260     		str	r2, [r0, #0]
 797              		.loc 1 347 0
 798 00ca C4F20201 		movt	r1, 16386
 799              		.loc 1 345 0
 800 00ce 9A65     		str	r2, [r3, #88]
 801              	.LVL48:
 802              		.loc 1 349 0
 803 00d0 059B     		ldr	r3, [sp, #20]
 804              		.loc 1 347 0
 805 00d2 4FF0FF32 		mov	r2, #-1
 806 00d6 4A60     		str	r2, [r1, #4]
 807              		.loc 1 349 0
 808 00d8 5A60     		str	r2, [r3, #4]
 809              		.loc 1 351 0
 810 00da 06B0     		add	sp, sp, #24
 811 00dc BDE8F00F 		pop	{r4, r5, r6, r7, r8, r9, sl, fp}
 812 00e0 7047     		bx	lr
 813              		.cfi_endproc
 814              	.LFE130:
 815              		.size	dmaInit, .-dmaInit
 816 00e2 00BFAFF3 		.section	.text.dmaStreamAllocate,"ax",%progbits
 816      0080AFF3 
 816      0080AFF3 
 816      0080
 817              		.align	2
 818              		.p2align 4,,15
 819              		.global	dmaStreamAllocate
 820              		.thumb
 821              		.thumb_func
 822              		.type	dmaStreamAllocate, %function
 823              	dmaStreamAllocate:
 824              	.LFB131:
 825              		.loc 1 380 0
 826              		.cfi_startproc
 827              		@ args = 0, pretend = 0, frame = 0
 828              		@ frame_needed = 0, uses_anonymous_args = 0
 829              	.LVL49:
 830 0000 2DE9F041 		push	{r4, r5, r6, r7, r8, lr}
 831              	.LCFI14:
 832              		.cfi_def_cfa_offset 24
 833              		.cfi_offset 4, -24
 834              		.cfi_offset 5, -20
 835              		.cfi_offset 6, -16
 836              		.cfi_offset 7, -12
 837              		.cfi_offset 8, -8
 838              		.cfi_offset 14, -4
 839              		.loc 1 385 0
 840 0004 214D     		ldr	r5, .L99
 841 0006 447A     		ldrb	r4, [r0, #9]	@ zero_extendqisi2
 842 0008 2E68     		ldr	r6, [r5, #0]
 843 000a 4FF0010C 		mov	ip, #1
 844 000e 0CFA04F7 		lsl	r7, ip, r4
ARM GAS  /tmp/ccUacns9.s 			page 16


 845 0012 3742     		tst	r7, r6
 846 0014 33D1     		bne	.L91
 847              		.loc 1 389 0
 848 0016 DFF878C0 		ldr	ip, .L99+4
 849              		.loc 1 390 0
 850 001a 0CEBC408 		add	r8, ip, r4, lsl #3
 851              		.loc 1 391 0
 852 001e 3E43     		orrs	r6, r6, r7
 853              		.loc 1 390 0
 854 0020 C8F80430 		str	r3, [r8, #4]
 855              		.loc 1 394 0
 856 0024 7306     		lsls	r3, r6, #25
 857              	.LVL50:
 858              		.loc 1 389 0
 859 0026 4CF83420 		str	r2, [ip, r4, lsl #3]
 860              		.loc 1 391 0
 861 002a 2E60     		str	r6, [r5, #0]
 862              		.loc 1 394 0
 863 002c 07D0     		beq	.L89
 864              		.loc 1 395 0
 865 002e 4FF48053 		mov	r3, #4096
 866 0032 C4F20203 		movt	r3, 16386
 867 0036 5C69     		ldr	r4, [r3, #20]
 868 0038 44F00105 		orr	r5, r4, #1
 869 003c 5D61     		str	r5, [r3, #20]
 870              	.L89:
 871              		.loc 1 397 0
 872 003e 16F4786F 		tst	r6, #3968
 873 0042 07D0     		beq	.L90
 874              		.loc 1 398 0
 875 0044 4FF48056 		mov	r6, #4096
 876 0048 C4F20206 		movt	r6, 16386
 877 004c 7369     		ldr	r3, [r6, #20]
 878 004e 43F00204 		orr	r4, r3, #2
 879 0052 7461     		str	r4, [r6, #20]
 880              	.L90:
 881              		.loc 1 402 0
 882 0054 90E82800 		ldmia	r0, {r3, r5}
 883 0058 1E68     		ldr	r6, [r3, #0]
 884 005a 26F00F04 		bic	r4, r6, #15
 885 005e 1C60     		str	r4, [r3, #0]
 886 0060 047A     		ldrb	r4, [r0, #8]	@ zero_extendqisi2
 887 0062 0F26     		movs	r6, #15
 888 0064 06FA04F6 		lsl	r6, r6, r4
 889              		.loc 1 403 0
 890 0068 0024     		movs	r4, #0
 891              		.loc 1 402 0
 892 006a 2E60     		str	r6, [r5, #0]
 893              		.loc 1 403 0
 894 006c 1C60     		str	r4, [r3, #0]
 895              		.loc 1 406 0
 896 006e 4AB1     		cbz	r2, .L92
 897              		.loc 1 407 0
 898 0070 807A     		ldrb	r0, [r0, #10]	@ zero_extendqisi2
 899              	.LVL51:
 900 0072 0901     		lsls	r1, r1, #4
 901              	.LVL52:
ARM GAS  /tmp/ccUacns9.s 			page 17


 902 0074 FFF7FEFF 		bl	nvicEnableVector
 903              	.LVL53:
 904              		.loc 1 409 0
 905 0078 2046     		mov	r0, r4
 906 007a BDE8F081 		pop	{r4, r5, r6, r7, r8, pc}
 907              	.LVL54:
 908              	.L91:
 909              		.loc 1 386 0
 910 007e 6046     		mov	r0, ip
 911              	.LVL55:
 912 0080 BDE8F081 		pop	{r4, r5, r6, r7, r8, pc}
 913              	.LVL56:
 914              	.L92:
 915              		.loc 1 409 0
 916 0084 1046     		mov	r0, r2
 917              	.LVL57:
 918              		.loc 1 410 0
 919 0086 BDE8F081 		pop	{r4, r5, r6, r7, r8, pc}
 920              	.L100:
 921 008a 00BF     		.align	2
 922              	.L99:
 923 008c 00000000 		.word	.LANCHOR1
 924 0090 00000000 		.word	.LANCHOR0
 925              		.cfi_endproc
 926              	.LFE131:
 927              		.size	dmaStreamAllocate, .-dmaStreamAllocate
 928 0094 AFF30080 		.section	.text.dmaStreamRelease,"ax",%progbits
 928      AFF30080 
 928      AFF30080 
 929              		.align	2
 930              		.p2align 4,,15
 931              		.global	dmaStreamRelease
 932              		.thumb
 933              		.thumb_func
 934              		.type	dmaStreamRelease, %function
 935              	dmaStreamRelease:
 936              	.LFB132:
 937              		.loc 1 425 0
 938              		.cfi_startproc
 939              		@ args = 0, pretend = 0, frame = 0
 940              		@ frame_needed = 0, uses_anonymous_args = 0
 941              	.LVL58:
 942 0000 10B5     		push	{r4, lr}
 943              	.LCFI15:
 944              		.cfi_def_cfa_offset 8
 945              		.cfi_offset 4, -8
 946              		.cfi_offset 14, -4
 947              		.loc 1 425 0
 948 0002 0446     		mov	r4, r0
 949              		.loc 1 434 0
 950 0004 807A     		ldrb	r0, [r0, #10]	@ zero_extendqisi2
 951              	.LVL59:
 952 0006 FFF7FEFF 		bl	nvicDisableVector
 953              	.LVL60:
 954              		.loc 1 437 0
 955 000a 0F4A     		ldr	r2, .L104
 956 000c 637A     		ldrb	r3, [r4, #9]	@ zero_extendqisi2
ARM GAS  /tmp/ccUacns9.s 			page 18


 957 000e 1168     		ldr	r1, [r2, #0]
 958 0010 0120     		movs	r0, #1
 959 0012 00FA03F3 		lsl	r3, r0, r3
 960 0016 21EA0300 		bic	r0, r1, r3
 961 001a 1060     		str	r0, [r2, #0]
 962              		.loc 1 440 0
 963 001c 4206     		lsls	r2, r0, #25
 964 001e 07D1     		bne	.L102
 965              		.loc 1 441 0
 966 0020 4FF48052 		mov	r2, #4096
 967 0024 C4F20202 		movt	r2, 16386
 968 0028 5169     		ldr	r1, [r2, #20]
 969 002a 21F00103 		bic	r3, r1, #1
 970 002e 5361     		str	r3, [r2, #20]
 971              	.L102:
 972              		.loc 1 443 0
 973 0030 10F4786F 		tst	r0, #3968
 974 0034 07D1     		bne	.L101
 975              		.loc 1 444 0
 976 0036 4FF48050 		mov	r0, #4096
 977 003a C4F20200 		movt	r0, 16386
 978 003e 4269     		ldr	r2, [r0, #20]
 979 0040 22F00201 		bic	r1, r2, #2
 980 0044 4161     		str	r1, [r0, #20]
 981              	.L101:
 982 0046 10BD     		pop	{r4, pc}
 983              	.L105:
 984              		.align	2
 985              	.L104:
 986 0048 00000000 		.word	.LANCHOR1
 987              		.cfi_endproc
 988              	.LFE132:
 989              		.size	dmaStreamRelease, .-dmaStreamRelease
 990              		.global	_stm32_dma_streams
 991 004c AFF30080 		.section	.bss.dma_isr_redir,"aw",%nobits
 992              		.align	2
 993              		.set	.LANCHOR0,. + 0
 994              		.type	dma_isr_redir, %object
 995              		.size	dma_isr_redir, 96
 996              	dma_isr_redir:
 997 0000 00000000 		.space	96
 997      00000000 
 997      00000000 
 997      00000000 
 997      00000000 
 998              		.section	.rodata._stm32_dma_streams,"a",%progbits
 999              		.align	2
 1000              		.type	_stm32_dma_streams, %object
 1001              		.size	_stm32_dma_streams, 144
 1002              	_stm32_dma_streams:
 1003 0000 08000240 		.word	1073872904
 1004 0004 04000240 		.word	1073872900
 1005 0008 00       		.byte	0
 1006 0009 00       		.byte	0
 1007 000a 0B       		.byte	11
 1008 000b 00       		.space	1
 1009 000c 1C000240 		.word	1073872924
ARM GAS  /tmp/ccUacns9.s 			page 19


 1010 0010 04000240 		.word	1073872900
 1011 0014 04       		.byte	4
 1012 0015 01       		.byte	1
 1013 0016 0C       		.byte	12
 1014 0017 00       		.space	1
 1015 0018 30000240 		.word	1073872944
 1016 001c 04000240 		.word	1073872900
 1017 0020 08       		.byte	8
 1018 0021 02       		.byte	2
 1019 0022 0D       		.byte	13
 1020 0023 00       		.space	1
 1021 0024 44000240 		.word	1073872964
 1022 0028 04000240 		.word	1073872900
 1023 002c 0C       		.byte	12
 1024 002d 03       		.byte	3
 1025 002e 0E       		.byte	14
 1026 002f 00       		.space	1
 1027 0030 58000240 		.word	1073872984
 1028 0034 04000240 		.word	1073872900
 1029 0038 10       		.byte	16
 1030 0039 04       		.byte	4
 1031 003a 0F       		.byte	15
 1032 003b 00       		.space	1
 1033 003c 6C000240 		.word	1073873004
 1034 0040 04000240 		.word	1073872900
 1035 0044 14       		.byte	20
 1036 0045 05       		.byte	5
 1037 0046 10       		.byte	16
 1038 0047 00       		.space	1
 1039 0048 80000240 		.word	1073873024
 1040 004c 04000240 		.word	1073872900
 1041 0050 18       		.byte	24
 1042 0051 06       		.byte	6
 1043 0052 11       		.byte	17
 1044 0053 00       		.space	1
 1045 0054 08040240 		.word	1073873928
 1046 0058 04040240 		.word	1073873924
 1047 005c 00       		.byte	0
 1048 005d 07       		.byte	7
 1049 005e 38       		.byte	56
 1050 005f 00       		.space	1
 1051 0060 1C040240 		.word	1073873948
 1052 0064 04040240 		.word	1073873924
 1053 0068 04       		.byte	4
 1054 0069 08       		.byte	8
 1055 006a 39       		.byte	57
 1056 006b 00       		.space	1
 1057 006c 30040240 		.word	1073873968
 1058 0070 04040240 		.word	1073873924
 1059 0074 08       		.byte	8
 1060 0075 09       		.byte	9
 1061 0076 3A       		.byte	58
 1062 0077 00       		.space	1
 1063 0078 44040240 		.word	1073873988
 1064 007c 04040240 		.word	1073873924
 1065 0080 0C       		.byte	12
 1066 0081 0A       		.byte	10
ARM GAS  /tmp/ccUacns9.s 			page 20


 1067 0082 3B       		.byte	59
 1068 0083 00       		.space	1
 1069 0084 58040240 		.word	1073874008
 1070 0088 04040240 		.word	1073873924
 1071 008c 10       		.byte	16
 1072 008d 0B       		.byte	11
 1073 008e 3C       		.byte	60
 1074 008f 00       		.space	1
 1075              		.section	.bss.dma_streams_mask,"aw",%nobits
 1076              		.align	2
 1077              		.set	.LANCHOR1,. + 0
 1078              		.type	dma_streams_mask, %object
 1079              		.size	dma_streams_mask, 4
 1080              	dma_streams_mask:
 1081 0000 00000000 		.space	4
 1082              		.text
 1083              	.Letext0:
 1084              		.file 2 "/opt/ARM/gcc-arm-none-eabi-4_7-2013q3/bin/../lib/gcc/arm-none-eabi/4.7.4/../../../../arm-
 1085              		.file 3 "chibios/os/ports/GCC/ARMCMx/chtypes.h"
 1086              		.file 4 "chibios/os/hal/platforms/STM32F30x/stm32f30x.h"
 1087              		.file 5 "chibios/os/hal/platforms/STM32F30x/stm32_dma.h"
 1088              		.file 6 "chibios/os/ports/common/ARMCMx/CMSIS/include/core_cm4.h"
 1089              		.file 7 "chibios/os/ports/GCC/ARMCMx/chcore_v7m.h"
 1090              		.file 8 "chibios/os/ports/common/ARMCMx/nvic.h"
 1091              		.section	.debug_info,"",%progbits
 1092              	.Ldebug_info0:
 1093 0000 91080000 		.4byte	0x891
 1094 0004 0200     		.2byte	0x2
 1095 0006 00000000 		.4byte	.Ldebug_abbrev0
 1096 000a 04       		.byte	0x4
 1097 000b 01       		.uleb128 0x1
 1098 000c 53010000 		.4byte	.LASF140
 1099 0010 01       		.byte	0x1
 1100 0011 23060000 		.4byte	.LASF141
 1101 0015 10000000 		.4byte	.LASF142
 1102 0019 00000000 		.4byte	.Ldebug_ranges0+0
 1103 001d 00000000 		.4byte	0
 1104 0021 00000000 		.4byte	0
 1105 0025 00000000 		.4byte	.Ldebug_line0
 1106 0029 02       		.uleb128 0x2
 1107 002a 04       		.byte	0x4
 1108 002b 05       		.byte	0x5
 1109 002c 696E7400 		.ascii	"int\000"
 1110 0030 03       		.uleb128 0x3
 1111 0031 04       		.byte	0x4
 1112 0032 07       		.byte	0x7
 1113 0033 4B020000 		.4byte	.LASF0
 1114 0037 03       		.uleb128 0x3
 1115 0038 01       		.byte	0x1
 1116 0039 06       		.byte	0x6
 1117 003a 39010000 		.4byte	.LASF1
 1118 003e 04       		.uleb128 0x4
 1119 003f DD060000 		.4byte	.LASF5
 1120 0043 02       		.byte	0x2
 1121 0044 2A       		.byte	0x2a
 1122 0045 49000000 		.4byte	0x49
 1123 0049 03       		.uleb128 0x3
ARM GAS  /tmp/ccUacns9.s 			page 21


 1124 004a 01       		.byte	0x1
 1125 004b 08       		.byte	0x8
 1126 004c 86040000 		.4byte	.LASF2
 1127 0050 03       		.uleb128 0x3
 1128 0051 02       		.byte	0x2
 1129 0052 05       		.byte	0x5
 1130 0053 D2040000 		.4byte	.LASF3
 1131 0057 03       		.uleb128 0x3
 1132 0058 02       		.byte	0x2
 1133 0059 07       		.byte	0x7
 1134 005a E7020000 		.4byte	.LASF4
 1135 005e 04       		.uleb128 0x4
 1136 005f 7E040000 		.4byte	.LASF6
 1137 0063 02       		.byte	0x2
 1138 0064 4F       		.byte	0x4f
 1139 0065 69000000 		.4byte	0x69
 1140 0069 03       		.uleb128 0x3
 1141 006a 04       		.byte	0x4
 1142 006b 05       		.byte	0x5
 1143 006c 9C010000 		.4byte	.LASF7
 1144 0070 04       		.uleb128 0x4
 1145 0071 D0010000 		.4byte	.LASF8
 1146 0075 02       		.byte	0x2
 1147 0076 50       		.byte	0x50
 1148 0077 7B000000 		.4byte	0x7b
 1149 007b 03       		.uleb128 0x3
 1150 007c 04       		.byte	0x4
 1151 007d 07       		.byte	0x7
 1152 007e 9B020000 		.4byte	.LASF9
 1153 0082 03       		.uleb128 0x3
 1154 0083 08       		.byte	0x8
 1155 0084 05       		.byte	0x5
 1156 0085 2B010000 		.4byte	.LASF10
 1157 0089 03       		.uleb128 0x3
 1158 008a 08       		.byte	0x8
 1159 008b 07       		.byte	0x7
 1160 008c 98000000 		.4byte	.LASF11
 1161 0090 04       		.uleb128 0x4
 1162 0091 45010000 		.4byte	.LASF12
 1163 0095 03       		.byte	0x3
 1164 0096 24       		.byte	0x24
 1165 0097 9B000000 		.4byte	0x9b
 1166 009b 03       		.uleb128 0x3
 1167 009c 01       		.byte	0x1
 1168 009d 02       		.byte	0x2
 1169 009e 78040000 		.4byte	.LASF13
 1170 00a2 05       		.uleb128 0x5
 1171 00a3 04       		.byte	0x4
 1172 00a4 06       		.uleb128 0x6
 1173 00a5 70000000 		.4byte	0x70
 1174 00a9 03       		.uleb128 0x3
 1175 00aa 04       		.byte	0x4
 1176 00ab 07       		.byte	0x7
 1177 00ac 8A030000 		.4byte	.LASF14
 1178 00b0 03       		.uleb128 0x3
 1179 00b1 01       		.byte	0x1
 1180 00b2 08       		.byte	0x8
ARM GAS  /tmp/ccUacns9.s 			page 22


 1181 00b3 AE050000 		.4byte	.LASF15
 1182 00b7 07       		.uleb128 0x7
 1183 00b8 64030000 		.4byte	.LASF143
 1184 00bc 01       		.byte	0x1
 1185 00bd 04       		.byte	0x4
 1186 00be A5       		.byte	0xa5
 1187 00bf 87020000 		.4byte	0x287
 1188 00c3 08       		.uleb128 0x8
 1189 00c4 D7050000 		.4byte	.LASF16
 1190 00c8 72       		.sleb128 -14
 1191 00c9 08       		.uleb128 0x8
 1192 00ca 3A040000 		.4byte	.LASF17
 1193 00ce 74       		.sleb128 -12
 1194 00cf 08       		.uleb128 0x8
 1195 00d0 27020000 		.4byte	.LASF18
 1196 00d4 75       		.sleb128 -11
 1197 00d5 08       		.uleb128 0x8
 1198 00d6 75050000 		.4byte	.LASF19
 1199 00da 76       		.sleb128 -10
 1200 00db 08       		.uleb128 0x8
 1201 00dc A0030000 		.4byte	.LASF20
 1202 00e0 7B       		.sleb128 -5
 1203 00e1 08       		.uleb128 0x8
 1204 00e2 61060000 		.4byte	.LASF21
 1205 00e6 7C       		.sleb128 -4
 1206 00e7 08       		.uleb128 0x8
 1207 00e8 08020000 		.4byte	.LASF22
 1208 00ec 7E       		.sleb128 -2
 1209 00ed 08       		.uleb128 0x8
 1210 00ee 3B030000 		.4byte	.LASF23
 1211 00f2 7F       		.sleb128 -1
 1212 00f3 08       		.uleb128 0x8
 1213 00f4 10010000 		.4byte	.LASF24
 1214 00f8 00       		.sleb128 0
 1215 00f9 08       		.uleb128 0x8
 1216 00fa 58000000 		.4byte	.LASF25
 1217 00fe 01       		.sleb128 1
 1218 00ff 08       		.uleb128 0x8
 1219 0100 50070000 		.4byte	.LASF26
 1220 0104 02       		.sleb128 2
 1221 0105 08       		.uleb128 0x8
 1222 0106 02010000 		.4byte	.LASF27
 1223 010a 03       		.sleb128 3
 1224 010b 08       		.uleb128 0x8
 1225 010c 34050000 		.4byte	.LASF28
 1226 0110 04       		.sleb128 4
 1227 0111 08       		.uleb128 0x8
 1228 0112 8C070000 		.4byte	.LASF29
 1229 0116 05       		.sleb128 5
 1230 0117 08       		.uleb128 0x8
 1231 0118 A8060000 		.4byte	.LASF30
 1232 011c 06       		.sleb128 6
 1233 011d 08       		.uleb128 0x8
 1234 011e A6070000 		.4byte	.LASF31
 1235 0122 07       		.sleb128 7
 1236 0123 08       		.uleb128 0x8
 1237 0124 DC040000 		.4byte	.LASF32
ARM GAS  /tmp/ccUacns9.s 			page 23


 1238 0128 08       		.sleb128 8
 1239 0129 08       		.uleb128 0x8
 1240 012a E5030000 		.4byte	.LASF33
 1241 012e 09       		.sleb128 9
 1242 012f 08       		.uleb128 0x8
 1243 0130 C7040000 		.4byte	.LASF34
 1244 0134 0A       		.sleb128 10
 1245 0135 08       		.uleb128 0x8
 1246 0136 27040000 		.4byte	.LASF35
 1247 013a 0B       		.sleb128 11
 1248 013b 08       		.uleb128 0x8
 1249 013c 69030000 		.4byte	.LASF36
 1250 0140 0C       		.sleb128 12
 1251 0141 08       		.uleb128 0x8
 1252 0142 BD010000 		.4byte	.LASF37
 1253 0146 0D       		.sleb128 13
 1254 0147 08       		.uleb128 0x8
 1255 0148 14020000 		.4byte	.LASF38
 1256 014c 0E       		.sleb128 14
 1257 014d 08       		.uleb128 0x8
 1258 014e D4020000 		.4byte	.LASF39
 1259 0152 0F       		.sleb128 15
 1260 0153 08       		.uleb128 0x8
 1261 0154 EB050000 		.4byte	.LASF40
 1262 0158 10       		.sleb128 16
 1263 0159 08       		.uleb128 0x8
 1264 015a 1C030000 		.4byte	.LASF41
 1265 015e 11       		.sleb128 17
 1266 015f 08       		.uleb128 0x8
 1267 0160 D9010000 		.4byte	.LASF42
 1268 0164 12       		.sleb128 18
 1269 0165 08       		.uleb128 0x8
 1270 0166 A6040000 		.4byte	.LASF43
 1271 016a 13       		.sleb128 19
 1272 016b 08       		.uleb128 0x8
 1273 016c F5040000 		.4byte	.LASF44
 1274 0170 14       		.sleb128 20
 1275 0171 08       		.uleb128 0x8
 1276 0172 8A000000 		.4byte	.LASF45
 1277 0176 15       		.sleb128 21
 1278 0177 08       		.uleb128 0x8
 1279 0178 6C070000 		.4byte	.LASF46
 1280 017c 16       		.sleb128 22
 1281 017d 08       		.uleb128 0x8
 1282 017e 61000000 		.4byte	.LASF47
 1283 0182 17       		.sleb128 23
 1284 0183 08       		.uleb128 0x8
 1285 0184 EB060000 		.4byte	.LASF48
 1286 0188 18       		.sleb128 24
 1287 0189 08       		.uleb128 0x8
 1288 018a 3F050000 		.4byte	.LASF49
 1289 018e 19       		.sleb128 25
 1290 018f 08       		.uleb128 0x8
 1291 0190 40000000 		.4byte	.LASF50
 1292 0194 1A       		.sleb128 26
 1293 0195 08       		.uleb128 0x8
 1294 0196 48030000 		.4byte	.LASF51
ARM GAS  /tmp/ccUacns9.s 			page 24


 1295 019a 1B       		.sleb128 27
 1296 019b 08       		.uleb128 0x8
 1297 019c 91060000 		.4byte	.LASF52
 1298 01a0 1C       		.sleb128 28
 1299 01a1 08       		.uleb128 0x8
 1300 01a2 95070000 		.4byte	.LASF53
 1301 01a6 1D       		.sleb128 29
 1302 01a7 08       		.uleb128 0x8
 1303 01a8 F8000000 		.4byte	.LASF54
 1304 01ac 1E       		.sleb128 30
 1305 01ad 08       		.uleb128 0x8
 1306 01ae 73000000 		.4byte	.LASF55
 1307 01b2 1F       		.sleb128 31
 1308 01b3 08       		.uleb128 0x8
 1309 01b4 39070000 		.4byte	.LASF56
 1310 01b8 20       		.sleb128 32
 1311 01b9 08       		.uleb128 0x8
 1312 01ba AC030000 		.4byte	.LASF57
 1313 01be 21       		.sleb128 33
 1314 01bf 08       		.uleb128 0x8
 1315 01c0 EB000000 		.4byte	.LASF58
 1316 01c4 22       		.sleb128 34
 1317 01c5 08       		.uleb128 0x8
 1318 01c6 09030000 		.4byte	.LASF59
 1319 01ca 23       		.sleb128 35
 1320 01cb 08       		.uleb128 0x8
 1321 01cc F0030000 		.4byte	.LASF60
 1322 01d0 24       		.sleb128 36
 1323 01d1 08       		.uleb128 0x8
 1324 01d2 50040000 		.4byte	.LASF61
 1325 01d6 25       		.sleb128 37
 1326 01d7 08       		.uleb128 0x8
 1327 01d8 69050000 		.4byte	.LASF62
 1328 01dc 26       		.sleb128 38
 1329 01dd 08       		.uleb128 0x8
 1330 01de 7C060000 		.4byte	.LASF63
 1331 01e2 27       		.sleb128 39
 1332 01e3 08       		.uleb128 0x8
 1333 01e4 FA020000 		.4byte	.LASF64
 1334 01e8 28       		.sleb128 40
 1335 01e9 08       		.uleb128 0x8
 1336 01ea C2000000 		.4byte	.LASF65
 1337 01ee 29       		.sleb128 41
 1338 01ef 08       		.uleb128 0x8
 1339 01f0 52060000 		.4byte	.LASF66
 1340 01f4 2A       		.sleb128 42
 1341 01f5 08       		.uleb128 0x8
 1342 01f6 7C030000 		.4byte	.LASF67
 1343 01fa 2B       		.sleb128 43
 1344 01fb 08       		.uleb128 0x8
 1345 01fc 9B060000 		.4byte	.LASF68
 1346 0200 2C       		.sleb128 44
 1347 0201 08       		.uleb128 0x8
 1348 0202 94040000 		.4byte	.LASF69
 1349 0206 2D       		.sleb128 45
 1350 0207 08       		.uleb128 0x8
 1351 0208 93030000 		.4byte	.LASF70
ARM GAS  /tmp/ccUacns9.s 			page 25


 1352 020c 2E       		.sleb128 46
 1353 020d 08       		.uleb128 0x8
 1354 020e B3010000 		.4byte	.LASF71
 1355 0212 2F       		.sleb128 47
 1356 0213 08       		.uleb128 0x8
 1357 0214 46070000 		.4byte	.LASF72
 1358 0218 33       		.sleb128 51
 1359 0219 08       		.uleb128 0x8
 1360 021a F3010000 		.4byte	.LASF73
 1361 021e 34       		.sleb128 52
 1362 021f 08       		.uleb128 0x8
 1363 0220 EA040000 		.4byte	.LASF74
 1364 0224 35       		.sleb128 53
 1365 0225 08       		.uleb128 0x8
 1366 0226 E5010000 		.4byte	.LASF75
 1367 022a 36       		.sleb128 54
 1368 022b 08       		.uleb128 0x8
 1369 022c CD050000 		.4byte	.LASF76
 1370 0230 37       		.sleb128 55
 1371 0231 08       		.uleb128 0x8
 1372 0232 AF000000 		.4byte	.LASF77
 1373 0236 38       		.sleb128 56
 1374 0237 08       		.uleb128 0x8
 1375 0238 B9030000 		.4byte	.LASF78
 1376 023c 39       		.sleb128 57
 1377 023d 08       		.uleb128 0x8
 1378 023e 03040000 		.4byte	.LASF79
 1379 0242 3A       		.sleb128 58
 1380 0243 08       		.uleb128 0x8
 1381 0244 6A020000 		.4byte	.LASF80
 1382 0248 3B       		.sleb128 59
 1383 0249 08       		.uleb128 0x8
 1384 024a CC030000 		.4byte	.LASF81
 1385 024e 3C       		.sleb128 60
 1386 024f 08       		.uleb128 0x8
 1387 0250 7D020000 		.4byte	.LASF82
 1388 0254 3D       		.sleb128 61
 1389 0255 08       		.uleb128 0x8
 1390 0256 0A050000 		.4byte	.LASF83
 1391 025a C000     		.sleb128 64
 1392 025c 08       		.uleb128 0x8
 1393 025d 55030000 		.4byte	.LASF84
 1394 0261 C100     		.sleb128 65
 1395 0263 08       		.uleb128 0x8
 1396 0264 19050000 		.4byte	.LASF85
 1397 0268 C200     		.sleb128 66
 1398 026a 08       		.uleb128 0x8
 1399 026b 2F030000 		.4byte	.LASF86
 1400 026f CA00     		.sleb128 74
 1401 0271 08       		.uleb128 0x8
 1402 0272 06060000 		.4byte	.LASF87
 1403 0276 CB00     		.sleb128 75
 1404 0278 08       		.uleb128 0x8
 1405 0279 8E050000 		.4byte	.LASF88
 1406 027d CC00     		.sleb128 76
 1407 027f 08       		.uleb128 0x8
 1408 0280 17070000 		.4byte	.LASF89
ARM GAS  /tmp/ccUacns9.s 			page 26


 1409 0284 D100     		.sleb128 81
 1410 0286 00       		.byte	0
 1411 0287 06       		.uleb128 0x6
 1412 0288 5E000000 		.4byte	0x5e
 1413 028c 09       		.uleb128 0x9
 1414 028d 10       		.byte	0x10
 1415 028e 04       		.byte	0x4
 1416 028f E501     		.2byte	0x1e5
 1417 0291 D2020000 		.4byte	0x2d2
 1418 0295 0A       		.uleb128 0xa
 1419 0296 43435200 		.ascii	"CCR\000"
 1420 029a 04       		.byte	0x4
 1421 029b E701     		.2byte	0x1e7
 1422 029d A4000000 		.4byte	0xa4
 1423 02a1 02       		.byte	0x2
 1424 02a2 23       		.byte	0x23
 1425 02a3 00       		.uleb128 0
 1426 02a4 0B       		.uleb128 0xb
 1427 02a5 B3060000 		.4byte	.LASF90
 1428 02a9 04       		.byte	0x4
 1429 02aa E801     		.2byte	0x1e8
 1430 02ac A4000000 		.4byte	0xa4
 1431 02b0 02       		.byte	0x2
 1432 02b1 23       		.byte	0x23
 1433 02b2 04       		.uleb128 0x4
 1434 02b3 0B       		.uleb128 0xb
 1435 02b4 87020000 		.4byte	.LASF91
 1436 02b8 04       		.byte	0x4
 1437 02b9 E901     		.2byte	0x1e9
 1438 02bb A4000000 		.4byte	0xa4
 1439 02bf 02       		.byte	0x2
 1440 02c0 23       		.byte	0x23
 1441 02c1 08       		.uleb128 0x8
 1442 02c2 0B       		.uleb128 0xb
 1443 02c3 6E000000 		.4byte	.LASF92
 1444 02c7 04       		.byte	0x4
 1445 02c8 EA01     		.2byte	0x1ea
 1446 02ca A4000000 		.4byte	0xa4
 1447 02ce 02       		.byte	0x2
 1448 02cf 23       		.byte	0x23
 1449 02d0 0C       		.uleb128 0xc
 1450 02d1 00       		.byte	0
 1451 02d2 0C       		.uleb128 0xc
 1452 02d3 B9020000 		.4byte	.LASF93
 1453 02d7 04       		.byte	0x4
 1454 02d8 EB01     		.2byte	0x1eb
 1455 02da 8C020000 		.4byte	0x28c
 1456 02de 09       		.uleb128 0x9
 1457 02df 08       		.byte	0x8
 1458 02e0 04       		.byte	0x4
 1459 02e1 ED01     		.2byte	0x1ed
 1460 02e3 06030000 		.4byte	0x306
 1461 02e7 0A       		.uleb128 0xa
 1462 02e8 49535200 		.ascii	"ISR\000"
 1463 02ec 04       		.byte	0x4
 1464 02ed EF01     		.2byte	0x1ef
 1465 02ef A4000000 		.4byte	0xa4
ARM GAS  /tmp/ccUacns9.s 			page 27


 1466 02f3 02       		.byte	0x2
 1467 02f4 23       		.byte	0x23
 1468 02f5 00       		.uleb128 0
 1469 02f6 0B       		.uleb128 0xb
 1470 02f7 A9050000 		.4byte	.LASF94
 1471 02fb 04       		.byte	0x4
 1472 02fc F001     		.2byte	0x1f0
 1473 02fe A4000000 		.4byte	0xa4
 1474 0302 02       		.byte	0x2
 1475 0303 23       		.byte	0x23
 1476 0304 04       		.uleb128 0x4
 1477 0305 00       		.byte	0
 1478 0306 0C       		.uleb128 0xc
 1479 0307 3F020000 		.4byte	.LASF95
 1480 030b 04       		.byte	0x4
 1481 030c F101     		.2byte	0x1f1
 1482 030e DE020000 		.4byte	0x2de
 1483 0312 09       		.uleb128 0x9
 1484 0313 34       		.byte	0x34
 1485 0314 04       		.byte	0x4
 1486 0315 8502     		.2byte	0x285
 1487 0317 DE030000 		.4byte	0x3de
 1488 031b 0A       		.uleb128 0xa
 1489 031c 435200   		.ascii	"CR\000"
 1490 031f 04       		.byte	0x4
 1491 0320 8702     		.2byte	0x287
 1492 0322 A4000000 		.4byte	0xa4
 1493 0326 02       		.byte	0x2
 1494 0327 23       		.byte	0x23
 1495 0328 00       		.uleb128 0
 1496 0329 0B       		.uleb128 0xb
 1497 032a 20070000 		.4byte	.LASF96
 1498 032e 04       		.byte	0x4
 1499 032f 8802     		.2byte	0x288
 1500 0331 A4000000 		.4byte	0xa4
 1501 0335 02       		.byte	0x2
 1502 0336 23       		.byte	0x23
 1503 0337 04       		.uleb128 0x4
 1504 0338 0A       		.uleb128 0xa
 1505 0339 43495200 		.ascii	"CIR\000"
 1506 033d 04       		.byte	0x4
 1507 033e 8902     		.2byte	0x289
 1508 0340 A4000000 		.4byte	0xa4
 1509 0344 02       		.byte	0x2
 1510 0345 23       		.byte	0x23
 1511 0346 08       		.uleb128 0x8
 1512 0347 0B       		.uleb128 0xb
 1513 0348 A5010000 		.4byte	.LASF97
 1514 034c 04       		.byte	0x4
 1515 034d 8A02     		.2byte	0x28a
 1516 034f A4000000 		.4byte	0xa4
 1517 0353 02       		.byte	0x2
 1518 0354 23       		.byte	0x23
 1519 0355 0C       		.uleb128 0xc
 1520 0356 0B       		.uleb128 0xb
 1521 0357 1E040000 		.4byte	.LASF98
 1522 035b 04       		.byte	0x4
ARM GAS  /tmp/ccUacns9.s 			page 28


 1523 035c 8B02     		.2byte	0x28b
 1524 035e A4000000 		.4byte	0xa4
 1525 0362 02       		.byte	0x2
 1526 0363 23       		.byte	0x23
 1527 0364 10       		.uleb128 0x10
 1528 0365 0B       		.uleb128 0xb
 1529 0366 9F070000 		.4byte	.LASF99
 1530 036a 04       		.byte	0x4
 1531 036b 8C02     		.2byte	0x28c
 1532 036d A4000000 		.4byte	0xa4
 1533 0371 02       		.byte	0x2
 1534 0372 23       		.byte	0x23
 1535 0373 14       		.uleb128 0x14
 1536 0374 0B       		.uleb128 0xb
 1537 0375 24050000 		.4byte	.LASF100
 1538 0379 04       		.byte	0x4
 1539 037a 8D02     		.2byte	0x28d
 1540 037c A4000000 		.4byte	0xa4
 1541 0380 02       		.byte	0x2
 1542 0381 23       		.byte	0x23
 1543 0382 18       		.uleb128 0x18
 1544 0383 0B       		.uleb128 0xb
 1545 0384 FE050000 		.4byte	.LASF101
 1546 0388 04       		.byte	0x4
 1547 0389 8E02     		.2byte	0x28e
 1548 038b A4000000 		.4byte	0xa4
 1549 038f 02       		.byte	0x2
 1550 0390 23       		.byte	0x23
 1551 0391 1C       		.uleb128 0x1c
 1552 0392 0B       		.uleb128 0xb
 1553 0393 B9060000 		.4byte	.LASF102
 1554 0397 04       		.byte	0x4
 1555 0398 8F02     		.2byte	0x28f
 1556 039a A4000000 		.4byte	0xa4
 1557 039e 02       		.byte	0x2
 1558 039f 23       		.byte	0x23
 1559 03a0 20       		.uleb128 0x20
 1560 03a1 0A       		.uleb128 0xa
 1561 03a2 43535200 		.ascii	"CSR\000"
 1562 03a6 04       		.byte	0x4
 1563 03a7 9002     		.2byte	0x290
 1564 03a9 A4000000 		.4byte	0xa4
 1565 03ad 02       		.byte	0x2
 1566 03ae 23       		.byte	0x23
 1567 03af 24       		.uleb128 0x24
 1568 03b0 0B       		.uleb128 0xb
 1569 03b1 16040000 		.4byte	.LASF103
 1570 03b5 04       		.byte	0x4
 1571 03b6 9102     		.2byte	0x291
 1572 03b8 A4000000 		.4byte	0xa4
 1573 03bc 02       		.byte	0x2
 1574 03bd 23       		.byte	0x23
 1575 03be 28       		.uleb128 0x28
 1576 03bf 0B       		.uleb128 0xb
 1577 03c0 D1060000 		.4byte	.LASF104
 1578 03c4 04       		.byte	0x4
 1579 03c5 9202     		.2byte	0x292
ARM GAS  /tmp/ccUacns9.s 			page 29


 1580 03c7 A4000000 		.4byte	0xa4
 1581 03cb 02       		.byte	0x2
 1582 03cc 23       		.byte	0x23
 1583 03cd 2C       		.uleb128 0x2c
 1584 03ce 0B       		.uleb128 0xb
 1585 03cf D7060000 		.4byte	.LASF105
 1586 03d3 04       		.byte	0x4
 1587 03d4 9302     		.2byte	0x293
 1588 03d6 A4000000 		.4byte	0xa4
 1589 03da 02       		.byte	0x2
 1590 03db 23       		.byte	0x23
 1591 03dc 30       		.uleb128 0x30
 1592 03dd 00       		.byte	0
 1593 03de 0C       		.uleb128 0xc
 1594 03df AD020000 		.4byte	.LASF106
 1595 03e3 04       		.byte	0x4
 1596 03e4 9402     		.2byte	0x294
 1597 03e6 12030000 		.4byte	0x312
 1598 03ea 0D       		.uleb128 0xd
 1599 03eb 0C       		.byte	0xc
 1600 03ec 05       		.byte	0x5
 1601 03ed C1       		.byte	0xc1
 1602 03ee 39040000 		.4byte	0x439
 1603 03f2 0E       		.uleb128 0xe
 1604 03f3 2C050000 		.4byte	.LASF107
 1605 03f7 05       		.byte	0x5
 1606 03f8 C2       		.byte	0xc2
 1607 03f9 39040000 		.4byte	0x439
 1608 03fd 02       		.byte	0x2
 1609 03fe 23       		.byte	0x23
 1610 03ff 00       		.uleb128 0
 1611 0400 0E       		.uleb128 0xe
 1612 0401 52050000 		.4byte	.LASF108
 1613 0405 05       		.byte	0x5
 1614 0406 C3       		.byte	0xc3
 1615 0407 3F040000 		.4byte	0x43f
 1616 040b 02       		.byte	0x2
 1617 040c 23       		.byte	0x23
 1618 040d 04       		.uleb128 0x4
 1619 040e 0E       		.uleb128 0xe
 1620 040f CD020000 		.4byte	.LASF109
 1621 0413 05       		.byte	0x5
 1622 0414 C4       		.byte	0xc4
 1623 0415 3E000000 		.4byte	0x3e
 1624 0419 02       		.byte	0x2
 1625 041a 23       		.byte	0x23
 1626 041b 08       		.uleb128 0x8
 1627 041c 0E       		.uleb128 0xe
 1628 041d 35020000 		.4byte	.LASF110
 1629 0421 05       		.byte	0x5
 1630 0422 C6       		.byte	0xc6
 1631 0423 3E000000 		.4byte	0x3e
 1632 0427 02       		.byte	0x2
 1633 0428 23       		.byte	0x23
 1634 0429 09       		.uleb128 0x9
 1635 042a 0E       		.uleb128 0xe
 1636 042b D1000000 		.4byte	.LASF111
ARM GAS  /tmp/ccUacns9.s 			page 30


 1637 042f 05       		.byte	0x5
 1638 0430 C7       		.byte	0xc7
 1639 0431 3E000000 		.4byte	0x3e
 1640 0435 02       		.byte	0x2
 1641 0436 23       		.byte	0x23
 1642 0437 0A       		.uleb128 0xa
 1643 0438 00       		.byte	0
 1644 0439 0F       		.uleb128 0xf
 1645 043a 04       		.byte	0x4
 1646 043b D2020000 		.4byte	0x2d2
 1647 043f 0F       		.uleb128 0xf
 1648 0440 04       		.byte	0x4
 1649 0441 A4000000 		.4byte	0xa4
 1650 0445 04       		.uleb128 0x4
 1651 0446 5C040000 		.4byte	.LASF112
 1652 044a 05       		.byte	0x5
 1653 044b C8       		.byte	0xc8
 1654 044c EA030000 		.4byte	0x3ea
 1655 0450 04       		.uleb128 0x4
 1656 0451 8C020000 		.4byte	.LASF113
 1657 0455 05       		.byte	0x5
 1658 0456 D1       		.byte	0xd1
 1659 0457 5B040000 		.4byte	0x45b
 1660 045b 0F       		.uleb128 0xf
 1661 045c 04       		.byte	0x4
 1662 045d 61040000 		.4byte	0x461
 1663 0461 10       		.uleb128 0x10
 1664 0462 01       		.byte	0x1
 1665 0463 72040000 		.4byte	0x472
 1666 0467 11       		.uleb128 0x11
 1667 0468 A2000000 		.4byte	0xa2
 1668 046c 11       		.uleb128 0x11
 1669 046d 70000000 		.4byte	0x70
 1670 0471 00       		.byte	0
 1671 0472 0F       		.uleb128 0xf
 1672 0473 04       		.byte	0x4
 1673 0474 78040000 		.4byte	0x478
 1674 0478 12       		.uleb128 0x12
 1675 0479 45040000 		.4byte	0x445
 1676 047d 0D       		.uleb128 0xd
 1677 047e 08       		.byte	0x8
 1678 047f 01       		.byte	0x1
 1679 0480 5B       		.byte	0x5b
 1680 0481 A2040000 		.4byte	0x4a2
 1681 0485 0E       		.uleb128 0xe
 1682 0486 FA030000 		.4byte	.LASF114
 1683 048a 01       		.byte	0x1
 1684 048b 5C       		.byte	0x5c
 1685 048c 50040000 		.4byte	0x450
 1686 0490 02       		.byte	0x2
 1687 0491 23       		.byte	0x23
 1688 0492 00       		.uleb128 0
 1689 0493 0E       		.uleb128 0xe
 1690 0494 FE010000 		.4byte	.LASF115
 1691 0498 01       		.byte	0x1
 1692 0499 5D       		.byte	0x5d
 1693 049a A2000000 		.4byte	0xa2
ARM GAS  /tmp/ccUacns9.s 			page 31


 1694 049e 02       		.byte	0x2
 1695 049f 23       		.byte	0x23
 1696 04a0 04       		.uleb128 0x4
 1697 04a1 00       		.byte	0
 1698 04a2 04       		.uleb128 0x4
 1699 04a3 00000000 		.4byte	.LASF116
 1700 04a7 01       		.byte	0x1
 1701 04a8 5E       		.byte	0x5e
 1702 04a9 7D040000 		.4byte	0x47d
 1703 04ad 13       		.uleb128 0x13
 1704 04ae 01       		.byte	0x1
 1705 04af 6F040000 		.4byte	.LASF117
 1706 04b3 01       		.byte	0x1
 1707 04b4 77       		.byte	0x77
 1708 04b5 01       		.byte	0x1
 1709 04b6 00000000 		.4byte	.LFB118
 1710 04ba 28000000 		.4byte	.LFE118
 1711 04be 00000000 		.4byte	.LLST0
 1712 04c2 01       		.byte	0x1
 1713 04c3 E1040000 		.4byte	0x4e1
 1714 04c7 14       		.uleb128 0x14
 1715 04c8 E5060000 		.4byte	.LASF119
 1716 04cc 01       		.byte	0x1
 1717 04cd 78       		.byte	0x78
 1718 04ce 70000000 		.4byte	0x70
 1719 04d2 20000000 		.4byte	.LLST1
 1720 04d6 15       		.uleb128 0x15
 1721 04d7 22000000 		.4byte	.LVL2
 1722 04db 01       		.byte	0x1
 1723 04dc 5E080000 		.4byte	0x85e
 1724 04e0 00       		.byte	0
 1725 04e1 13       		.uleb128 0x13
 1726 04e2 01       		.byte	0x1
 1727 04e3 57050000 		.4byte	.LASF118
 1728 04e7 01       		.byte	0x1
 1729 04e8 89       		.byte	0x89
 1730 04e9 01       		.byte	0x1
 1731 04ea 00000000 		.4byte	.LFB119
 1732 04ee 28000000 		.4byte	.LFE119
 1733 04f2 33000000 		.4byte	.LLST2
 1734 04f6 01       		.byte	0x1
 1735 04f7 15050000 		.4byte	0x515
 1736 04fb 14       		.uleb128 0x14
 1737 04fc E5060000 		.4byte	.LASF119
 1738 0500 01       		.byte	0x1
 1739 0501 8A       		.byte	0x8a
 1740 0502 70000000 		.4byte	0x70
 1741 0506 53000000 		.4byte	.LLST3
 1742 050a 15       		.uleb128 0x15
 1743 050b 24000000 		.4byte	.LVL5
 1744 050f 01       		.byte	0x1
 1745 0510 5E080000 		.4byte	0x85e
 1746 0514 00       		.byte	0
 1747 0515 13       		.uleb128 0x13
 1748 0516 01       		.byte	0x1
 1749 0517 60050000 		.4byte	.LASF120
 1750 051b 01       		.byte	0x1
ARM GAS  /tmp/ccUacns9.s 			page 32


 1751 051c 9B       		.byte	0x9b
 1752 051d 01       		.byte	0x1
 1753 051e 00000000 		.4byte	.LFB120
 1754 0522 28000000 		.4byte	.LFE120
 1755 0526 66000000 		.4byte	.LLST4
 1756 052a 01       		.byte	0x1
 1757 052b 49050000 		.4byte	0x549
 1758 052f 14       		.uleb128 0x14
 1759 0530 E5060000 		.4byte	.LASF119
 1760 0534 01       		.byte	0x1
 1761 0535 9C       		.byte	0x9c
 1762 0536 70000000 		.4byte	0x70
 1763 053a 86000000 		.4byte	.LLST5
 1764 053e 15       		.uleb128 0x15
 1765 053f 24000000 		.4byte	.LVL8
 1766 0543 01       		.byte	0x1
 1767 0544 5E080000 		.4byte	0x85e
 1768 0548 00       		.byte	0
 1769 0549 13       		.uleb128 0x13
 1770 054a 01       		.byte	0x1
 1771 054b 85050000 		.4byte	.LASF121
 1772 054f 01       		.byte	0x1
 1773 0550 AD       		.byte	0xad
 1774 0551 01       		.byte	0x1
 1775 0552 00000000 		.4byte	.LFB121
 1776 0556 28000000 		.4byte	.LFE121
 1777 055a 99000000 		.4byte	.LLST6
 1778 055e 01       		.byte	0x1
 1779 055f 7D050000 		.4byte	0x57d
 1780 0563 14       		.uleb128 0x14
 1781 0564 E5060000 		.4byte	.LASF119
 1782 0568 01       		.byte	0x1
 1783 0569 AE       		.byte	0xae
 1784 056a 70000000 		.4byte	0x70
 1785 056e B9000000 		.4byte	.LLST7
 1786 0572 15       		.uleb128 0x15
 1787 0573 24000000 		.4byte	.LVL11
 1788 0577 01       		.byte	0x1
 1789 0578 5E080000 		.4byte	0x85e
 1790 057c 00       		.byte	0
 1791 057d 13       		.uleb128 0x13
 1792 057e 01       		.byte	0x1
 1793 057f C4050000 		.4byte	.LASF122
 1794 0583 01       		.byte	0x1
 1795 0584 BF       		.byte	0xbf
 1796 0585 01       		.byte	0x1
 1797 0586 00000000 		.4byte	.LFB122
 1798 058a 28000000 		.4byte	.LFE122
 1799 058e CC000000 		.4byte	.LLST8
 1800 0592 01       		.byte	0x1
 1801 0593 B1050000 		.4byte	0x5b1
 1802 0597 14       		.uleb128 0x14
 1803 0598 E5060000 		.4byte	.LASF119
 1804 059c 01       		.byte	0x1
 1805 059d C0       		.byte	0xc0
 1806 059e 70000000 		.4byte	0x70
 1807 05a2 EC000000 		.4byte	.LLST9
ARM GAS  /tmp/ccUacns9.s 			page 33


 1808 05a6 15       		.uleb128 0x15
 1809 05a7 24000000 		.4byte	.LVL14
 1810 05ab 01       		.byte	0x1
 1811 05ac 5E080000 		.4byte	0x85e
 1812 05b0 00       		.byte	0
 1813 05b1 13       		.uleb128 0x13
 1814 05b2 01       		.byte	0x1
 1815 05b3 73060000 		.4byte	.LASF123
 1816 05b7 01       		.byte	0x1
 1817 05b8 D1       		.byte	0xd1
 1818 05b9 01       		.byte	0x1
 1819 05ba 00000000 		.4byte	.LFB123
 1820 05be 28000000 		.4byte	.LFE123
 1821 05c2 FF000000 		.4byte	.LLST10
 1822 05c6 01       		.byte	0x1
 1823 05c7 E5050000 		.4byte	0x5e5
 1824 05cb 14       		.uleb128 0x14
 1825 05cc E5060000 		.4byte	.LASF119
 1826 05d0 01       		.byte	0x1
 1827 05d1 D2       		.byte	0xd2
 1828 05d2 70000000 		.4byte	0x70
 1829 05d6 1F010000 		.4byte	.LLST11
 1830 05da 15       		.uleb128 0x15
 1831 05db 24000000 		.4byte	.LVL17
 1832 05df 01       		.byte	0x1
 1833 05e0 5E080000 		.4byte	0x85e
 1834 05e4 00       		.byte	0
 1835 05e5 13       		.uleb128 0x13
 1836 05e6 01       		.byte	0x1
 1837 05e7 88060000 		.4byte	.LASF124
 1838 05eb 01       		.byte	0x1
 1839 05ec E3       		.byte	0xe3
 1840 05ed 01       		.byte	0x1
 1841 05ee 00000000 		.4byte	.LFB124
 1842 05f2 28000000 		.4byte	.LFE124
 1843 05f6 32010000 		.4byte	.LLST12
 1844 05fa 01       		.byte	0x1
 1845 05fb 19060000 		.4byte	0x619
 1846 05ff 14       		.uleb128 0x14
 1847 0600 E5060000 		.4byte	.LASF119
 1848 0604 01       		.byte	0x1
 1849 0605 E4       		.byte	0xe4
 1850 0606 70000000 		.4byte	0x70
 1851 060a 52010000 		.4byte	.LLST13
 1852 060e 15       		.uleb128 0x15
 1853 060f 24000000 		.4byte	.LVL20
 1854 0613 01       		.byte	0x1
 1855 0614 5E080000 		.4byte	0x85e
 1856 0618 00       		.byte	0
 1857 0619 13       		.uleb128 0x13
 1858 061a 01       		.byte	0x1
 1859 061b 0D070000 		.4byte	.LASF125
 1860 061f 01       		.byte	0x1
 1861 0620 F5       		.byte	0xf5
 1862 0621 01       		.byte	0x1
 1863 0622 00000000 		.4byte	.LFB125
 1864 0626 28000000 		.4byte	.LFE125
ARM GAS  /tmp/ccUacns9.s 			page 34


 1865 062a 65010000 		.4byte	.LLST14
 1866 062e 01       		.byte	0x1
 1867 062f 4D060000 		.4byte	0x64d
 1868 0633 14       		.uleb128 0x14
 1869 0634 E5060000 		.4byte	.LASF119
 1870 0638 01       		.byte	0x1
 1871 0639 F6       		.byte	0xf6
 1872 063a 70000000 		.4byte	0x70
 1873 063e 85010000 		.4byte	.LLST15
 1874 0642 15       		.uleb128 0x15
 1875 0643 24000000 		.4byte	.LVL23
 1876 0647 01       		.byte	0x1
 1877 0648 5E080000 		.4byte	0x85e
 1878 064c 00       		.byte	0
 1879 064d 16       		.uleb128 0x16
 1880 064e 01       		.byte	0x1
 1881 064f 25070000 		.4byte	.LASF126
 1882 0653 01       		.byte	0x1
 1883 0654 0701     		.2byte	0x107
 1884 0656 01       		.byte	0x1
 1885 0657 00000000 		.4byte	.LFB126
 1886 065b 2C000000 		.4byte	.LFE126
 1887 065f 98010000 		.4byte	.LLST16
 1888 0663 01       		.byte	0x1
 1889 0664 83060000 		.4byte	0x683
 1890 0668 17       		.uleb128 0x17
 1891 0669 E5060000 		.4byte	.LASF119
 1892 066d 01       		.byte	0x1
 1893 066e 0801     		.2byte	0x108
 1894 0670 70000000 		.4byte	0x70
 1895 0674 B8010000 		.4byte	.LLST17
 1896 0678 15       		.uleb128 0x15
 1897 0679 26000000 		.4byte	.LVL26
 1898 067d 01       		.byte	0x1
 1899 067e 5E080000 		.4byte	0x85e
 1900 0682 00       		.byte	0
 1901 0683 16       		.uleb128 0x16
 1902 0684 01       		.byte	0x1
 1903 0685 2F070000 		.4byte	.LASF127
 1904 0689 01       		.byte	0x1
 1905 068a 1901     		.2byte	0x119
 1906 068c 01       		.byte	0x1
 1907 068d 00000000 		.4byte	.LFB127
 1908 0691 2C000000 		.4byte	.LFE127
 1909 0695 CB010000 		.4byte	.LLST18
 1910 0699 01       		.byte	0x1
 1911 069a B9060000 		.4byte	0x6b9
 1912 069e 17       		.uleb128 0x17
 1913 069f E5060000 		.4byte	.LASF119
 1914 06a3 01       		.byte	0x1
 1915 06a4 1A01     		.2byte	0x11a
 1916 06a6 70000000 		.4byte	0x70
 1917 06aa EB010000 		.4byte	.LLST19
 1918 06ae 15       		.uleb128 0x15
 1919 06af 26000000 		.4byte	.LVL29
 1920 06b3 01       		.byte	0x1
 1921 06b4 5E080000 		.4byte	0x85e
ARM GAS  /tmp/ccUacns9.s 			page 35


 1922 06b8 00       		.byte	0
 1923 06b9 16       		.uleb128 0x16
 1924 06ba 01       		.byte	0x1
 1925 06bb 62070000 		.4byte	.LASF128
 1926 06bf 01       		.byte	0x1
 1927 06c0 2B01     		.2byte	0x12b
 1928 06c2 01       		.byte	0x1
 1929 06c3 00000000 		.4byte	.LFB128
 1930 06c7 2C000000 		.4byte	.LFE128
 1931 06cb FE010000 		.4byte	.LLST20
 1932 06cf 01       		.byte	0x1
 1933 06d0 EF060000 		.4byte	0x6ef
 1934 06d4 17       		.uleb128 0x17
 1935 06d5 E5060000 		.4byte	.LASF119
 1936 06d9 01       		.byte	0x1
 1937 06da 2C01     		.2byte	0x12c
 1938 06dc 70000000 		.4byte	0x70
 1939 06e0 1E020000 		.4byte	.LLST21
 1940 06e4 15       		.uleb128 0x15
 1941 06e5 26000000 		.4byte	.LVL32
 1942 06e9 01       		.byte	0x1
 1943 06ea 5E080000 		.4byte	0x85e
 1944 06ee 00       		.byte	0
 1945 06ef 16       		.uleb128 0x16
 1946 06f0 01       		.byte	0x1
 1947 06f1 80000000 		.4byte	.LASF129
 1948 06f5 01       		.byte	0x1
 1949 06f6 3D01     		.2byte	0x13d
 1950 06f8 01       		.byte	0x1
 1951 06f9 00000000 		.4byte	.LFB129
 1952 06fd 2C000000 		.4byte	.LFE129
 1953 0701 31020000 		.4byte	.LLST22
 1954 0705 01       		.byte	0x1
 1955 0706 25070000 		.4byte	0x725
 1956 070a 17       		.uleb128 0x17
 1957 070b E5060000 		.4byte	.LASF119
 1958 070f 01       		.byte	0x1
 1959 0710 3E01     		.2byte	0x13e
 1960 0712 70000000 		.4byte	0x70
 1961 0716 51020000 		.4byte	.LLST23
 1962 071a 15       		.uleb128 0x15
 1963 071b 26000000 		.4byte	.LVL35
 1964 071f 01       		.byte	0x1
 1965 0720 5E080000 		.4byte	0x85e
 1966 0724 00       		.byte	0
 1967 0725 18       		.uleb128 0x18
 1968 0726 01       		.byte	0x1
 1969 0727 A1050000 		.4byte	.LASF130
 1970 072b 01       		.byte	0x1
 1971 072c 5301     		.2byte	0x153
 1972 072e 01       		.byte	0x1
 1973 072f 00000000 		.4byte	.LFB130
 1974 0733 E2000000 		.4byte	.LFE130
 1975 0737 64020000 		.4byte	.LLST24
 1976 073b 01       		.byte	0x1
 1977 073c 4F070000 		.4byte	0x74f
 1978 0740 19       		.uleb128 0x19
ARM GAS  /tmp/ccUacns9.s 			page 36


 1979 0741 6900     		.ascii	"i\000"
 1980 0743 01       		.byte	0x1
 1981 0744 5401     		.2byte	0x154
 1982 0746 29000000 		.4byte	0x29
 1983 074a 90020000 		.4byte	.LLST25
 1984 074e 00       		.byte	0
 1985 074f 1A       		.uleb128 0x1a
 1986 0750 01       		.byte	0x1
 1987 0751 7A070000 		.4byte	.LASF144
 1988 0755 01       		.byte	0x1
 1989 0756 7901     		.2byte	0x179
 1990 0758 01       		.byte	0x1
 1991 0759 90000000 		.4byte	0x90
 1992 075d 00000000 		.4byte	.LFB131
 1993 0761 94000000 		.4byte	.LFE131
 1994 0765 34030000 		.4byte	.LLST26
 1995 0769 01       		.byte	0x1
 1996 076a C2070000 		.4byte	0x7c2
 1997 076e 1B       		.uleb128 0x1b
 1998 076f 4C010000 		.4byte	.LASF131
 1999 0773 01       		.byte	0x1
 2000 0774 7901     		.2byte	0x179
 2001 0776 72040000 		.4byte	0x472
 2002 077a 54030000 		.4byte	.LLST27
 2003 077e 1B       		.uleb128 0x1b
 2004 077f 13030000 		.4byte	.LASF132
 2005 0783 01       		.byte	0x1
 2006 0784 7A01     		.2byte	0x17a
 2007 0786 70000000 		.4byte	0x70
 2008 078a A7030000 		.4byte	.LLST28
 2009 078e 1B       		.uleb128 0x1b
 2010 078f AE010000 		.4byte	.LASF133
 2011 0793 01       		.byte	0x1
 2012 0794 7B01     		.2byte	0x17b
 2013 0796 50040000 		.4byte	0x450
 2014 079a D3030000 		.4byte	.LLST29
 2015 079e 1B       		.uleb128 0x1b
 2016 079f DF030000 		.4byte	.LASF134
 2017 07a3 01       		.byte	0x1
 2018 07a4 7C01     		.2byte	0x17c
 2019 07a6 A2000000 		.4byte	0xa2
 2020 07aa FF030000 		.4byte	.LLST30
 2021 07ae 1C       		.uleb128 0x1c
 2022 07af 78000000 		.4byte	.LVL53
 2023 07b3 69080000 		.4byte	0x869
 2024 07b7 1D       		.uleb128 0x1d
 2025 07b8 01       		.byte	0x1
 2026 07b9 51       		.byte	0x51
 2027 07ba 05       		.byte	0x5
 2028 07bb F3       		.byte	0xf3
 2029 07bc 01       		.uleb128 0x1
 2030 07bd 51       		.byte	0x51
 2031 07be 34       		.byte	0x34
 2032 07bf 24       		.byte	0x24
 2033 07c0 00       		.byte	0
 2034 07c1 00       		.byte	0
 2035 07c2 18       		.uleb128 0x18
ARM GAS  /tmp/ccUacns9.s 			page 37


 2036 07c3 01       		.byte	0x1
 2037 07c4 B3050000 		.4byte	.LASF135
 2038 07c8 01       		.byte	0x1
 2039 07c9 A901     		.2byte	0x1a9
 2040 07cb 01       		.byte	0x1
 2041 07cc 00000000 		.4byte	.LFB132
 2042 07d0 4C000000 		.4byte	.LFE132
 2043 07d4 43040000 		.4byte	.LLST31
 2044 07d8 01       		.byte	0x1
 2045 07d9 F7070000 		.4byte	0x7f7
 2046 07dd 1B       		.uleb128 0x1b
 2047 07de 4C010000 		.4byte	.LASF131
 2048 07e2 01       		.byte	0x1
 2049 07e3 A901     		.2byte	0x1a9
 2050 07e5 72040000 		.4byte	0x472
 2051 07e9 63040000 		.4byte	.LLST32
 2052 07ed 1E       		.uleb128 0x1e
 2053 07ee 0A000000 		.4byte	.LVL60
 2054 07f2 83080000 		.4byte	0x883
 2055 07f6 00       		.byte	0
 2056 07f7 1F       		.uleb128 0x1f
 2057 07f8 12060000 		.4byte	.LASF136
 2058 07fc 01       		.byte	0x1
 2059 07fd 63       		.byte	0x63
 2060 07fe 70000000 		.4byte	0x70
 2061 0802 05       		.byte	0x5
 2062 0803 03       		.byte	0x3
 2063 0804 00000000 		.4byte	dma_streams_mask
 2064 0808 20       		.uleb128 0x20
 2065 0809 A2040000 		.4byte	0x4a2
 2066 080d 18080000 		.4byte	0x818
 2067 0811 21       		.uleb128 0x21
 2068 0812 A9000000 		.4byte	0xa9
 2069 0816 0B       		.byte	0xb
 2070 0817 00       		.byte	0
 2071 0818 1F       		.uleb128 0x1f
 2072 0819 FF060000 		.4byte	.LASF137
 2073 081d 01       		.byte	0x1
 2074 081e 68       		.byte	0x68
 2075 081f 08080000 		.4byte	0x808
 2076 0823 05       		.byte	0x5
 2077 0824 03       		.byte	0x3
 2078 0825 00000000 		.4byte	dma_isr_redir
 2079 0829 22       		.uleb128 0x22
 2080 082a BA040000 		.4byte	.LASF138
 2081 082e 06       		.byte	0x6
 2082 082f 9806     		.2byte	0x698
 2083 0831 87020000 		.4byte	0x287
 2084 0835 01       		.byte	0x1
 2085 0836 01       		.byte	0x1
 2086 0837 20       		.uleb128 0x20
 2087 0838 45040000 		.4byte	0x445
 2088 083c 47080000 		.4byte	0x847
 2089 0840 21       		.uleb128 0x21
 2090 0841 A9000000 		.4byte	0xa9
 2091 0845 0B       		.byte	0xb
 2092 0846 00       		.byte	0
ARM GAS  /tmp/ccUacns9.s 			page 38


 2093 0847 23       		.uleb128 0x23
 2094 0848 D8000000 		.4byte	.LASF139
 2095 084c 01       		.byte	0x1
 2096 084d 45       		.byte	0x45
 2097 084e 59080000 		.4byte	0x859
 2098 0852 01       		.byte	0x1
 2099 0853 05       		.byte	0x5
 2100 0854 03       		.byte	0x3
 2101 0855 00000000 		.4byte	_stm32_dma_streams
 2102 0859 12       		.uleb128 0x12
 2103 085a 37080000 		.4byte	0x837
 2104 085e 24       		.uleb128 0x24
 2105 085f 01       		.byte	0x1
 2106 0860 BE060000 		.4byte	.LASF145
 2107 0864 07       		.byte	0x7
 2108 0865 FC01     		.2byte	0x1fc
 2109 0867 01       		.byte	0x1
 2110 0868 01       		.byte	0x1
 2111 0869 25       		.uleb128 0x25
 2112 086a 01       		.byte	0x1
 2113 086b 1A010000 		.4byte	.LASF146
 2114 086f 08       		.byte	0x8
 2115 0870 1C01     		.2byte	0x11c
 2116 0872 01       		.byte	0x1
 2117 0873 01       		.byte	0x1
 2118 0874 83080000 		.4byte	0x883
 2119 0878 11       		.uleb128 0x11
 2120 0879 70000000 		.4byte	0x70
 2121 087d 11       		.uleb128 0x11
 2122 087e 70000000 		.4byte	0x70
 2123 0882 00       		.byte	0
 2124 0883 26       		.uleb128 0x26
 2125 0884 01       		.byte	0x1
 2126 0885 58020000 		.4byte	.LASF147
 2127 0889 08       		.byte	0x8
 2128 088a 1D01     		.2byte	0x11d
 2129 088c 01       		.byte	0x1
 2130 088d 01       		.byte	0x1
 2131 088e 11       		.uleb128 0x11
 2132 088f 70000000 		.4byte	0x70
 2133 0893 00       		.byte	0
 2134 0894 00       		.byte	0
 2135              		.section	.debug_abbrev,"",%progbits
 2136              	.Ldebug_abbrev0:
 2137 0000 01       		.uleb128 0x1
 2138 0001 11       		.uleb128 0x11
 2139 0002 01       		.byte	0x1
 2140 0003 25       		.uleb128 0x25
 2141 0004 0E       		.uleb128 0xe
 2142 0005 13       		.uleb128 0x13
 2143 0006 0B       		.uleb128 0xb
 2144 0007 03       		.uleb128 0x3
 2145 0008 0E       		.uleb128 0xe
 2146 0009 1B       		.uleb128 0x1b
 2147 000a 0E       		.uleb128 0xe
 2148 000b 55       		.uleb128 0x55
 2149 000c 06       		.uleb128 0x6
ARM GAS  /tmp/ccUacns9.s 			page 39


 2150 000d 11       		.uleb128 0x11
 2151 000e 01       		.uleb128 0x1
 2152 000f 52       		.uleb128 0x52
 2153 0010 01       		.uleb128 0x1
 2154 0011 10       		.uleb128 0x10
 2155 0012 06       		.uleb128 0x6
 2156 0013 00       		.byte	0
 2157 0014 00       		.byte	0
 2158 0015 02       		.uleb128 0x2
 2159 0016 24       		.uleb128 0x24
 2160 0017 00       		.byte	0
 2161 0018 0B       		.uleb128 0xb
 2162 0019 0B       		.uleb128 0xb
 2163 001a 3E       		.uleb128 0x3e
 2164 001b 0B       		.uleb128 0xb
 2165 001c 03       		.uleb128 0x3
 2166 001d 08       		.uleb128 0x8
 2167 001e 00       		.byte	0
 2168 001f 00       		.byte	0
 2169 0020 03       		.uleb128 0x3
 2170 0021 24       		.uleb128 0x24
 2171 0022 00       		.byte	0
 2172 0023 0B       		.uleb128 0xb
 2173 0024 0B       		.uleb128 0xb
 2174 0025 3E       		.uleb128 0x3e
 2175 0026 0B       		.uleb128 0xb
 2176 0027 03       		.uleb128 0x3
 2177 0028 0E       		.uleb128 0xe
 2178 0029 00       		.byte	0
 2179 002a 00       		.byte	0
 2180 002b 04       		.uleb128 0x4
 2181 002c 16       		.uleb128 0x16
 2182 002d 00       		.byte	0
 2183 002e 03       		.uleb128 0x3
 2184 002f 0E       		.uleb128 0xe
 2185 0030 3A       		.uleb128 0x3a
 2186 0031 0B       		.uleb128 0xb
 2187 0032 3B       		.uleb128 0x3b
 2188 0033 0B       		.uleb128 0xb
 2189 0034 49       		.uleb128 0x49
 2190 0035 13       		.uleb128 0x13
 2191 0036 00       		.byte	0
 2192 0037 00       		.byte	0
 2193 0038 05       		.uleb128 0x5
 2194 0039 0F       		.uleb128 0xf
 2195 003a 00       		.byte	0
 2196 003b 0B       		.uleb128 0xb
 2197 003c 0B       		.uleb128 0xb
 2198 003d 00       		.byte	0
 2199 003e 00       		.byte	0
 2200 003f 06       		.uleb128 0x6
 2201 0040 35       		.uleb128 0x35
 2202 0041 00       		.byte	0
 2203 0042 49       		.uleb128 0x49
 2204 0043 13       		.uleb128 0x13
 2205 0044 00       		.byte	0
 2206 0045 00       		.byte	0
ARM GAS  /tmp/ccUacns9.s 			page 40


 2207 0046 07       		.uleb128 0x7
 2208 0047 04       		.uleb128 0x4
 2209 0048 01       		.byte	0x1
 2210 0049 03       		.uleb128 0x3
 2211 004a 0E       		.uleb128 0xe
 2212 004b 0B       		.uleb128 0xb
 2213 004c 0B       		.uleb128 0xb
 2214 004d 3A       		.uleb128 0x3a
 2215 004e 0B       		.uleb128 0xb
 2216 004f 3B       		.uleb128 0x3b
 2217 0050 0B       		.uleb128 0xb
 2218 0051 01       		.uleb128 0x1
 2219 0052 13       		.uleb128 0x13
 2220 0053 00       		.byte	0
 2221 0054 00       		.byte	0
 2222 0055 08       		.uleb128 0x8
 2223 0056 28       		.uleb128 0x28
 2224 0057 00       		.byte	0
 2225 0058 03       		.uleb128 0x3
 2226 0059 0E       		.uleb128 0xe
 2227 005a 1C       		.uleb128 0x1c
 2228 005b 0D       		.uleb128 0xd
 2229 005c 00       		.byte	0
 2230 005d 00       		.byte	0
 2231 005e 09       		.uleb128 0x9
 2232 005f 13       		.uleb128 0x13
 2233 0060 01       		.byte	0x1
 2234 0061 0B       		.uleb128 0xb
 2235 0062 0B       		.uleb128 0xb
 2236 0063 3A       		.uleb128 0x3a
 2237 0064 0B       		.uleb128 0xb
 2238 0065 3B       		.uleb128 0x3b
 2239 0066 05       		.uleb128 0x5
 2240 0067 01       		.uleb128 0x1
 2241 0068 13       		.uleb128 0x13
 2242 0069 00       		.byte	0
 2243 006a 00       		.byte	0
 2244 006b 0A       		.uleb128 0xa
 2245 006c 0D       		.uleb128 0xd
 2246 006d 00       		.byte	0
 2247 006e 03       		.uleb128 0x3
 2248 006f 08       		.uleb128 0x8
 2249 0070 3A       		.uleb128 0x3a
 2250 0071 0B       		.uleb128 0xb
 2251 0072 3B       		.uleb128 0x3b
 2252 0073 05       		.uleb128 0x5
 2253 0074 49       		.uleb128 0x49
 2254 0075 13       		.uleb128 0x13
 2255 0076 38       		.uleb128 0x38
 2256 0077 0A       		.uleb128 0xa
 2257 0078 00       		.byte	0
 2258 0079 00       		.byte	0
 2259 007a 0B       		.uleb128 0xb
 2260 007b 0D       		.uleb128 0xd
 2261 007c 00       		.byte	0
 2262 007d 03       		.uleb128 0x3
 2263 007e 0E       		.uleb128 0xe
ARM GAS  /tmp/ccUacns9.s 			page 41


 2264 007f 3A       		.uleb128 0x3a
 2265 0080 0B       		.uleb128 0xb
 2266 0081 3B       		.uleb128 0x3b
 2267 0082 05       		.uleb128 0x5
 2268 0083 49       		.uleb128 0x49
 2269 0084 13       		.uleb128 0x13
 2270 0085 38       		.uleb128 0x38
 2271 0086 0A       		.uleb128 0xa
 2272 0087 00       		.byte	0
 2273 0088 00       		.byte	0
 2274 0089 0C       		.uleb128 0xc
 2275 008a 16       		.uleb128 0x16
 2276 008b 00       		.byte	0
 2277 008c 03       		.uleb128 0x3
 2278 008d 0E       		.uleb128 0xe
 2279 008e 3A       		.uleb128 0x3a
 2280 008f 0B       		.uleb128 0xb
 2281 0090 3B       		.uleb128 0x3b
 2282 0091 05       		.uleb128 0x5
 2283 0092 49       		.uleb128 0x49
 2284 0093 13       		.uleb128 0x13
 2285 0094 00       		.byte	0
 2286 0095 00       		.byte	0
 2287 0096 0D       		.uleb128 0xd
 2288 0097 13       		.uleb128 0x13
 2289 0098 01       		.byte	0x1
 2290 0099 0B       		.uleb128 0xb
 2291 009a 0B       		.uleb128 0xb
 2292 009b 3A       		.uleb128 0x3a
 2293 009c 0B       		.uleb128 0xb
 2294 009d 3B       		.uleb128 0x3b
 2295 009e 0B       		.uleb128 0xb
 2296 009f 01       		.uleb128 0x1
 2297 00a0 13       		.uleb128 0x13
 2298 00a1 00       		.byte	0
 2299 00a2 00       		.byte	0
 2300 00a3 0E       		.uleb128 0xe
 2301 00a4 0D       		.uleb128 0xd
 2302 00a5 00       		.byte	0
 2303 00a6 03       		.uleb128 0x3
 2304 00a7 0E       		.uleb128 0xe
 2305 00a8 3A       		.uleb128 0x3a
 2306 00a9 0B       		.uleb128 0xb
 2307 00aa 3B       		.uleb128 0x3b
 2308 00ab 0B       		.uleb128 0xb
 2309 00ac 49       		.uleb128 0x49
 2310 00ad 13       		.uleb128 0x13
 2311 00ae 38       		.uleb128 0x38
 2312 00af 0A       		.uleb128 0xa
 2313 00b0 00       		.byte	0
 2314 00b1 00       		.byte	0
 2315 00b2 0F       		.uleb128 0xf
 2316 00b3 0F       		.uleb128 0xf
 2317 00b4 00       		.byte	0
 2318 00b5 0B       		.uleb128 0xb
 2319 00b6 0B       		.uleb128 0xb
 2320 00b7 49       		.uleb128 0x49
ARM GAS  /tmp/ccUacns9.s 			page 42


 2321 00b8 13       		.uleb128 0x13
 2322 00b9 00       		.byte	0
 2323 00ba 00       		.byte	0
 2324 00bb 10       		.uleb128 0x10
 2325 00bc 15       		.uleb128 0x15
 2326 00bd 01       		.byte	0x1
 2327 00be 27       		.uleb128 0x27
 2328 00bf 0C       		.uleb128 0xc
 2329 00c0 01       		.uleb128 0x1
 2330 00c1 13       		.uleb128 0x13
 2331 00c2 00       		.byte	0
 2332 00c3 00       		.byte	0
 2333 00c4 11       		.uleb128 0x11
 2334 00c5 05       		.uleb128 0x5
 2335 00c6 00       		.byte	0
 2336 00c7 49       		.uleb128 0x49
 2337 00c8 13       		.uleb128 0x13
 2338 00c9 00       		.byte	0
 2339 00ca 00       		.byte	0
 2340 00cb 12       		.uleb128 0x12
 2341 00cc 26       		.uleb128 0x26
 2342 00cd 00       		.byte	0
 2343 00ce 49       		.uleb128 0x49
 2344 00cf 13       		.uleb128 0x13
 2345 00d0 00       		.byte	0
 2346 00d1 00       		.byte	0
 2347 00d2 13       		.uleb128 0x13
 2348 00d3 2E       		.uleb128 0x2e
 2349 00d4 01       		.byte	0x1
 2350 00d5 3F       		.uleb128 0x3f
 2351 00d6 0C       		.uleb128 0xc
 2352 00d7 03       		.uleb128 0x3
 2353 00d8 0E       		.uleb128 0xe
 2354 00d9 3A       		.uleb128 0x3a
 2355 00da 0B       		.uleb128 0xb
 2356 00db 3B       		.uleb128 0x3b
 2357 00dc 0B       		.uleb128 0xb
 2358 00dd 27       		.uleb128 0x27
 2359 00de 0C       		.uleb128 0xc
 2360 00df 11       		.uleb128 0x11
 2361 00e0 01       		.uleb128 0x1
 2362 00e1 12       		.uleb128 0x12
 2363 00e2 01       		.uleb128 0x1
 2364 00e3 40       		.uleb128 0x40
 2365 00e4 06       		.uleb128 0x6
 2366 00e5 9642     		.uleb128 0x2116
 2367 00e7 0C       		.uleb128 0xc
 2368 00e8 01       		.uleb128 0x1
 2369 00e9 13       		.uleb128 0x13
 2370 00ea 00       		.byte	0
 2371 00eb 00       		.byte	0
 2372 00ec 14       		.uleb128 0x14
 2373 00ed 34       		.uleb128 0x34
 2374 00ee 00       		.byte	0
 2375 00ef 03       		.uleb128 0x3
 2376 00f0 0E       		.uleb128 0xe
 2377 00f1 3A       		.uleb128 0x3a
ARM GAS  /tmp/ccUacns9.s 			page 43


 2378 00f2 0B       		.uleb128 0xb
 2379 00f3 3B       		.uleb128 0x3b
 2380 00f4 0B       		.uleb128 0xb
 2381 00f5 49       		.uleb128 0x49
 2382 00f6 13       		.uleb128 0x13
 2383 00f7 02       		.uleb128 0x2
 2384 00f8 06       		.uleb128 0x6
 2385 00f9 00       		.byte	0
 2386 00fa 00       		.byte	0
 2387 00fb 15       		.uleb128 0x15
 2388 00fc 898201   		.uleb128 0x4109
 2389 00ff 00       		.byte	0
 2390 0100 11       		.uleb128 0x11
 2391 0101 01       		.uleb128 0x1
 2392 0102 9542     		.uleb128 0x2115
 2393 0104 0C       		.uleb128 0xc
 2394 0105 31       		.uleb128 0x31
 2395 0106 13       		.uleb128 0x13
 2396 0107 00       		.byte	0
 2397 0108 00       		.byte	0
 2398 0109 16       		.uleb128 0x16
 2399 010a 2E       		.uleb128 0x2e
 2400 010b 01       		.byte	0x1
 2401 010c 3F       		.uleb128 0x3f
 2402 010d 0C       		.uleb128 0xc
 2403 010e 03       		.uleb128 0x3
 2404 010f 0E       		.uleb128 0xe
 2405 0110 3A       		.uleb128 0x3a
 2406 0111 0B       		.uleb128 0xb
 2407 0112 3B       		.uleb128 0x3b
 2408 0113 05       		.uleb128 0x5
 2409 0114 27       		.uleb128 0x27
 2410 0115 0C       		.uleb128 0xc
 2411 0116 11       		.uleb128 0x11
 2412 0117 01       		.uleb128 0x1
 2413 0118 12       		.uleb128 0x12
 2414 0119 01       		.uleb128 0x1
 2415 011a 40       		.uleb128 0x40
 2416 011b 06       		.uleb128 0x6
 2417 011c 9642     		.uleb128 0x2116
 2418 011e 0C       		.uleb128 0xc
 2419 011f 01       		.uleb128 0x1
 2420 0120 13       		.uleb128 0x13
 2421 0121 00       		.byte	0
 2422 0122 00       		.byte	0
 2423 0123 17       		.uleb128 0x17
 2424 0124 34       		.uleb128 0x34
 2425 0125 00       		.byte	0
 2426 0126 03       		.uleb128 0x3
 2427 0127 0E       		.uleb128 0xe
 2428 0128 3A       		.uleb128 0x3a
 2429 0129 0B       		.uleb128 0xb
 2430 012a 3B       		.uleb128 0x3b
 2431 012b 05       		.uleb128 0x5
 2432 012c 49       		.uleb128 0x49
 2433 012d 13       		.uleb128 0x13
 2434 012e 02       		.uleb128 0x2
ARM GAS  /tmp/ccUacns9.s 			page 44


 2435 012f 06       		.uleb128 0x6
 2436 0130 00       		.byte	0
 2437 0131 00       		.byte	0
 2438 0132 18       		.uleb128 0x18
 2439 0133 2E       		.uleb128 0x2e
 2440 0134 01       		.byte	0x1
 2441 0135 3F       		.uleb128 0x3f
 2442 0136 0C       		.uleb128 0xc
 2443 0137 03       		.uleb128 0x3
 2444 0138 0E       		.uleb128 0xe
 2445 0139 3A       		.uleb128 0x3a
 2446 013a 0B       		.uleb128 0xb
 2447 013b 3B       		.uleb128 0x3b
 2448 013c 05       		.uleb128 0x5
 2449 013d 27       		.uleb128 0x27
 2450 013e 0C       		.uleb128 0xc
 2451 013f 11       		.uleb128 0x11
 2452 0140 01       		.uleb128 0x1
 2453 0141 12       		.uleb128 0x12
 2454 0142 01       		.uleb128 0x1
 2455 0143 40       		.uleb128 0x40
 2456 0144 06       		.uleb128 0x6
 2457 0145 9742     		.uleb128 0x2117
 2458 0147 0C       		.uleb128 0xc
 2459 0148 01       		.uleb128 0x1
 2460 0149 13       		.uleb128 0x13
 2461 014a 00       		.byte	0
 2462 014b 00       		.byte	0
 2463 014c 19       		.uleb128 0x19
 2464 014d 34       		.uleb128 0x34
 2465 014e 00       		.byte	0
 2466 014f 03       		.uleb128 0x3
 2467 0150 08       		.uleb128 0x8
 2468 0151 3A       		.uleb128 0x3a
 2469 0152 0B       		.uleb128 0xb
 2470 0153 3B       		.uleb128 0x3b
 2471 0154 05       		.uleb128 0x5
 2472 0155 49       		.uleb128 0x49
 2473 0156 13       		.uleb128 0x13
 2474 0157 02       		.uleb128 0x2
 2475 0158 06       		.uleb128 0x6
 2476 0159 00       		.byte	0
 2477 015a 00       		.byte	0
 2478 015b 1A       		.uleb128 0x1a
 2479 015c 2E       		.uleb128 0x2e
 2480 015d 01       		.byte	0x1
 2481 015e 3F       		.uleb128 0x3f
 2482 015f 0C       		.uleb128 0xc
 2483 0160 03       		.uleb128 0x3
 2484 0161 0E       		.uleb128 0xe
 2485 0162 3A       		.uleb128 0x3a
 2486 0163 0B       		.uleb128 0xb
 2487 0164 3B       		.uleb128 0x3b
 2488 0165 05       		.uleb128 0x5
 2489 0166 27       		.uleb128 0x27
 2490 0167 0C       		.uleb128 0xc
 2491 0168 49       		.uleb128 0x49
ARM GAS  /tmp/ccUacns9.s 			page 45


 2492 0169 13       		.uleb128 0x13
 2493 016a 11       		.uleb128 0x11
 2494 016b 01       		.uleb128 0x1
 2495 016c 12       		.uleb128 0x12
 2496 016d 01       		.uleb128 0x1
 2497 016e 40       		.uleb128 0x40
 2498 016f 06       		.uleb128 0x6
 2499 0170 9742     		.uleb128 0x2117
 2500 0172 0C       		.uleb128 0xc
 2501 0173 01       		.uleb128 0x1
 2502 0174 13       		.uleb128 0x13
 2503 0175 00       		.byte	0
 2504 0176 00       		.byte	0
 2505 0177 1B       		.uleb128 0x1b
 2506 0178 05       		.uleb128 0x5
 2507 0179 00       		.byte	0
 2508 017a 03       		.uleb128 0x3
 2509 017b 0E       		.uleb128 0xe
 2510 017c 3A       		.uleb128 0x3a
 2511 017d 0B       		.uleb128 0xb
 2512 017e 3B       		.uleb128 0x3b
 2513 017f 05       		.uleb128 0x5
 2514 0180 49       		.uleb128 0x49
 2515 0181 13       		.uleb128 0x13
 2516 0182 02       		.uleb128 0x2
 2517 0183 06       		.uleb128 0x6
 2518 0184 00       		.byte	0
 2519 0185 00       		.byte	0
 2520 0186 1C       		.uleb128 0x1c
 2521 0187 898201   		.uleb128 0x4109
 2522 018a 01       		.byte	0x1
 2523 018b 11       		.uleb128 0x11
 2524 018c 01       		.uleb128 0x1
 2525 018d 31       		.uleb128 0x31
 2526 018e 13       		.uleb128 0x13
 2527 018f 00       		.byte	0
 2528 0190 00       		.byte	0
 2529 0191 1D       		.uleb128 0x1d
 2530 0192 8A8201   		.uleb128 0x410a
 2531 0195 00       		.byte	0
 2532 0196 02       		.uleb128 0x2
 2533 0197 0A       		.uleb128 0xa
 2534 0198 9142     		.uleb128 0x2111
 2535 019a 0A       		.uleb128 0xa
 2536 019b 00       		.byte	0
 2537 019c 00       		.byte	0
 2538 019d 1E       		.uleb128 0x1e
 2539 019e 898201   		.uleb128 0x4109
 2540 01a1 00       		.byte	0
 2541 01a2 11       		.uleb128 0x11
 2542 01a3 01       		.uleb128 0x1
 2543 01a4 31       		.uleb128 0x31
 2544 01a5 13       		.uleb128 0x13
 2545 01a6 00       		.byte	0
 2546 01a7 00       		.byte	0
 2547 01a8 1F       		.uleb128 0x1f
 2548 01a9 34       		.uleb128 0x34
ARM GAS  /tmp/ccUacns9.s 			page 46


 2549 01aa 00       		.byte	0
 2550 01ab 03       		.uleb128 0x3
 2551 01ac 0E       		.uleb128 0xe
 2552 01ad 3A       		.uleb128 0x3a
 2553 01ae 0B       		.uleb128 0xb
 2554 01af 3B       		.uleb128 0x3b
 2555 01b0 0B       		.uleb128 0xb
 2556 01b1 49       		.uleb128 0x49
 2557 01b2 13       		.uleb128 0x13
 2558 01b3 02       		.uleb128 0x2
 2559 01b4 0A       		.uleb128 0xa
 2560 01b5 00       		.byte	0
 2561 01b6 00       		.byte	0
 2562 01b7 20       		.uleb128 0x20
 2563 01b8 01       		.uleb128 0x1
 2564 01b9 01       		.byte	0x1
 2565 01ba 49       		.uleb128 0x49
 2566 01bb 13       		.uleb128 0x13
 2567 01bc 01       		.uleb128 0x1
 2568 01bd 13       		.uleb128 0x13
 2569 01be 00       		.byte	0
 2570 01bf 00       		.byte	0
 2571 01c0 21       		.uleb128 0x21
 2572 01c1 21       		.uleb128 0x21
 2573 01c2 00       		.byte	0
 2574 01c3 49       		.uleb128 0x49
 2575 01c4 13       		.uleb128 0x13
 2576 01c5 2F       		.uleb128 0x2f
 2577 01c6 0B       		.uleb128 0xb
 2578 01c7 00       		.byte	0
 2579 01c8 00       		.byte	0
 2580 01c9 22       		.uleb128 0x22
 2581 01ca 34       		.uleb128 0x34
 2582 01cb 00       		.byte	0
 2583 01cc 03       		.uleb128 0x3
 2584 01cd 0E       		.uleb128 0xe
 2585 01ce 3A       		.uleb128 0x3a
 2586 01cf 0B       		.uleb128 0xb
 2587 01d0 3B       		.uleb128 0x3b
 2588 01d1 05       		.uleb128 0x5
 2589 01d2 49       		.uleb128 0x49
 2590 01d3 13       		.uleb128 0x13
 2591 01d4 3F       		.uleb128 0x3f
 2592 01d5 0C       		.uleb128 0xc
 2593 01d6 3C       		.uleb128 0x3c
 2594 01d7 0C       		.uleb128 0xc
 2595 01d8 00       		.byte	0
 2596 01d9 00       		.byte	0
 2597 01da 23       		.uleb128 0x23
 2598 01db 34       		.uleb128 0x34
 2599 01dc 00       		.byte	0
 2600 01dd 03       		.uleb128 0x3
 2601 01de 0E       		.uleb128 0xe
 2602 01df 3A       		.uleb128 0x3a
 2603 01e0 0B       		.uleb128 0xb
 2604 01e1 3B       		.uleb128 0x3b
 2605 01e2 0B       		.uleb128 0xb
ARM GAS  /tmp/ccUacns9.s 			page 47


 2606 01e3 49       		.uleb128 0x49
 2607 01e4 13       		.uleb128 0x13
 2608 01e5 3F       		.uleb128 0x3f
 2609 01e6 0C       		.uleb128 0xc
 2610 01e7 02       		.uleb128 0x2
 2611 01e8 0A       		.uleb128 0xa
 2612 01e9 00       		.byte	0
 2613 01ea 00       		.byte	0
 2614 01eb 24       		.uleb128 0x24
 2615 01ec 2E       		.uleb128 0x2e
 2616 01ed 00       		.byte	0
 2617 01ee 3F       		.uleb128 0x3f
 2618 01ef 0C       		.uleb128 0xc
 2619 01f0 03       		.uleb128 0x3
 2620 01f1 0E       		.uleb128 0xe
 2621 01f2 3A       		.uleb128 0x3a
 2622 01f3 0B       		.uleb128 0xb
 2623 01f4 3B       		.uleb128 0x3b
 2624 01f5 05       		.uleb128 0x5
 2625 01f6 27       		.uleb128 0x27
 2626 01f7 0C       		.uleb128 0xc
 2627 01f8 3C       		.uleb128 0x3c
 2628 01f9 0C       		.uleb128 0xc
 2629 01fa 00       		.byte	0
 2630 01fb 00       		.byte	0
 2631 01fc 25       		.uleb128 0x25
 2632 01fd 2E       		.uleb128 0x2e
 2633 01fe 01       		.byte	0x1
 2634 01ff 3F       		.uleb128 0x3f
 2635 0200 0C       		.uleb128 0xc
 2636 0201 03       		.uleb128 0x3
 2637 0202 0E       		.uleb128 0xe
 2638 0203 3A       		.uleb128 0x3a
 2639 0204 0B       		.uleb128 0xb
 2640 0205 3B       		.uleb128 0x3b
 2641 0206 05       		.uleb128 0x5
 2642 0207 27       		.uleb128 0x27
 2643 0208 0C       		.uleb128 0xc
 2644 0209 3C       		.uleb128 0x3c
 2645 020a 0C       		.uleb128 0xc
 2646 020b 01       		.uleb128 0x1
 2647 020c 13       		.uleb128 0x13
 2648 020d 00       		.byte	0
 2649 020e 00       		.byte	0
 2650 020f 26       		.uleb128 0x26
 2651 0210 2E       		.uleb128 0x2e
 2652 0211 01       		.byte	0x1
 2653 0212 3F       		.uleb128 0x3f
 2654 0213 0C       		.uleb128 0xc
 2655 0214 03       		.uleb128 0x3
 2656 0215 0E       		.uleb128 0xe
 2657 0216 3A       		.uleb128 0x3a
 2658 0217 0B       		.uleb128 0xb
 2659 0218 3B       		.uleb128 0x3b
 2660 0219 05       		.uleb128 0x5
 2661 021a 27       		.uleb128 0x27
 2662 021b 0C       		.uleb128 0xc
ARM GAS  /tmp/ccUacns9.s 			page 48


 2663 021c 3C       		.uleb128 0x3c
 2664 021d 0C       		.uleb128 0xc
 2665 021e 00       		.byte	0
 2666 021f 00       		.byte	0
 2667 0220 00       		.byte	0
 2668              		.section	.debug_loc,"",%progbits
 2669              	.Ldebug_loc0:
 2670              	.LLST0:
 2671 0000 00000000 		.4byte	.LFB118
 2672 0004 02000000 		.4byte	.LCFI0
 2673 0008 0200     		.2byte	0x2
 2674 000a 7D       		.byte	0x7d
 2675 000b 00       		.sleb128 0
 2676 000c 02000000 		.4byte	.LCFI0
 2677 0010 28000000 		.4byte	.LFE118
 2678 0014 0200     		.2byte	0x2
 2679 0016 7D       		.byte	0x7d
 2680 0017 08       		.sleb128 8
 2681 0018 00000000 		.4byte	0
 2682 001c 00000000 		.4byte	0
 2683              	.LLST1:
 2684 0020 12000000 		.4byte	.LVL0
 2685 0024 19000000 		.4byte	.LVL1-1
 2686 0028 0100     		.2byte	0x1
 2687 002a 51       		.byte	0x51
 2688 002b 00000000 		.4byte	0
 2689 002f 00000000 		.4byte	0
 2690              	.LLST2:
 2691 0033 00000000 		.4byte	.LFB119
 2692 0037 12000000 		.4byte	.LCFI1
 2693 003b 0200     		.2byte	0x2
 2694 003d 7D       		.byte	0x7d
 2695 003e 00       		.sleb128 0
 2696 003f 12000000 		.4byte	.LCFI1
 2697 0043 28000000 		.4byte	.LFE119
 2698 0047 0200     		.2byte	0x2
 2699 0049 7D       		.byte	0x7d
 2700 004a 08       		.sleb128 8
 2701 004b 00000000 		.4byte	0
 2702 004f 00000000 		.4byte	0
 2703              	.LLST3:
 2704 0053 10000000 		.4byte	.LVL3
 2705 0057 1B000000 		.4byte	.LVL4-1
 2706 005b 0100     		.2byte	0x1
 2707 005d 51       		.byte	0x51
 2708 005e 00000000 		.4byte	0
 2709 0062 00000000 		.4byte	0
 2710              	.LLST4:
 2711 0066 00000000 		.4byte	.LFB120
 2712 006a 12000000 		.4byte	.LCFI2
 2713 006e 0200     		.2byte	0x2
 2714 0070 7D       		.byte	0x7d
 2715 0071 00       		.sleb128 0
 2716 0072 12000000 		.4byte	.LCFI2
 2717 0076 28000000 		.4byte	.LFE120
 2718 007a 0200     		.2byte	0x2
 2719 007c 7D       		.byte	0x7d
ARM GAS  /tmp/ccUacns9.s 			page 49


 2720 007d 08       		.sleb128 8
 2721 007e 00000000 		.4byte	0
 2722 0082 00000000 		.4byte	0
 2723              	.LLST5:
 2724 0086 10000000 		.4byte	.LVL6
 2725 008a 1B000000 		.4byte	.LVL7-1
 2726 008e 0100     		.2byte	0x1
 2727 0090 51       		.byte	0x51
 2728 0091 00000000 		.4byte	0
 2729 0095 00000000 		.4byte	0
 2730              	.LLST6:
 2731 0099 00000000 		.4byte	.LFB121
 2732 009d 12000000 		.4byte	.LCFI3
 2733 00a1 0200     		.2byte	0x2
 2734 00a3 7D       		.byte	0x7d
 2735 00a4 00       		.sleb128 0
 2736 00a5 12000000 		.4byte	.LCFI3
 2737 00a9 28000000 		.4byte	.LFE121
 2738 00ad 0200     		.2byte	0x2
 2739 00af 7D       		.byte	0x7d
 2740 00b0 08       		.sleb128 8
 2741 00b1 00000000 		.4byte	0
 2742 00b5 00000000 		.4byte	0
 2743              	.LLST7:
 2744 00b9 10000000 		.4byte	.LVL9
 2745 00bd 1B000000 		.4byte	.LVL10-1
 2746 00c1 0100     		.2byte	0x1
 2747 00c3 51       		.byte	0x51
 2748 00c4 00000000 		.4byte	0
 2749 00c8 00000000 		.4byte	0
 2750              	.LLST8:
 2751 00cc 00000000 		.4byte	.LFB122
 2752 00d0 12000000 		.4byte	.LCFI4
 2753 00d4 0200     		.2byte	0x2
 2754 00d6 7D       		.byte	0x7d
 2755 00d7 00       		.sleb128 0
 2756 00d8 12000000 		.4byte	.LCFI4
 2757 00dc 28000000 		.4byte	.LFE122
 2758 00e0 0200     		.2byte	0x2
 2759 00e2 7D       		.byte	0x7d
 2760 00e3 08       		.sleb128 8
 2761 00e4 00000000 		.4byte	0
 2762 00e8 00000000 		.4byte	0
 2763              	.LLST9:
 2764 00ec 10000000 		.4byte	.LVL12
 2765 00f0 1B000000 		.4byte	.LVL13-1
 2766 00f4 0100     		.2byte	0x1
 2767 00f6 51       		.byte	0x51
 2768 00f7 00000000 		.4byte	0
 2769 00fb 00000000 		.4byte	0
 2770              	.LLST10:
 2771 00ff 00000000 		.4byte	.LFB123
 2772 0103 12000000 		.4byte	.LCFI5
 2773 0107 0200     		.2byte	0x2
 2774 0109 7D       		.byte	0x7d
 2775 010a 00       		.sleb128 0
 2776 010b 12000000 		.4byte	.LCFI5
ARM GAS  /tmp/ccUacns9.s 			page 50


 2777 010f 28000000 		.4byte	.LFE123
 2778 0113 0200     		.2byte	0x2
 2779 0115 7D       		.byte	0x7d
 2780 0116 08       		.sleb128 8
 2781 0117 00000000 		.4byte	0
 2782 011b 00000000 		.4byte	0
 2783              	.LLST11:
 2784 011f 10000000 		.4byte	.LVL15
 2785 0123 1B000000 		.4byte	.LVL16-1
 2786 0127 0100     		.2byte	0x1
 2787 0129 51       		.byte	0x51
 2788 012a 00000000 		.4byte	0
 2789 012e 00000000 		.4byte	0
 2790              	.LLST12:
 2791 0132 00000000 		.4byte	.LFB124
 2792 0136 12000000 		.4byte	.LCFI6
 2793 013a 0200     		.2byte	0x2
 2794 013c 7D       		.byte	0x7d
 2795 013d 00       		.sleb128 0
 2796 013e 12000000 		.4byte	.LCFI6
 2797 0142 28000000 		.4byte	.LFE124
 2798 0146 0200     		.2byte	0x2
 2799 0148 7D       		.byte	0x7d
 2800 0149 08       		.sleb128 8
 2801 014a 00000000 		.4byte	0
 2802 014e 00000000 		.4byte	0
 2803              	.LLST13:
 2804 0152 10000000 		.4byte	.LVL18
 2805 0156 1B000000 		.4byte	.LVL19-1
 2806 015a 0100     		.2byte	0x1
 2807 015c 51       		.byte	0x51
 2808 015d 00000000 		.4byte	0
 2809 0161 00000000 		.4byte	0
 2810              	.LLST14:
 2811 0165 00000000 		.4byte	.LFB125
 2812 0169 02000000 		.4byte	.LCFI7
 2813 016d 0200     		.2byte	0x2
 2814 016f 7D       		.byte	0x7d
 2815 0170 00       		.sleb128 0
 2816 0171 02000000 		.4byte	.LCFI7
 2817 0175 28000000 		.4byte	.LFE125
 2818 0179 0200     		.2byte	0x2
 2819 017b 7D       		.byte	0x7d
 2820 017c 08       		.sleb128 8
 2821 017d 00000000 		.4byte	0
 2822 0181 00000000 		.4byte	0
 2823              	.LLST15:
 2824 0185 14000000 		.4byte	.LVL21
 2825 0189 1B000000 		.4byte	.LVL22-1
 2826 018d 0100     		.2byte	0x1
 2827 018f 51       		.byte	0x51
 2828 0190 00000000 		.4byte	0
 2829 0194 00000000 		.4byte	0
 2830              	.LLST16:
 2831 0198 00000000 		.4byte	.LFB126
 2832 019c 14000000 		.4byte	.LCFI8
 2833 01a0 0200     		.2byte	0x2
ARM GAS  /tmp/ccUacns9.s 			page 51


 2834 01a2 7D       		.byte	0x7d
 2835 01a3 00       		.sleb128 0
 2836 01a4 14000000 		.4byte	.LCFI8
 2837 01a8 2C000000 		.4byte	.LFE126
 2838 01ac 0200     		.2byte	0x2
 2839 01ae 7D       		.byte	0x7d
 2840 01af 08       		.sleb128 8
 2841 01b0 00000000 		.4byte	0
 2842 01b4 00000000 		.4byte	0
 2843              	.LLST17:
 2844 01b8 12000000 		.4byte	.LVL24
 2845 01bc 1D000000 		.4byte	.LVL25-1
 2846 01c0 0100     		.2byte	0x1
 2847 01c2 51       		.byte	0x51
 2848 01c3 00000000 		.4byte	0
 2849 01c7 00000000 		.4byte	0
 2850              	.LLST18:
 2851 01cb 00000000 		.4byte	.LFB127
 2852 01cf 14000000 		.4byte	.LCFI9
 2853 01d3 0200     		.2byte	0x2
 2854 01d5 7D       		.byte	0x7d
 2855 01d6 00       		.sleb128 0
 2856 01d7 14000000 		.4byte	.LCFI9
 2857 01db 2C000000 		.4byte	.LFE127
 2858 01df 0200     		.2byte	0x2
 2859 01e1 7D       		.byte	0x7d
 2860 01e2 08       		.sleb128 8
 2861 01e3 00000000 		.4byte	0
 2862 01e7 00000000 		.4byte	0
 2863              	.LLST19:
 2864 01eb 12000000 		.4byte	.LVL27
 2865 01ef 1D000000 		.4byte	.LVL28-1
 2866 01f3 0100     		.2byte	0x1
 2867 01f5 51       		.byte	0x51
 2868 01f6 00000000 		.4byte	0
 2869 01fa 00000000 		.4byte	0
 2870              	.LLST20:
 2871 01fe 00000000 		.4byte	.LFB128
 2872 0202 14000000 		.4byte	.LCFI10
 2873 0206 0200     		.2byte	0x2
 2874 0208 7D       		.byte	0x7d
 2875 0209 00       		.sleb128 0
 2876 020a 14000000 		.4byte	.LCFI10
 2877 020e 2C000000 		.4byte	.LFE128
 2878 0212 0200     		.2byte	0x2
 2879 0214 7D       		.byte	0x7d
 2880 0215 08       		.sleb128 8
 2881 0216 00000000 		.4byte	0
 2882 021a 00000000 		.4byte	0
 2883              	.LLST21:
 2884 021e 12000000 		.4byte	.LVL30
 2885 0222 1D000000 		.4byte	.LVL31-1
 2886 0226 0100     		.2byte	0x1
 2887 0228 51       		.byte	0x51
 2888 0229 00000000 		.4byte	0
 2889 022d 00000000 		.4byte	0
 2890              	.LLST22:
ARM GAS  /tmp/ccUacns9.s 			page 52


 2891 0231 00000000 		.4byte	.LFB129
 2892 0235 14000000 		.4byte	.LCFI11
 2893 0239 0200     		.2byte	0x2
 2894 023b 7D       		.byte	0x7d
 2895 023c 00       		.sleb128 0
 2896 023d 14000000 		.4byte	.LCFI11
 2897 0241 2C000000 		.4byte	.LFE129
 2898 0245 0200     		.2byte	0x2
 2899 0247 7D       		.byte	0x7d
 2900 0248 08       		.sleb128 8
 2901 0249 00000000 		.4byte	0
 2902 024d 00000000 		.4byte	0
 2903              	.LLST23:
 2904 0251 12000000 		.4byte	.LVL33
 2905 0255 1D000000 		.4byte	.LVL34-1
 2906 0259 0100     		.2byte	0x1
 2907 025b 51       		.byte	0x51
 2908 025c 00000000 		.4byte	0
 2909 0260 00000000 		.4byte	0
 2910              	.LLST24:
 2911 0264 00000000 		.4byte	.LFB130
 2912 0268 04000000 		.4byte	.LCFI12
 2913 026c 0200     		.2byte	0x2
 2914 026e 7D       		.byte	0x7d
 2915 026f 00       		.sleb128 0
 2916 0270 04000000 		.4byte	.LCFI12
 2917 0274 0A000000 		.4byte	.LCFI13
 2918 0278 0200     		.2byte	0x2
 2919 027a 7D       		.byte	0x7d
 2920 027b 20       		.sleb128 32
 2921 027c 0A000000 		.4byte	.LCFI13
 2922 0280 E2000000 		.4byte	.LFE130
 2923 0284 0200     		.2byte	0x2
 2924 0286 7D       		.byte	0x7d
 2925 0287 38       		.sleb128 56
 2926 0288 00000000 		.4byte	0
 2927 028c 00000000 		.4byte	0
 2928              	.LLST25:
 2929 0290 62000000 		.4byte	.LVL36
 2930 0294 92000000 		.4byte	.LVL37
 2931 0298 0200     		.2byte	0x2
 2932 029a 30       		.byte	0x30
 2933 029b 9F       		.byte	0x9f
 2934 029c 92000000 		.4byte	.LVL37
 2935 02a0 98000000 		.4byte	.LVL38
 2936 02a4 0200     		.2byte	0x2
 2937 02a6 31       		.byte	0x31
 2938 02a7 9F       		.byte	0x9f
 2939 02a8 98000000 		.4byte	.LVL38
 2940 02ac 9E000000 		.4byte	.LVL39
 2941 02b0 0200     		.2byte	0x2
 2942 02b2 32       		.byte	0x32
 2943 02b3 9F       		.byte	0x9f
 2944 02b4 9E000000 		.4byte	.LVL39
 2945 02b8 A4000000 		.4byte	.LVL40
 2946 02bc 0200     		.2byte	0x2
 2947 02be 33       		.byte	0x33
ARM GAS  /tmp/ccUacns9.s 			page 53


 2948 02bf 9F       		.byte	0x9f
 2949 02c0 A4000000 		.4byte	.LVL40
 2950 02c4 AA000000 		.4byte	.LVL41
 2951 02c8 0200     		.2byte	0x2
 2952 02ca 34       		.byte	0x34
 2953 02cb 9F       		.byte	0x9f
 2954 02cc AA000000 		.4byte	.LVL41
 2955 02d0 AE000000 		.4byte	.LVL42
 2956 02d4 0200     		.2byte	0x2
 2957 02d6 35       		.byte	0x35
 2958 02d7 9F       		.byte	0x9f
 2959 02d8 AE000000 		.4byte	.LVL42
 2960 02dc B2000000 		.4byte	.LVL43
 2961 02e0 0200     		.2byte	0x2
 2962 02e2 36       		.byte	0x36
 2963 02e3 9F       		.byte	0x9f
 2964 02e4 B2000000 		.4byte	.LVL43
 2965 02e8 B6000000 		.4byte	.LVL44
 2966 02ec 0200     		.2byte	0x2
 2967 02ee 37       		.byte	0x37
 2968 02ef 9F       		.byte	0x9f
 2969 02f0 B6000000 		.4byte	.LVL44
 2970 02f4 BA000000 		.4byte	.LVL45
 2971 02f8 0200     		.2byte	0x2
 2972 02fa 38       		.byte	0x38
 2973 02fb 9F       		.byte	0x9f
 2974 02fc BA000000 		.4byte	.LVL45
 2975 0300 C0000000 		.4byte	.LVL46
 2976 0304 0200     		.2byte	0x2
 2977 0306 39       		.byte	0x39
 2978 0307 9F       		.byte	0x9f
 2979 0308 C0000000 		.4byte	.LVL46
 2980 030c C6000000 		.4byte	.LVL47
 2981 0310 0200     		.2byte	0x2
 2982 0312 3A       		.byte	0x3a
 2983 0313 9F       		.byte	0x9f
 2984 0314 C6000000 		.4byte	.LVL47
 2985 0318 D0000000 		.4byte	.LVL48
 2986 031c 0200     		.2byte	0x2
 2987 031e 3B       		.byte	0x3b
 2988 031f 9F       		.byte	0x9f
 2989 0320 D0000000 		.4byte	.LVL48
 2990 0324 E2000000 		.4byte	.LFE130
 2991 0328 0200     		.2byte	0x2
 2992 032a 3C       		.byte	0x3c
 2993 032b 9F       		.byte	0x9f
 2994 032c 00000000 		.4byte	0
 2995 0330 00000000 		.4byte	0
 2996              	.LLST26:
 2997 0334 00000000 		.4byte	.LFB131
 2998 0338 04000000 		.4byte	.LCFI14
 2999 033c 0200     		.2byte	0x2
 3000 033e 7D       		.byte	0x7d
 3001 033f 00       		.sleb128 0
 3002 0340 04000000 		.4byte	.LCFI14
 3003 0344 94000000 		.4byte	.LFE131
 3004 0348 0200     		.2byte	0x2
ARM GAS  /tmp/ccUacns9.s 			page 54


 3005 034a 7D       		.byte	0x7d
 3006 034b 18       		.sleb128 24
 3007 034c 00000000 		.4byte	0
 3008 0350 00000000 		.4byte	0
 3009              	.LLST27:
 3010 0354 00000000 		.4byte	.LVL49
 3011 0358 72000000 		.4byte	.LVL51
 3012 035c 0100     		.2byte	0x1
 3013 035e 50       		.byte	0x50
 3014 035f 72000000 		.4byte	.LVL51
 3015 0363 7E000000 		.4byte	.LVL54
 3016 0367 0400     		.2byte	0x4
 3017 0369 F3       		.byte	0xf3
 3018 036a 01       		.uleb128 0x1
 3019 036b 50       		.byte	0x50
 3020 036c 9F       		.byte	0x9f
 3021 036d 7E000000 		.4byte	.LVL54
 3022 0371 80000000 		.4byte	.LVL55
 3023 0375 0100     		.2byte	0x1
 3024 0377 50       		.byte	0x50
 3025 0378 80000000 		.4byte	.LVL55
 3026 037c 84000000 		.4byte	.LVL56
 3027 0380 0400     		.2byte	0x4
 3028 0382 F3       		.byte	0xf3
 3029 0383 01       		.uleb128 0x1
 3030 0384 50       		.byte	0x50
 3031 0385 9F       		.byte	0x9f
 3032 0386 84000000 		.4byte	.LVL56
 3033 038a 86000000 		.4byte	.LVL57
 3034 038e 0100     		.2byte	0x1
 3035 0390 50       		.byte	0x50
 3036 0391 86000000 		.4byte	.LVL57
 3037 0395 94000000 		.4byte	.LFE131
 3038 0399 0400     		.2byte	0x4
 3039 039b F3       		.byte	0xf3
 3040 039c 01       		.uleb128 0x1
 3041 039d 50       		.byte	0x50
 3042 039e 9F       		.byte	0x9f
 3043 039f 00000000 		.4byte	0
 3044 03a3 00000000 		.4byte	0
 3045              	.LLST28:
 3046 03a7 00000000 		.4byte	.LVL49
 3047 03ab 74000000 		.4byte	.LVL52
 3048 03af 0100     		.2byte	0x1
 3049 03b1 51       		.byte	0x51
 3050 03b2 74000000 		.4byte	.LVL52
 3051 03b6 7E000000 		.4byte	.LVL54
 3052 03ba 0400     		.2byte	0x4
 3053 03bc F3       		.byte	0xf3
 3054 03bd 01       		.uleb128 0x1
 3055 03be 51       		.byte	0x51
 3056 03bf 9F       		.byte	0x9f
 3057 03c0 7E000000 		.4byte	.LVL54
 3058 03c4 94000000 		.4byte	.LFE131
 3059 03c8 0100     		.2byte	0x1
 3060 03ca 51       		.byte	0x51
 3061 03cb 00000000 		.4byte	0
ARM GAS  /tmp/ccUacns9.s 			page 55


 3062 03cf 00000000 		.4byte	0
 3063              	.LLST29:
 3064 03d3 00000000 		.4byte	.LVL49
 3065 03d7 77000000 		.4byte	.LVL53-1
 3066 03db 0100     		.2byte	0x1
 3067 03dd 52       		.byte	0x52
 3068 03de 77000000 		.4byte	.LVL53-1
 3069 03e2 7E000000 		.4byte	.LVL54
 3070 03e6 0400     		.2byte	0x4
 3071 03e8 F3       		.byte	0xf3
 3072 03e9 01       		.uleb128 0x1
 3073 03ea 52       		.byte	0x52
 3074 03eb 9F       		.byte	0x9f
 3075 03ec 7E000000 		.4byte	.LVL54
 3076 03f0 94000000 		.4byte	.LFE131
 3077 03f4 0100     		.2byte	0x1
 3078 03f6 52       		.byte	0x52
 3079 03f7 00000000 		.4byte	0
 3080 03fb 00000000 		.4byte	0
 3081              	.LLST30:
 3082 03ff 00000000 		.4byte	.LVL49
 3083 0403 26000000 		.4byte	.LVL50
 3084 0407 0100     		.2byte	0x1
 3085 0409 53       		.byte	0x53
 3086 040a 26000000 		.4byte	.LVL50
 3087 040e 77000000 		.4byte	.LVL53-1
 3088 0412 0200     		.2byte	0x2
 3089 0414 78       		.byte	0x78
 3090 0415 04       		.sleb128 4
 3091 0416 77000000 		.4byte	.LVL53-1
 3092 041a 7E000000 		.4byte	.LVL54
 3093 041e 0400     		.2byte	0x4
 3094 0420 F3       		.byte	0xf3
 3095 0421 01       		.uleb128 0x1
 3096 0422 53       		.byte	0x53
 3097 0423 9F       		.byte	0x9f
 3098 0424 7E000000 		.4byte	.LVL54
 3099 0428 84000000 		.4byte	.LVL56
 3100 042c 0100     		.2byte	0x1
 3101 042e 53       		.byte	0x53
 3102 042f 84000000 		.4byte	.LVL56
 3103 0433 94000000 		.4byte	.LFE131
 3104 0437 0200     		.2byte	0x2
 3105 0439 78       		.byte	0x78
 3106 043a 04       		.sleb128 4
 3107 043b 00000000 		.4byte	0
 3108 043f 00000000 		.4byte	0
 3109              	.LLST31:
 3110 0443 00000000 		.4byte	.LFB132
 3111 0447 02000000 		.4byte	.LCFI15
 3112 044b 0200     		.2byte	0x2
 3113 044d 7D       		.byte	0x7d
 3114 044e 00       		.sleb128 0
 3115 044f 02000000 		.4byte	.LCFI15
 3116 0453 4C000000 		.4byte	.LFE132
 3117 0457 0200     		.2byte	0x2
 3118 0459 7D       		.byte	0x7d
ARM GAS  /tmp/ccUacns9.s 			page 56


 3119 045a 08       		.sleb128 8
 3120 045b 00000000 		.4byte	0
 3121 045f 00000000 		.4byte	0
 3122              	.LLST32:
 3123 0463 00000000 		.4byte	.LVL58
 3124 0467 06000000 		.4byte	.LVL59
 3125 046b 0100     		.2byte	0x1
 3126 046d 50       		.byte	0x50
 3127 046e 06000000 		.4byte	.LVL59
 3128 0472 4C000000 		.4byte	.LFE132
 3129 0476 0100     		.2byte	0x1
 3130 0478 54       		.byte	0x54
 3131 0479 00000000 		.4byte	0
 3132 047d 00000000 		.4byte	0
 3133              		.section	.debug_aranges,"",%progbits
 3134 0000 8C000000 		.4byte	0x8c
 3135 0004 0200     		.2byte	0x2
 3136 0006 00000000 		.4byte	.Ldebug_info0
 3137 000a 04       		.byte	0x4
 3138 000b 00       		.byte	0
 3139 000c 0000     		.2byte	0
 3140 000e 0000     		.2byte	0
 3141 0010 00000000 		.4byte	.LFB118
 3142 0014 28000000 		.4byte	.LFE118-.LFB118
 3143 0018 00000000 		.4byte	.LFB119
 3144 001c 28000000 		.4byte	.LFE119-.LFB119
 3145 0020 00000000 		.4byte	.LFB120
 3146 0024 28000000 		.4byte	.LFE120-.LFB120
 3147 0028 00000000 		.4byte	.LFB121
 3148 002c 28000000 		.4byte	.LFE121-.LFB121
 3149 0030 00000000 		.4byte	.LFB122
 3150 0034 28000000 		.4byte	.LFE122-.LFB122
 3151 0038 00000000 		.4byte	.LFB123
 3152 003c 28000000 		.4byte	.LFE123-.LFB123
 3153 0040 00000000 		.4byte	.LFB124
 3154 0044 28000000 		.4byte	.LFE124-.LFB124
 3155 0048 00000000 		.4byte	.LFB125
 3156 004c 28000000 		.4byte	.LFE125-.LFB125
 3157 0050 00000000 		.4byte	.LFB126
 3158 0054 2C000000 		.4byte	.LFE126-.LFB126
 3159 0058 00000000 		.4byte	.LFB127
 3160 005c 2C000000 		.4byte	.LFE127-.LFB127
 3161 0060 00000000 		.4byte	.LFB128
 3162 0064 2C000000 		.4byte	.LFE128-.LFB128
 3163 0068 00000000 		.4byte	.LFB129
 3164 006c 2C000000 		.4byte	.LFE129-.LFB129
 3165 0070 00000000 		.4byte	.LFB130
 3166 0074 E2000000 		.4byte	.LFE130-.LFB130
 3167 0078 00000000 		.4byte	.LFB131
 3168 007c 94000000 		.4byte	.LFE131-.LFB131
 3169 0080 00000000 		.4byte	.LFB132
 3170 0084 4C000000 		.4byte	.LFE132-.LFB132
 3171 0088 00000000 		.4byte	0
 3172 008c 00000000 		.4byte	0
 3173              		.section	.debug_ranges,"",%progbits
 3174              	.Ldebug_ranges0:
 3175 0000 00000000 		.4byte	.LFB118
ARM GAS  /tmp/ccUacns9.s 			page 57


 3176 0004 28000000 		.4byte	.LFE118
 3177 0008 00000000 		.4byte	.LFB119
 3178 000c 28000000 		.4byte	.LFE119
 3179 0010 00000000 		.4byte	.LFB120
 3180 0014 28000000 		.4byte	.LFE120
 3181 0018 00000000 		.4byte	.LFB121
 3182 001c 28000000 		.4byte	.LFE121
 3183 0020 00000000 		.4byte	.LFB122
 3184 0024 28000000 		.4byte	.LFE122
 3185 0028 00000000 		.4byte	.LFB123
 3186 002c 28000000 		.4byte	.LFE123
 3187 0030 00000000 		.4byte	.LFB124
 3188 0034 28000000 		.4byte	.LFE124
 3189 0038 00000000 		.4byte	.LFB125
 3190 003c 28000000 		.4byte	.LFE125
 3191 0040 00000000 		.4byte	.LFB126
 3192 0044 2C000000 		.4byte	.LFE126
 3193 0048 00000000 		.4byte	.LFB127
 3194 004c 2C000000 		.4byte	.LFE127
 3195 0050 00000000 		.4byte	.LFB128
 3196 0054 2C000000 		.4byte	.LFE128
 3197 0058 00000000 		.4byte	.LFB129
 3198 005c 2C000000 		.4byte	.LFE129
 3199 0060 00000000 		.4byte	.LFB130
 3200 0064 E2000000 		.4byte	.LFE130
 3201 0068 00000000 		.4byte	.LFB131
 3202 006c 94000000 		.4byte	.LFE131
 3203 0070 00000000 		.4byte	.LFB132
 3204 0074 4C000000 		.4byte	.LFE132
 3205 0078 00000000 		.4byte	0
 3206 007c 00000000 		.4byte	0
 3207              		.section	.debug_line,"",%progbits
 3208              	.Ldebug_line0:
 3209 0000 44030000 		.section	.debug_str,"MS",%progbits,1
 3209      02007701 
 3209      00000201 
 3209      FB0E0D00 
 3209      01010101 
 3210              	.LASF116:
 3211 0000 646D615F 		.ascii	"dma_isr_redir_t\000"
 3211      6973725F 
 3211      72656469 
 3211      725F7400 
 3212              	.LASF142:
 3213 0010 2F686F6D 		.ascii	"/home/joerg/repos/OpenBLDC/kjellhar/bldc-strip/\000"
 3213      652F6A6F 
 3213      6572672F 
 3213      7265706F 
 3213      732F4F70 
 3214              	.LASF50:
 3215 0040 54494D31 		.ascii	"TIM1_TRG_COM_TIM17_IRQn\000"
 3215      5F545247 
 3215      5F434F4D 
 3215      5F54494D 
 3215      31375F49 
 3216              	.LASF25:
 3217 0058 5056445F 		.ascii	"PVD_IRQn\000"
ARM GAS  /tmp/ccUacns9.s 			page 58


 3217      4952516E 
 3217      00
 3218              	.LASF47:
 3219 0061 45585449 		.ascii	"EXTI9_5_IRQn\000"
 3219      395F355F 
 3219      4952516E 
 3219      00
 3220              	.LASF92:
 3221 006e 434D4152 		.ascii	"CMAR\000"
 3221      00
 3222              	.LASF55:
 3223 0073 49324331 		.ascii	"I2C1_EV_IRQn\000"
 3223      5F45565F 
 3223      4952516E 
 3223      00
 3224              	.LASF129:
 3225 0080 56656374 		.ascii	"Vector130\000"
 3225      6F723133 
 3225      3000
 3226              	.LASF45:
 3227 008a 43414E31 		.ascii	"CAN1_RX1_IRQn\000"
 3227      5F525831 
 3227      5F495251 
 3227      6E00
 3228              	.LASF11:
 3229 0098 6C6F6E67 		.ascii	"long long unsigned int\000"
 3229      206C6F6E 
 3229      6720756E 
 3229      7369676E 
 3229      65642069 
 3230              	.LASF77:
 3231 00af 444D4132 		.ascii	"DMA2_Channel1_IRQn\000"
 3231      5F436861 
 3231      6E6E656C 
 3231      315F4952 
 3231      516E00
 3232              	.LASF65:
 3233 00c2 5254435F 		.ascii	"RTC_Alarm_IRQn\000"
 3233      416C6172 
 3233      6D5F4952 
 3233      516E00
 3234              	.LASF111:
 3235 00d1 76656374 		.ascii	"vector\000"
 3235      6F7200
 3236              	.LASF139:
 3237 00d8 5F73746D 		.ascii	"_stm32_dma_streams\000"
 3237      33325F64 
 3237      6D615F73 
 3237      74726561 
 3237      6D7300
 3238              	.LASF58:
 3239 00eb 49324332 		.ascii	"I2C2_ER_IRQn\000"
 3239      5F45525F 
 3239      4952516E 
 3239      00
 3240              	.LASF54:
 3241 00f8 54494D34 		.ascii	"TIM4_IRQn\000"
ARM GAS  /tmp/ccUacns9.s 			page 59


 3241      5F495251 
 3241      6E00
 3242              	.LASF27:
 3243 0102 5254435F 		.ascii	"RTC_WKUP_IRQn\000"
 3243      574B5550 
 3243      5F495251 
 3243      6E00
 3244              	.LASF24:
 3245 0110 57574447 		.ascii	"WWDG_IRQn\000"
 3245      5F495251 
 3245      6E00
 3246              	.LASF146:
 3247 011a 6E766963 		.ascii	"nvicEnableVector\000"
 3247      456E6162 
 3247      6C655665 
 3247      63746F72 
 3247      00
 3248              	.LASF10:
 3249 012b 6C6F6E67 		.ascii	"long long int\000"
 3249      206C6F6E 
 3249      6720696E 
 3249      7400
 3250              	.LASF1:
 3251 0139 7369676E 		.ascii	"signed char\000"
 3251      65642063 
 3251      68617200 
 3252              	.LASF12:
 3253 0145 626F6F6C 		.ascii	"bool_t\000"
 3253      5F7400
 3254              	.LASF131:
 3255 014c 646D6173 		.ascii	"dmastp\000"
 3255      747000
 3256              	.LASF140:
 3257 0153 474E5520 		.ascii	"GNU C 4.7.4 20130913 (release) [ARM/embedded-4_7-br"
 3257      4320342E 
 3257      372E3420 
 3257      32303133 
 3257      30393133 
 3258 0186 616E6368 		.ascii	"anch revision 202601]\000"
 3258      20726576 
 3258      6973696F 
 3258      6E203230 
 3258      32363031 
 3259              	.LASF7:
 3260 019c 6C6F6E67 		.ascii	"long int\000"
 3260      20696E74 
 3260      00
 3261              	.LASF97:
 3262 01a5 41504232 		.ascii	"APB2RSTR\000"
 3262      52535452 
 3262      00
 3263              	.LASF133:
 3264 01ae 66756E63 		.ascii	"func\000"
 3264      00
 3265              	.LASF71:
 3266 01b3 41444333 		.ascii	"ADC3_IRQn\000"
 3266      5F495251 
ARM GAS  /tmp/ccUacns9.s 			page 60


 3266      6E00
 3267              	.LASF37:
 3268 01bd 444D4131 		.ascii	"DMA1_Channel3_IRQn\000"
 3268      5F436861 
 3268      6E6E656C 
 3268      335F4952 
 3268      516E00
 3269              	.LASF8:
 3270 01d0 75696E74 		.ascii	"uint32_t\000"
 3270      33325F74 
 3270      00
 3271              	.LASF42:
 3272 01d9 41444331 		.ascii	"ADC1_2_IRQn\000"
 3272      5F325F49 
 3272      52516E00 
 3273              	.LASF75:
 3274 01e5 54494D36 		.ascii	"TIM6_DAC_IRQn\000"
 3274      5F444143 
 3274      5F495251 
 3274      6E00
 3275              	.LASF73:
 3276 01f3 55415254 		.ascii	"UART4_IRQn\000"
 3276      345F4952 
 3276      516E00
 3277              	.LASF115:
 3278 01fe 646D615F 		.ascii	"dma_param\000"
 3278      70617261 
 3278      6D00
 3279              	.LASF22:
 3280 0208 50656E64 		.ascii	"PendSV_IRQn\000"
 3280      53565F49 
 3280      52516E00 
 3281              	.LASF38:
 3282 0214 444D4131 		.ascii	"DMA1_Channel4_IRQn\000"
 3282      5F436861 
 3282      6E6E656C 
 3282      345F4952 
 3282      516E00
 3283              	.LASF18:
 3284 0227 42757346 		.ascii	"BusFault_IRQn\000"
 3284      61756C74 
 3284      5F495251 
 3284      6E00
 3285              	.LASF110:
 3286 0235 73656C66 		.ascii	"selfindex\000"
 3286      696E6465 
 3286      7800
 3287              	.LASF95:
 3288 023f 444D415F 		.ascii	"DMA_TypeDef\000"
 3288      54797065 
 3288      44656600 
 3289              	.LASF0:
 3290 024b 756E7369 		.ascii	"unsigned int\000"
 3290      676E6564 
 3290      20696E74 
 3290      00
 3291              	.LASF147:
ARM GAS  /tmp/ccUacns9.s 			page 61


 3292 0258 6E766963 		.ascii	"nvicDisableVector\000"
 3292      44697361 
 3292      626C6556 
 3292      6563746F 
 3292      7200
 3293              	.LASF80:
 3294 026a 444D4132 		.ascii	"DMA2_Channel4_IRQn\000"
 3294      5F436861 
 3294      6E6E656C 
 3294      345F4952 
 3294      516E00
 3295              	.LASF82:
 3296 027d 41444334 		.ascii	"ADC4_IRQn\000"
 3296      5F495251 
 3296      6E00
 3297              	.LASF91:
 3298 0287 43504152 		.ascii	"CPAR\000"
 3298      00
 3299              	.LASF113:
 3300 028c 73746D33 		.ascii	"stm32_dmaisr_t\000"
 3300      325F646D 
 3300      61697372 
 3300      5F7400
 3301              	.LASF9:
 3302 029b 6C6F6E67 		.ascii	"long unsigned int\000"
 3302      20756E73 
 3302      69676E65 
 3302      6420696E 
 3302      7400
 3303              	.LASF106:
 3304 02ad 5243435F 		.ascii	"RCC_TypeDef\000"
 3304      54797065 
 3304      44656600 
 3305              	.LASF93:
 3306 02b9 444D415F 		.ascii	"DMA_Channel_TypeDef\000"
 3306      4368616E 
 3306      6E656C5F 
 3306      54797065 
 3306      44656600 
 3307              	.LASF109:
 3308 02cd 69736869 		.ascii	"ishift\000"
 3308      667400
 3309              	.LASF39:
 3310 02d4 444D4131 		.ascii	"DMA1_Channel5_IRQn\000"
 3310      5F436861 
 3310      6E6E656C 
 3310      355F4952 
 3310      516E00
 3311              	.LASF4:
 3312 02e7 73686F72 		.ascii	"short unsigned int\000"
 3312      7420756E 
 3312      7369676E 
 3312      65642069 
 3312      6E7400
 3313              	.LASF64:
 3314 02fa 45585449 		.ascii	"EXTI15_10_IRQn\000"
 3314      31355F31 
ARM GAS  /tmp/ccUacns9.s 			page 62


 3314      305F4952 
 3314      516E00
 3315              	.LASF59:
 3316 0309 53504931 		.ascii	"SPI1_IRQn\000"
 3316      5F495251 
 3316      6E00
 3317              	.LASF132:
 3318 0313 7072696F 		.ascii	"priority\000"
 3318      72697479 
 3318      00
 3319              	.LASF41:
 3320 031c 444D4131 		.ascii	"DMA1_Channel7_IRQn\000"
 3320      5F436861 
 3320      6E6E656C 
 3320      375F4952 
 3320      516E00
 3321              	.LASF86:
 3322 032f 5553425F 		.ascii	"USB_HP_IRQn\000"
 3322      48505F49 
 3322      52516E00 
 3323              	.LASF23:
 3324 033b 53797354 		.ascii	"SysTick_IRQn\000"
 3324      69636B5F 
 3324      4952516E 
 3324      00
 3325              	.LASF51:
 3326 0348 54494D31 		.ascii	"TIM1_CC_IRQn\000"
 3326      5F43435F 
 3326      4952516E 
 3326      00
 3327              	.LASF84:
 3328 0355 434F4D50 		.ascii	"COMP4_5_6_IRQn\000"
 3328      345F355F 
 3328      365F4952 
 3328      516E00
 3329              	.LASF143:
 3330 0364 4952516E 		.ascii	"IRQn\000"
 3330      00
 3331              	.LASF36:
 3332 0369 444D4131 		.ascii	"DMA1_Channel2_IRQn\000"
 3332      5F436861 
 3332      6E6E656C 
 3332      325F4952 
 3332      516E00
 3333              	.LASF67:
 3334 037c 54494D38 		.ascii	"TIM8_BRK_IRQn\000"
 3334      5F42524B 
 3334      5F495251 
 3334      6E00
 3335              	.LASF14:
 3336 038a 73697A65 		.ascii	"sizetype\000"
 3336      74797065 
 3336      00
 3337              	.LASF70:
 3338 0393 54494D38 		.ascii	"TIM8_CC_IRQn\000"
 3338      5F43435F 
 3338      4952516E 
ARM GAS  /tmp/ccUacns9.s 			page 63


 3338      00
 3339              	.LASF20:
 3340 03a0 53564361 		.ascii	"SVCall_IRQn\000"
 3340      6C6C5F49 
 3340      52516E00 
 3341              	.LASF57:
 3342 03ac 49324332 		.ascii	"I2C2_EV_IRQn\000"
 3342      5F45565F 
 3342      4952516E 
 3342      00
 3343              	.LASF78:
 3344 03b9 444D4132 		.ascii	"DMA2_Channel2_IRQn\000"
 3344      5F436861 
 3344      6E6E656C 
 3344      325F4952 
 3344      516E00
 3345              	.LASF81:
 3346 03cc 444D4132 		.ascii	"DMA2_Channel5_IRQn\000"
 3346      5F436861 
 3346      6E6E656C 
 3346      355F4952 
 3346      516E00
 3347              	.LASF134:
 3348 03df 70617261 		.ascii	"param\000"
 3348      6D00
 3349              	.LASF33:
 3350 03e5 45585449 		.ascii	"EXTI3_IRQn\000"
 3350      335F4952 
 3350      516E00
 3351              	.LASF60:
 3352 03f0 53504932 		.ascii	"SPI2_IRQn\000"
 3352      5F495251 
 3352      6E00
 3353              	.LASF114:
 3354 03fa 646D615F 		.ascii	"dma_func\000"
 3354      66756E63 
 3354      00
 3355              	.LASF79:
 3356 0403 444D4132 		.ascii	"DMA2_Channel3_IRQn\000"
 3356      5F436861 
 3356      6E6E656C 
 3356      335F4952 
 3356      516E00
 3357              	.LASF103:
 3358 0416 41484252 		.ascii	"AHBRSTR\000"
 3358      53545200 
 3359              	.LASF98:
 3360 041e 41504231 		.ascii	"APB1RSTR\000"
 3360      52535452 
 3360      00
 3361              	.LASF35:
 3362 0427 444D4131 		.ascii	"DMA1_Channel1_IRQn\000"
 3362      5F436861 
 3362      6E6E656C 
 3362      315F4952 
 3362      516E00
 3363              	.LASF17:
ARM GAS  /tmp/ccUacns9.s 			page 64


 3364 043a 4D656D6F 		.ascii	"MemoryManagement_IRQn\000"
 3364      72794D61 
 3364      6E616765 
 3364      6D656E74 
 3364      5F495251 
 3365              	.LASF61:
 3366 0450 55534152 		.ascii	"USART1_IRQn\000"
 3366      54315F49 
 3366      52516E00 
 3367              	.LASF112:
 3368 045c 73746D33 		.ascii	"stm32_dma_stream_t\000"
 3368      325F646D 
 3368      615F7374 
 3368      7265616D 
 3368      5F7400
 3369              	.LASF117:
 3370 046f 56656374 		.ascii	"Vector6C\000"
 3370      6F723643 
 3370      00
 3371              	.LASF13:
 3372 0478 5F426F6F 		.ascii	"_Bool\000"
 3372      6C00
 3373              	.LASF6:
 3374 047e 696E7433 		.ascii	"int32_t\000"
 3374      325F7400 
 3375              	.LASF2:
 3376 0486 756E7369 		.ascii	"unsigned char\000"
 3376      676E6564 
 3376      20636861 
 3376      7200
 3377              	.LASF69:
 3378 0494 54494D38 		.ascii	"TIM8_TRG_COM_IRQn\000"
 3378      5F545247 
 3378      5F434F4D 
 3378      5F495251 
 3378      6E00
 3379              	.LASF43:
 3380 04a6 5553425F 		.ascii	"USB_HP_CAN1_TX_IRQn\000"
 3380      48505F43 
 3380      414E315F 
 3380      54585F49 
 3380      52516E00 
 3381              	.LASF138:
 3382 04ba 49544D5F 		.ascii	"ITM_RxBuffer\000"
 3382      52784275 
 3382      66666572 
 3382      00
 3383              	.LASF34:
 3384 04c7 45585449 		.ascii	"EXTI4_IRQn\000"
 3384      345F4952 
 3384      516E00
 3385              	.LASF3:
 3386 04d2 73686F72 		.ascii	"short int\000"
 3386      7420696E 
 3386      7400
 3387              	.LASF32:
 3388 04dc 45585449 		.ascii	"EXTI2_TS_IRQn\000"
ARM GAS  /tmp/ccUacns9.s 			page 65


 3388      325F5453 
 3388      5F495251 
 3388      6E00
 3389              	.LASF74:
 3390 04ea 55415254 		.ascii	"UART5_IRQn\000"
 3390      355F4952 
 3390      516E00
 3391              	.LASF44:
 3392 04f5 5553425F 		.ascii	"USB_LP_CAN1_RX0_IRQn\000"
 3392      4C505F43 
 3392      414E315F 
 3392      5258305F 
 3392      4952516E 
 3393              	.LASF83:
 3394 050a 434F4D50 		.ascii	"COMP1_2_3_IRQn\000"
 3394      315F325F 
 3394      335F4952 
 3394      516E00
 3395              	.LASF85:
 3396 0519 434F4D50 		.ascii	"COMP7_IRQn\000"
 3396      375F4952 
 3396      516E00
 3397              	.LASF100:
 3398 0524 41504232 		.ascii	"APB2ENR\000"
 3398      454E5200 
 3399              	.LASF107:
 3400 052c 6368616E 		.ascii	"channel\000"
 3400      6E656C00 
 3401              	.LASF28:
 3402 0534 464C4153 		.ascii	"FLASH_IRQn\000"
 3402      485F4952 
 3402      516E00
 3403              	.LASF49:
 3404 053f 54494D31 		.ascii	"TIM1_UP_TIM16_IRQn\000"
 3404      5F55505F 
 3404      54494D31 
 3404      365F4952 
 3404      516E00
 3405              	.LASF108:
 3406 0552 69666372 		.ascii	"ifcr\000"
 3406      00
 3407              	.LASF118:
 3408 0557 56656374 		.ascii	"Vector70\000"
 3408      6F723730 
 3408      00
 3409              	.LASF120:
 3410 0560 56656374 		.ascii	"Vector74\000"
 3410      6F723734 
 3410      00
 3411              	.LASF62:
 3412 0569 55534152 		.ascii	"USART2_IRQn\000"
 3412      54325F49 
 3412      52516E00 
 3413              	.LASF19:
 3414 0575 55736167 		.ascii	"UsageFault_IRQn\000"
 3414      65466175 
 3414      6C745F49 
ARM GAS  /tmp/ccUacns9.s 			page 66


 3414      52516E00 
 3415              	.LASF121:
 3416 0585 56656374 		.ascii	"Vector78\000"
 3416      6F723738 
 3416      00
 3417              	.LASF88:
 3418 058e 55534257 		.ascii	"USBWakeUp_RMP_IRQn\000"
 3418      616B6555 
 3418      705F524D 
 3418      505F4952 
 3418      516E00
 3419              	.LASF130:
 3420 05a1 646D6149 		.ascii	"dmaInit\000"
 3420      6E697400 
 3421              	.LASF94:
 3422 05a9 49464352 		.ascii	"IFCR\000"
 3422      00
 3423              	.LASF15:
 3424 05ae 63686172 		.ascii	"char\000"
 3424      00
 3425              	.LASF135:
 3426 05b3 646D6153 		.ascii	"dmaStreamRelease\000"
 3426      74726561 
 3426      6D52656C 
 3426      65617365 
 3426      00
 3427              	.LASF122:
 3428 05c4 56656374 		.ascii	"Vector7C\000"
 3428      6F723743 
 3428      00
 3429              	.LASF76:
 3430 05cd 54494D37 		.ascii	"TIM7_IRQn\000"
 3430      5F495251 
 3430      6E00
 3431              	.LASF16:
 3432 05d7 4E6F6E4D 		.ascii	"NonMaskableInt_IRQn\000"
 3432      61736B61 
 3432      626C6549 
 3432      6E745F49 
 3432      52516E00 
 3433              	.LASF40:
 3434 05eb 444D4131 		.ascii	"DMA1_Channel6_IRQn\000"
 3434      5F436861 
 3434      6E6E656C 
 3434      365F4952 
 3434      516E00
 3435              	.LASF101:
 3436 05fe 41504231 		.ascii	"APB1ENR\000"
 3436      454E5200 
 3437              	.LASF87:
 3438 0606 5553425F 		.ascii	"USB_LP_IRQn\000"
 3438      4C505F49 
 3438      52516E00 
 3439              	.LASF136:
 3440 0612 646D615F 		.ascii	"dma_streams_mask\000"
 3440      73747265 
 3440      616D735F 
ARM GAS  /tmp/ccUacns9.s 			page 67


 3440      6D61736B 
 3440      00
 3441              	.LASF141:
 3442 0623 63686962 		.ascii	"chibios/os/hal/platforms/STM32F30x/stm32_dma.c\000"
 3442      696F732F 
 3442      6F732F68 
 3442      616C2F70 
 3442      6C617466 
 3443              	.LASF66:
 3444 0652 55534257 		.ascii	"USBWakeUp_IRQn\000"
 3444      616B6555 
 3444      705F4952 
 3444      516E00
 3445              	.LASF21:
 3446 0661 44656275 		.ascii	"DebugMonitor_IRQn\000"
 3446      674D6F6E 
 3446      69746F72 
 3446      5F495251 
 3446      6E00
 3447              	.LASF123:
 3448 0673 56656374 		.ascii	"Vector80\000"
 3448      6F723830 
 3448      00
 3449              	.LASF63:
 3450 067c 55534152 		.ascii	"USART3_IRQn\000"
 3450      54335F49 
 3450      52516E00 
 3451              	.LASF124:
 3452 0688 56656374 		.ascii	"Vector84\000"
 3452      6F723834 
 3452      00
 3453              	.LASF52:
 3454 0691 54494D32 		.ascii	"TIM2_IRQn\000"
 3454      5F495251 
 3454      6E00
 3455              	.LASF68:
 3456 069b 54494D38 		.ascii	"TIM8_UP_IRQn\000"
 3456      5F55505F 
 3456      4952516E 
 3456      00
 3457              	.LASF30:
 3458 06a8 45585449 		.ascii	"EXTI0_IRQn\000"
 3458      305F4952 
 3458      516E00
 3459              	.LASF90:
 3460 06b3 434E4454 		.ascii	"CNDTR\000"
 3460      5200
 3461              	.LASF102:
 3462 06b9 42444352 		.ascii	"BDCR\000"
 3462      00
 3463              	.LASF145:
 3464 06be 5F706F72 		.ascii	"_port_irq_epilogue\000"
 3464      745F6972 
 3464      715F6570 
 3464      696C6F67 
 3464      756500
 3465              	.LASF104:
ARM GAS  /tmp/ccUacns9.s 			page 68


 3466 06d1 43464752 		.ascii	"CFGR2\000"
 3466      3200
 3467              	.LASF105:
 3468 06d7 43464752 		.ascii	"CFGR3\000"
 3468      3300
 3469              	.LASF5:
 3470 06dd 75696E74 		.ascii	"uint8_t\000"
 3470      385F7400 
 3471              	.LASF119:
 3472 06e5 666C6167 		.ascii	"flags\000"
 3472      7300
 3473              	.LASF48:
 3474 06eb 54494D31 		.ascii	"TIM1_BRK_TIM15_IRQn\000"
 3474      5F42524B 
 3474      5F54494D 
 3474      31355F49 
 3474      52516E00 
 3475              	.LASF137:
 3476 06ff 646D615F 		.ascii	"dma_isr_redir\000"
 3476      6973725F 
 3476      72656469 
 3476      7200
 3477              	.LASF125:
 3478 070d 56656374 		.ascii	"Vector120\000"
 3478      6F723132 
 3478      3000
 3479              	.LASF89:
 3480 0717 4650555F 		.ascii	"FPU_IRQn\000"
 3480      4952516E 
 3480      00
 3481              	.LASF96:
 3482 0720 43464752 		.ascii	"CFGR\000"
 3482      00
 3483              	.LASF126:
 3484 0725 56656374 		.ascii	"Vector124\000"
 3484      6F723132 
 3484      3400
 3485              	.LASF127:
 3486 072f 56656374 		.ascii	"Vector128\000"
 3486      6F723132 
 3486      3800
 3487              	.LASF56:
 3488 0739 49324331 		.ascii	"I2C1_ER_IRQn\000"
 3488      5F45525F 
 3488      4952516E 
 3488      00
 3489              	.LASF72:
 3490 0746 53504933 		.ascii	"SPI3_IRQn\000"
 3490      5F495251 
 3490      6E00
 3491              	.LASF26:
 3492 0750 54414D50 		.ascii	"TAMPER_STAMP_IRQn\000"
 3492      45525F53 
 3492      54414D50 
 3492      5F495251 
 3492      6E00
 3493              	.LASF128:
ARM GAS  /tmp/ccUacns9.s 			page 69


 3494 0762 56656374 		.ascii	"Vector12C\000"
 3494      6F723132 
 3494      4300
 3495              	.LASF46:
 3496 076c 43414E31 		.ascii	"CAN1_SCE_IRQn\000"
 3496      5F534345 
 3496      5F495251 
 3496      6E00
 3497              	.LASF144:
 3498 077a 646D6153 		.ascii	"dmaStreamAllocate\000"
 3498      74726561 
 3498      6D416C6C 
 3498      6F636174 
 3498      6500
 3499              	.LASF29:
 3500 078c 5243435F 		.ascii	"RCC_IRQn\000"
 3500      4952516E 
 3500      00
 3501              	.LASF53:
 3502 0795 54494D33 		.ascii	"TIM3_IRQn\000"
 3502      5F495251 
 3502      6E00
 3503              	.LASF99:
 3504 079f 41484245 		.ascii	"AHBENR\000"
 3504      4E5200
 3505              	.LASF31:
 3506 07a6 45585449 		.ascii	"EXTI1_IRQn\000"
 3506      315F4952 
 3506      516E00
 3507              		.ident	"GCC: (GNU Tools for ARM Embedded Processors) 4.7.4 20130913 (release) [ARM/embedded-4_7-br
ARM GAS  /tmp/ccUacns9.s 			page 70


DEFINED SYMBOLS
                            *ABS*:00000000 stm32_dma.c
     /tmp/ccUacns9.s:19     .text.Vector6C:00000000 $t
     /tmp/ccUacns9.s:25     .text.Vector6C:00000000 Vector6C
     /tmp/ccUacns9.s:66     .text.Vector6C:00000024 $d
     /tmp/ccUacns9.s:71     .text.Vector70:00000000 $t
     /tmp/ccUacns9.s:77     .text.Vector70:00000000 Vector70
     /tmp/ccUacns9.s:119    .text.Vector70:00000024 $d
     /tmp/ccUacns9.s:124    .text.Vector74:00000000 $t
     /tmp/ccUacns9.s:130    .text.Vector74:00000000 Vector74
     /tmp/ccUacns9.s:172    .text.Vector74:00000024 $d
     /tmp/ccUacns9.s:177    .text.Vector78:00000000 $t
     /tmp/ccUacns9.s:183    .text.Vector78:00000000 Vector78
     /tmp/ccUacns9.s:225    .text.Vector78:00000024 $d
     /tmp/ccUacns9.s:230    .text.Vector7C:00000000 $t
     /tmp/ccUacns9.s:236    .text.Vector7C:00000000 Vector7C
     /tmp/ccUacns9.s:278    .text.Vector7C:00000024 $d
     /tmp/ccUacns9.s:283    .text.Vector80:00000000 $t
     /tmp/ccUacns9.s:289    .text.Vector80:00000000 Vector80
     /tmp/ccUacns9.s:331    .text.Vector80:00000024 $d
     /tmp/ccUacns9.s:336    .text.Vector84:00000000 $t
     /tmp/ccUacns9.s:342    .text.Vector84:00000000 Vector84
     /tmp/ccUacns9.s:384    .text.Vector84:00000024 $d
     /tmp/ccUacns9.s:389    .text.Vector120:00000000 $t
     /tmp/ccUacns9.s:395    .text.Vector120:00000000 Vector120
     /tmp/ccUacns9.s:435    .text.Vector120:00000024 $d
     /tmp/ccUacns9.s:440    .text.Vector124:00000000 $t
     /tmp/ccUacns9.s:446    .text.Vector124:00000000 Vector124
     /tmp/ccUacns9.s:488    .text.Vector124:00000028 $d
     /tmp/ccUacns9.s:493    .text.Vector128:00000000 $t
     /tmp/ccUacns9.s:499    .text.Vector128:00000000 Vector128
     /tmp/ccUacns9.s:541    .text.Vector128:00000028 $d
     /tmp/ccUacns9.s:546    .text.Vector12C:00000000 $t
     /tmp/ccUacns9.s:552    .text.Vector12C:00000000 Vector12C
     /tmp/ccUacns9.s:594    .text.Vector12C:00000028 $d
     /tmp/ccUacns9.s:599    .text.Vector130:00000000 $t
     /tmp/ccUacns9.s:605    .text.Vector130:00000000 Vector130
     /tmp/ccUacns9.s:647    .text.Vector130:00000028 $d
     /tmp/ccUacns9.s:652    .text.dmaInit:00000000 $t
     /tmp/ccUacns9.s:658    .text.dmaInit:00000000 dmaInit
     /tmp/ccUacns9.s:1077   .bss.dma_streams_mask:00000000 .LANCHOR1
     /tmp/ccUacns9.s:993    .bss.dma_isr_redir:00000000 .LANCHOR0
     /tmp/ccUacns9.s:817    .text.dmaStreamAllocate:00000000 $t
     /tmp/ccUacns9.s:823    .text.dmaStreamAllocate:00000000 dmaStreamAllocate
     /tmp/ccUacns9.s:923    .text.dmaStreamAllocate:0000008c $d
     /tmp/ccUacns9.s:929    .text.dmaStreamRelease:00000000 $t
     /tmp/ccUacns9.s:935    .text.dmaStreamRelease:00000000 dmaStreamRelease
     /tmp/ccUacns9.s:986    .text.dmaStreamRelease:00000048 $d
     /tmp/ccUacns9.s:1002   .rodata._stm32_dma_streams:00000000 _stm32_dma_streams
     /tmp/ccUacns9.s:992    .bss.dma_isr_redir:00000000 $d
     /tmp/ccUacns9.s:996    .bss.dma_isr_redir:00000000 dma_isr_redir
     /tmp/ccUacns9.s:999    .rodata._stm32_dma_streams:00000000 $d
     /tmp/ccUacns9.s:1076   .bss.dma_streams_mask:00000000 $d
     /tmp/ccUacns9.s:1080   .bss.dma_streams_mask:00000000 dma_streams_mask
                     .debug_frame:00000010 $d
     /tmp/ccUacns9.s:70     .text.Vector6C:00000028 $t
     /tmp/ccUacns9.s:123    .text.Vector70:00000028 $t
ARM GAS  /tmp/ccUacns9.s 			page 71


     /tmp/ccUacns9.s:176    .text.Vector74:00000028 $t
     /tmp/ccUacns9.s:229    .text.Vector78:00000028 $t
     /tmp/ccUacns9.s:282    .text.Vector7C:00000028 $t
     /tmp/ccUacns9.s:335    .text.Vector80:00000028 $t
     /tmp/ccUacns9.s:388    .text.Vector84:00000028 $t
     /tmp/ccUacns9.s:439    .text.Vector120:00000028 $t
     /tmp/ccUacns9.s:492    .text.Vector124:0000002c $t
     /tmp/ccUacns9.s:545    .text.Vector128:0000002c $t
     /tmp/ccUacns9.s:598    .text.Vector12C:0000002c $t
     /tmp/ccUacns9.s:651    .text.Vector130:0000002c $t
     /tmp/ccUacns9.s:928    .text.dmaStreamAllocate:00000094 $t
     /tmp/ccUacns9.s:991    .text.dmaStreamRelease:0000004c $t

UNDEFINED SYMBOLS
_port_irq_epilogue
nvicEnableVector
nvicDisableVector
