ARM GAS  /tmp/ccUacns9.s 			page 1


   1              		.syntax unified
   2              		.cpu cortex-m4
   3              		.fpu softvfp
   4              		.eabi_attribute 20, 1
   5              		.eabi_attribute 21, 1
   6              		.eabi_attribute 23, 3
   7              		.eabi_attribute 24, 1
   8              		.eabi_attribute 25, 1
   9              		.eabi_attribute 26, 1
  10              		.eabi_attribute 30, 2
  11              		.eabi_attribute 34, 1
  12              		.eabi_attribute 18, 4
  13              		.thumb
  14              		.file	"stm32_dma.c"
  15              		.text
  16              	.Ltext0:
  17              		.cfi_sections	.debug_frame
  18              		.section	.text.Vector6C,"ax",%progbits
  19              		.align	2
  20              		.p2align 4,,15
  21              		.global	Vector6C
  22              		.thumb
  23              		.thumb_func
  24              		.type	Vector6C, %function
  25              	Vector6C:
  26              	.LFB118:
  27              		.file 1 "chibios/os/hal/platforms/STM32F30x/stm32_dma.c"
  28              		.loc 1 119 0
  29              		.cfi_startproc
  30              		@ args = 0, pretend = 0, frame = 0
  31              		@ frame_needed = 0, uses_anonymous_args = 0
  32 0000 08B5     		push	{r3, lr}
  33              	.LCFI0:
  34              		.cfi_def_cfa_offset 8
  35              		.cfi_offset 3, -8
  36              		.cfi_offset 14, -4
  37              		.loc 1 124 0
  38 0002 0023     		movs	r3, #0
  39 0004 C4F20203 		movt	r3, 16386
  40              		.loc 1 126 0
  41 0008 0648     		ldr	r0, .L7
  42              		.loc 1 124 0
  43 000a 1968     		ldr	r1, [r3, #0]
  44              		.loc 1 126 0
  45 000c 0268     		ldr	r2, [r0, #0]
  46              		.loc 1 124 0
  47 000e 01F00F01 		and	r1, r1, #15
  48              	.LVL0:
  49              		.loc 1 125 0
  50 0012 5960     		str	r1, [r3, #4]
  51              		.loc 1 126 0
  52 0014 0AB1     		cbz	r2, .L2
  53              		.loc 1 127 0
  54 0016 4068     		ldr	r0, [r0, #4]
  55 0018 9047     		blx	r2
  56              	.LVL1:
  57              	.L2:
ARM GAS  /tmp/ccUacns9.s 			page 2


  58              		.loc 1 130 0
  59 001a BDE80840 		pop	{r3, lr}
  60              		.loc 1 129 0
  61 001e FFF7FEBF 		b	_port_irq_epilogue
  62              	.LVL2:
  63              	.L8:
  64 0022 00BF     		.align	2
  65              	.L7:
  66 0024 00000000 		.word	.LANCHOR0
  67              		.cfi_endproc
  68              	.LFE118:
  69              		.size	Vector6C, .-Vector6C
  70 0028 AFF30080 		.section	.text.Vector70,"ax",%progbits
  70      AFF30080 
  71              		.align	2
  72              		.p2align 4,,15
  73              		.global	Vector70
  74              		.thumb
  75              		.thumb_func
  76              		.type	Vector70, %function
  77              	Vector70:
  78              	.LFB119:
  79              		.loc 1 137 0
  80              		.cfi_startproc
  81              		@ args = 0, pretend = 0, frame = 0
  82              		@ frame_needed = 0, uses_anonymous_args = 0
  83              		.loc 1 142 0
  84 0000 0023     		movs	r3, #0
  85 0002 C4F20203 		movt	r3, 16386
  86              		.loc 1 144 0
  87 0006 0748     		ldr	r0, .L14
  88              		.loc 1 142 0
  89 0008 1968     		ldr	r1, [r3, #0]
  90              		.loc 1 144 0
  91 000a 8268     		ldr	r2, [r0, #8]
  92              		.loc 1 142 0
  93 000c C1F30311 		ubfx	r1, r1, #4, #4
  94              	.LVL3:
  95              		.loc 1 137 0
  96 0010 10B5     		push	{r4, lr}
  97              	.LCFI1:
  98              		.cfi_def_cfa_offset 8
  99              		.cfi_offset 4, -8
 100              		.cfi_offset 14, -4
 101              		.loc 1 143 0
 102 0012 0C01     		lsls	r4, r1, #4
 103 0014 5C60     		str	r4, [r3, #4]
 104              		.loc 1 144 0
 105 0016 0AB1     		cbz	r2, .L10
 106              		.loc 1 145 0
 107 0018 C068     		ldr	r0, [r0, #12]
 108 001a 9047     		blx	r2
 109              	.LVL4:
 110              	.L10:
 111              		.loc 1 148 0
 112 001c BDE81040 		pop	{r4, lr}
 113              		.loc 1 147 0
ARM GAS  /tmp/ccUacns9.s 			page 3


 114 0020 FFF7FEBF 		b	_port_irq_epilogue
 115              	.LVL5:
 116              	.L15:
 117              		.align	2
 118              	.L14:
 119 0024 00000000 		.word	.LANCHOR0
 120              		.cfi_endproc
 121              	.LFE119:
 122              		.size	Vector70, .-Vector70
 123 0028 AFF30080 		.section	.text.Vector74,"ax",%progbits
 123      AFF30080 
 124              		.align	2
 125              		.p2align 4,,15
 126              		.global	Vector74
 127              		.thumb
 128              		.thumb_func
 129              		.type	Vector74, %function
 130              	Vector74:
 131              	.LFB120:
 132              		.loc 1 155 0
 133              		.cfi_startproc
 134              		@ args = 0, pretend = 0, frame = 0
 135              		@ frame_needed = 0, uses_anonymous_args = 0
 136              		.loc 1 160 0
 137 0000 0023     		movs	r3, #0
 138 0002 C4F20203 		movt	r3, 16386
 139              		.loc 1 162 0
 140 0006 0748     		ldr	r0, .L21
 141              		.loc 1 160 0
 142 0008 1968     		ldr	r1, [r3, #0]
 143              		.loc 1 162 0
 144 000a 0269     		ldr	r2, [r0, #16]
 145              		.loc 1 160 0
 146 000c C1F30321 		ubfx	r1, r1, #8, #4
 147              	.LVL6:
 148              		.loc 1 155 0
 149 0010 10B5     		push	{r4, lr}
 150              	.LCFI2:
 151              		.cfi_def_cfa_offset 8
 152              		.cfi_offset 4, -8
 153              		.cfi_offset 14, -4
 154              		.loc 1 161 0
 155 0012 0C02     		lsls	r4, r1, #8
 156 0014 5C60     		str	r4, [r3, #4]
 157              		.loc 1 162 0
 158 0016 0AB1     		cbz	r2, .L17
 159              		.loc 1 163 0
 160 0018 4069     		ldr	r0, [r0, #20]
 161 001a 9047     		blx	r2
 162              	.LVL7:
 163              	.L17:
 164              		.loc 1 166 0
 165 001c BDE81040 		pop	{r4, lr}
 166              		.loc 1 165 0
 167 0020 FFF7FEBF 		b	_port_irq_epilogue
 168              	.LVL8:
 169              	.L22:
ARM GAS  /tmp/ccUacns9.s 			page 4


 170              		.align	2
 171              	.L21:
 172 0024 00000000 		.word	.LANCHOR0
 173              		.cfi_endproc
 174              	.LFE120:
 175              		.size	Vector74, .-Vector74
 176 0028 AFF30080 		.section	.text.Vector78,"ax",%progbits
 176      AFF30080 
 177              		.align	2
 178              		.p2align 4,,15
 179              		.global	Vector78
 180              		.thumb
 181              		.thumb_func
 182              		.type	Vector78, %function
 183              	Vector78:
 184              	.LFB121:
 185              		.loc 1 173 0
 186              		.cfi_startproc
 187              		@ args = 0, pretend = 0, frame = 0
 188              		@ frame_needed = 0, uses_anonymous_args = 0
 189              		.loc 1 178 0
 190 0000 0023     		movs	r3, #0
 191 0002 C4F20203 		movt	r3, 16386
 192              		.loc 1 180 0
 193 0006 0748     		ldr	r0, .L28
 194              		.loc 1 178 0
 195 0008 1968     		ldr	r1, [r3, #0]
 196              		.loc 1 180 0
 197 000a 8269     		ldr	r2, [r0, #24]
 198              		.loc 1 178 0
 199 000c C1F30331 		ubfx	r1, r1, #12, #4
 200              	.LVL9:
 201              		.loc 1 173 0
 202 0010 10B5     		push	{r4, lr}
 203              	.LCFI3:
 204              		.cfi_def_cfa_offset 8
 205              		.cfi_offset 4, -8
 206              		.cfi_offset 14, -4
 207              		.loc 1 179 0
 208 0012 0C03     		lsls	r4, r1, #12
 209 0014 5C60     		str	r4, [r3, #4]
 210              		.loc 1 180 0
 211 0016 0AB1     		cbz	r2, .L24
 212              		.loc 1 181 0
 213 0018 C069     		ldr	r0, [r0, #28]
 214 001a 9047     		blx	r2
 215              	.LVL10:
 216              	.L24:
 217              		.loc 1 184 0
 218 001c BDE81040 		pop	{r4, lr}
 219              		.loc 1 183 0
 220 0020 FFF7FEBF 		b	_port_irq_epilogue
 221              	.LVL11:
 222              	.L29:
 223              		.align	2
 224              	.L28:
 225 0024 00000000 		.word	.LANCHOR0
ARM GAS  /tmp/ccUacns9.s 			page 5


 226              		.cfi_endproc
 227              	.LFE121:
 228              		.size	Vector78, .-Vector78
 229 0028 AFF30080 		.section	.text.Vector7C,"ax",%progbits
 229      AFF30080 
 230              		.align	2
 231              		.p2align 4,,15
 232              		.global	Vector7C
 233              		.thumb
 234              		.thumb_func
 235              		.type	Vector7C, %function
 236              	Vector7C:
 237              	.LFB122:
 238              		.loc 1 191 0
 239              		.cfi_startproc
 240              		@ args = 0, pretend = 0, frame = 0
 241              		@ frame_needed = 0, uses_anonymous_args = 0
 242              		.loc 1 196 0
 243 0000 0023     		movs	r3, #0
 244 0002 C4F20203 		movt	r3, 16386
 245              		.loc 1 198 0
 246 0006 0748     		ldr	r0, .L35
 247              		.loc 1 196 0
 248 0008 1968     		ldr	r1, [r3, #0]
 249              		.loc 1 198 0
 250 000a 026A     		ldr	r2, [r0, #32]
 251              		.loc 1 196 0
 252 000c C1F30341 		ubfx	r1, r1, #16, #4
 253              	.LVL12:
 254              		.loc 1 191 0
 255 0010 10B5     		push	{r4, lr}
 256              	.LCFI4:
 257              		.cfi_def_cfa_offset 8
 258              		.cfi_offset 4, -8
 259              		.cfi_offset 14, -4
 260              		.loc 1 197 0
 261 0012 0C04     		lsls	r4, r1, #16
 262 0014 5C60     		str	r4, [r3, #4]
 263              		.loc 1 198 0
 264 0016 0AB1     		cbz	r2, .L31
 265              		.loc 1 199 0
 266 0018 406A     		ldr	r0, [r0, #36]
 267 001a 9047     		blx	r2
 268              	.LVL13:
 269              	.L31:
 270              		.loc 1 202 0
 271 001c BDE81040 		pop	{r4, lr}
 272              		.loc 1 201 0
 273 0020 FFF7FEBF 		b	_port_irq_epilogue
 274              	.LVL14:
 275              	.L36:
 276              		.align	2
 277              	.L35:
 278 0024 00000000 		.word	.LANCHOR0
 279              		.cfi_endproc
 280              	.LFE122:
 281              		.size	Vector7C, .-Vector7C
ARM GAS  /tmp/ccUacns9.s 			page 6


 282 0028 AFF30080 		.section	.text.Vector80,"ax",%progbits
 282      AFF30080 
 283              		.align	2
 284              		.p2align 4,,15
 285              		.global	Vector80
 286              		.thumb
 287              		.thumb_func
 288              		.type	Vector80, %function
 289              	Vector80:
 290              	.LFB123:
 291              		.loc 1 209 0
 292              		.cfi_startproc
 293              		@ args = 0, pretend = 0, frame = 0
 294              		@ frame_needed = 0, uses_anonymous_args = 0
 295              		.loc 1 214 0
 296 0000 0023     		movs	r3, #0
 297 0002 C4F20203 		movt	r3, 16386
 298              		.loc 1 216 0
 299 0006 0748     		ldr	r0, .L42
 300              		.loc 1 214 0
 301 0008 1968     		ldr	r1, [r3, #0]
 302              		.loc 1 216 0
 303 000a 826A     		ldr	r2, [r0, #40]
 304              		.loc 1 214 0
 305 000c C1F30351 		ubfx	r1, r1, #20, #4
 306              	.LVL15:
 307              		.loc 1 209 0
 308 0010 10B5     		push	{r4, lr}
 309              	.LCFI5:
 310              		.cfi_def_cfa_offset 8
 311              		.cfi_offset 4, -8
 312              		.cfi_offset 14, -4
 313              		.loc 1 215 0
 314 0012 0C05     		lsls	r4, r1, #20
 315 0014 5C60     		str	r4, [r3, #4]
 316              		.loc 1 216 0
 317 0016 0AB1     		cbz	r2, .L38
 318              		.loc 1 217 0
 319 0018 C06A     		ldr	r0, [r0, #44]
 320 001a 9047     		blx	r2
 321              	.LVL16:
 322              	.L38:
 323              		.loc 1 220 0
 324 001c BDE81040 		pop	{r4, lr}
 325              		.loc 1 219 0
 326 0020 FFF7FEBF 		b	_port_irq_epilogue
 327              	.LVL17:
 328              	.L43:
 329              		.align	2
 330              	.L42:
 331 0024 00000000 		.word	.LANCHOR0
 332              		.cfi_endproc
 333              	.LFE123:
 334              		.size	Vector80, .-Vector80
 335 0028 AFF30080 		.section	.text.Vector84,"ax",%progbits
 335      AFF30080 
 336              		.align	2
ARM GAS  /tmp/ccUacns9.s 			page 7


 337              		.p2align 4,,15
 338              		.global	Vector84
 339              		.thumb
 340              		.thumb_func
 341              		.type	Vector84, %function
 342              	Vector84:
 343              	.LFB124:
 344              		.loc 1 227 0
 345              		.cfi_startproc
 346              		@ args = 0, pretend = 0, frame = 0
 347              		@ frame_needed = 0, uses_anonymous_args = 0
 348              		.loc 1 232 0
 349 0000 0023     		movs	r3, #0
 350 0002 C4F20203 		movt	r3, 16386
 351              		.loc 1 234 0
 352 0006 0748     		ldr	r0, .L49
 353              		.loc 1 232 0
 354 0008 1968     		ldr	r1, [r3, #0]
 355              		.loc 1 234 0
 356 000a 026B     		ldr	r2, [r0, #48]
 357              		.loc 1 232 0
 358 000c C1F30361 		ubfx	r1, r1, #24, #4
 359              	.LVL18:
 360              		.loc 1 227 0
 361 0010 10B5     		push	{r4, lr}
 362              	.LCFI6:
 363              		.cfi_def_cfa_offset 8
 364              		.cfi_offset 4, -8
 365              		.cfi_offset 14, -4
 366              		.loc 1 233 0
 367 0012 0C06     		lsls	r4, r1, #24
 368 0014 5C60     		str	r4, [r3, #4]
 369              		.loc 1 234 0
 370 0016 0AB1     		cbz	r2, .L45
 371              		.loc 1 235 0
 372 0018 406B     		ldr	r0, [r0, #52]
 373 001a 9047     		blx	r2
 374              	.LVL19:
 375              	.L45:
 376              		.loc 1 238 0
 377 001c BDE81040 		pop	{r4, lr}
 378              		.loc 1 237 0
 379 0020 FFF7FEBF 		b	_port_irq_epilogue
 380              	.LVL20:
 381              	.L50:
 382              		.align	2
 383              	.L49:
 384 0024 00000000 		.word	.LANCHOR0
 385              		.cfi_endproc
 386              	.LFE124:
 387              		.size	Vector84, .-Vector84
 388 0028 AFF30080 		.section	.text.Vector120,"ax",%progbits
 388      AFF30080 
 389              		.align	2
 390              		.p2align 4,,15
 391              		.global	Vector120
 392              		.thumb
ARM GAS  /tmp/ccUacns9.s 			page 8


 393              		.thumb_func
 394              		.type	Vector120, %function
 395              	Vector120:
 396              	.LFB125:
 397              		.loc 1 245 0
 398              		.cfi_startproc
 399              		@ args = 0, pretend = 0, frame = 0
 400              		@ frame_needed = 0, uses_anonymous_args = 0
 401 0000 08B5     		push	{r3, lr}
 402              	.LCFI7:
 403              		.cfi_def_cfa_offset 8
 404              		.cfi_offset 3, -8
 405              		.cfi_offset 14, -4
 406              		.loc 1 250 0
 407 0002 4FF48063 		mov	r3, #1024
 408 0006 C4F20203 		movt	r3, 16386
 409              		.loc 1 252 0
 410 000a 0648     		ldr	r0, .L56
 411              		.loc 1 250 0
 412 000c 1968     		ldr	r1, [r3, #0]
 413              		.loc 1 252 0
 414 000e 826B     		ldr	r2, [r0, #56]
 415              		.loc 1 250 0
 416 0010 01F00F01 		and	r1, r1, #15
 417              	.LVL21:
 418              		.loc 1 251 0
 419 0014 5960     		str	r1, [r3, #4]
 420              		.loc 1 252 0
 421 0016 0AB1     		cbz	r2, .L52
 422              		.loc 1 253 0
 423 0018 C06B     		ldr	r0, [r0, #60]
 424 001a 9047     		blx	r2
 425              	.LVL22:
 426              	.L52:
 427              		.loc 1 256 0
 428 001c BDE80840 		pop	{r3, lr}
 429              		.loc 1 255 0
 430 0020 FFF7FEBF 		b	_port_irq_epilogue
 431              	.LVL23:
 432              	.L57:
 433              		.align	2
 434              	.L56:
 435 0024 00000000 		.word	.LANCHOR0
 436              		.cfi_endproc
 437              	.LFE125:
 438              		.size	Vector120, .-Vector120
 439 0028 AFF30080 		.section	.text.Vector124,"ax",%progbits
 439      AFF30080 
 440              		.align	2
 441              		.p2align 4,,15
 442              		.global	Vector124
 443              		.thumb
 444              		.thumb_func
 445              		.type	Vector124, %function
 446              	Vector124:
 447              	.LFB126:
 448              		.loc 1 263 0
ARM GAS  /tmp/ccUacns9.s 			page 9


 449              		.cfi_startproc
 450              		@ args = 0, pretend = 0, frame = 0
 451              		@ frame_needed = 0, uses_anonymous_args = 0
 452              		.loc 1 268 0
 453 0000 4FF48063 		mov	r3, #1024
 454 0004 C4F20203 		movt	r3, 16386
 455              		.loc 1 270 0
 456 0008 0748     		ldr	r0, .L63
 457              		.loc 1 268 0
 458 000a 1968     		ldr	r1, [r3, #0]
 459              		.loc 1 270 0
 460 000c 026C     		ldr	r2, [r0, #64]
 461              		.loc 1 268 0
 462 000e C1F30311 		ubfx	r1, r1, #4, #4
 463              	.LVL24:
 464              		.loc 1 263 0
 465 0012 10B5     		push	{r4, lr}
 466              	.LCFI8:
 467              		.cfi_def_cfa_offset 8
 468              		.cfi_offset 4, -8
 469              		.cfi_offset 14, -4
 470              		.loc 1 269 0
 471 0014 0C01     		lsls	r4, r1, #4
 472 0016 5C60     		str	r4, [r3, #4]
 473              		.loc 1 270 0
 474 0018 0AB1     		cbz	r2, .L59
 475              		.loc 1 271 0
 476 001a 406C     		ldr	r0, [r0, #68]
 477 001c 9047     		blx	r2
 478              	.LVL25:
 479              	.L59:
 480              		.loc 1 274 0
 481 001e BDE81040 		pop	{r4, lr}
 482              		.loc 1 273 0
 483 0022 FFF7FEBF 		b	_port_irq_epilogue
 484              	.LVL26:
 485              	.L64:
 486 0026 00BF     		.align	2
 487              	.L63:
 488 0028 00000000 		.word	.LANCHOR0
 489              		.cfi_endproc
 490              	.LFE126:
 491              		.size	Vector124, .-Vector124
 492 002c AFF30080 		.section	.text.Vector128,"ax",%progbits
 493              		.align	2
 494              		.p2align 4,,15
 495              		.global	Vector128
 496              		.thumb
 497              		.thumb_func
 498              		.type	Vector128, %function
 499              	Vector128:
 500              	.LFB127:
 501              		.loc 1 281 0
 502              		.cfi_startproc
 503              		@ args = 0, pretend = 0, frame = 0
 504              		@ frame_needed = 0, uses_anonymous_args = 0
 505              		.loc 1 286 0
ARM GAS  /tmp/ccUacns9.s 			page 10


 506 0000 4FF48063 		mov	r3, #1024
 507 0004 C4F20203 		movt	r3, 16386
 508              		.loc 1 288 0
 509 0008 0748     		ldr	r0, .L70
 510              		.loc 1 286 0
 511 000a 1968     		ldr	r1, [r3, #0]
 512              		.loc 1 288 0
 513 000c 826C     		ldr	r2, [r0, #72]
 514              		.loc 1 286 0
 515 000e C1F30321 		ubfx	r1, r1, #8, #4
 516              	.LVL27:
 517              		.loc 1 281 0
 518 0012 10B5     		push	{r4, lr}
 519              	.LCFI9:
 520              		.cfi_def_cfa_offset 8
 521              		.cfi_offset 4, -8
 522              		.cfi_offset 14, -4
 523              		.loc 1 287 0
 524 0014 0C02     		lsls	r4, r1, #8
 525 0016 5C60     		str	r4, [r3, #4]
 526              		.loc 1 288 0
 527 0018 0AB1     		cbz	r2, .L66
 528              		.loc 1 289 0
 529 001a C06C     		ldr	r0, [r0, #76]
 530 001c 9047     		blx	r2
 531              	.LVL28:
 532              	.L66:
 533              		.loc 1 292 0
 534 001e BDE81040 		pop	{r4, lr}
 535              		.loc 1 291 0
 536 0022 FFF7FEBF 		b	_port_irq_epilogue
 537              	.LVL29:
 538              	.L71:
 539 0026 00BF     		.align	2
 540              	.L70:
 541 0028 00000000 		.word	.LANCHOR0
 542              		.cfi_endproc
 543              	.LFE127:
 544              		.size	Vector128, .-Vector128
 545 002c AFF30080 		.section	.text.Vector12C,"ax",%progbits
 546              		.align	2
 547              		.p2align 4,,15
 548              		.global	Vector12C
 549              		.thumb
 550              		.thumb_func
 551              		.type	Vector12C, %function
 552              	Vector12C:
 553              	.LFB128:
 554              		.loc 1 299 0
 555              		.cfi_startproc
 556              		@ args = 0, pretend = 0, frame = 0
 557              		@ frame_needed = 0, uses_anonymous_args = 0
 558              		.loc 1 304 0
 559 0000 4FF48063 		mov	r3, #1024
 560 0004 C4F20203 		movt	r3, 16386
 561              		.loc 1 306 0
 562 0008 0748     		ldr	r0, .L77
ARM GAS  /tmp/ccUacns9.s 			page 11


 563              		.loc 1 304 0
 564 000a 1968     		ldr	r1, [r3, #0]
 565              		.loc 1 306 0
 566 000c 026D     		ldr	r2, [r0, #80]
 567              		.loc 1 304 0
 568 000e C1F30331 		ubfx	r1, r1, #12, #4
 569              	.LVL30:
 570              		.loc 1 299 0
 571 0012 10B5     		push	{r4, lr}
 572              	.LCFI10:
 573              		.cfi_def_cfa_offset 8
 574              		.cfi_offset 4, -8
 575              		.cfi_offset 14, -4
 576              		.loc 1 305 0
 577 0014 0C03     		lsls	r4, r1, #12
 578 0016 5C60     		str	r4, [r3, #4]
 579              		.loc 1 306 0
 580 0018 0AB1     		cbz	r2, .L73
 581              		.loc 1 307 0
 582 001a 406D     		ldr	r0, [r0, #84]
 583 001c 9047     		blx	r2
 584              	.LVL31:
 585              	.L73:
 586              		.loc 1 310 0
 587 001e BDE81040 		pop	{r4, lr}
 588              		.loc 1 309 0
 589 0022 FFF7FEBF 		b	_port_irq_epilogue
 590              	.LVL32:
 591              	.L78:
 592 0026 00BF     		.align	2
 593              	.L77:
 594 0028 00000000 		.word	.LANCHOR0
 595              		.cfi_endproc
 596              	.LFE128:
 597              		.size	Vector12C, .-Vector12C
 598 002c AFF30080 		.section	.text.Vector130,"ax",%progbits
 599              		.align	2
 600              		.p2align 4,,15
 601              		.global	Vector130
 602              		.thumb
 603              		.thumb_func
 604              		.type	Vector130, %function
 605              	Vector130:
 606              	.LFB129:
 607              		.loc 1 317 0
 608              		.cfi_startproc
 609              		@ args = 0, pretend = 0, frame = 0
 610              		@ frame_needed = 0, uses_anonymous_args = 0
 611              		.loc 1 322 0
 612 0000 4FF48063 		mov	r3, #1024
 613 0004 C4F20203 		movt	r3, 16386
 614              		.loc 1 324 0
 615 0008 0748     		ldr	r0, .L84
 616              		.loc 1 322 0
 617 000a 1968     		ldr	r1, [r3, #0]
 618              		.loc 1 324 0
 619 000c 826D     		ldr	r2, [r0, #88]
ARM GAS  /tmp/ccUacns9.s 			page 12


 620              		.loc 1 322 0
 621 000e C1F30341 		ubfx	r1, r1, #16, #4
 622              	.LVL33:
 623              		.loc 1 317 0
 624 0012 10B5     		push	{r4, lr}
 625              	.LCFI11:
 626              		.cfi_def_cfa_offset 8
 627              		.cfi_offset 4, -8
 628              		.cfi_offset 14, -4
 629              		.loc 1 323 0
 630 0014 0C04     		lsls	r4, r1, #16
 631 0016 5C60     		str	r4, [r3, #4]
 632              		.loc 1 324 0
 633 0018 0AB1     		cbz	r2, .L80
 634              		.loc 1 325 0
 635 001a C06D     		ldr	r0, [r0, #92]
 636 001c 9047     		blx	r2
 637              	.LVL34:
 638              	.L80:
 639              		.loc 1 328 0
 640 001e BDE81040 		pop	{r4, lr}
 641              		.loc 1 327 0
 642 0022 FFF7FEBF 		b	_port_irq_epilogue
 643              	.LVL35:
 644              	.L85:
 645 0026 00BF     		.align	2
 646              	.L84:
 647 0028 00000000 		.word	.LANCHOR0
 648              		.cfi_endproc
 649              	.LFE129:
 650              		.size	Vector130, .-Vector130
 651 002c AFF30080 		.section	.text.dmaInit,"ax",%progbits
 652              		.align	2
 653              		.p2align 4,,15
 654              		.global	dmaInit
 655              		.thumb
 656              		.thumb_func
 657              		.type	dmaInit, %function
 658              	dmaInit:
 659              	.LFB130:
 660              		.loc 1 339 0
 661              		.cfi_startproc
 662              		@ args = 0, pretend = 0, frame = 24
 663              		@ frame_needed = 0, uses_anonymous_args = 0
 664              		@ link register save eliminated.
 665 0000 2DE9F00F 		push	{r4, r5, r6, r7, r8, r9, sl, fp}
 666              	.LCFI12:
 667              		.cfi_def_cfa_offset 32
 668              		.cfi_offset 4, -32
 669              		.cfi_offset 5, -28
 670              		.cfi_offset 6, -24
 671              		.cfi_offset 7, -20
 672              		.cfi_offset 8, -16
 673              		.cfi_offset 9, -12
 674              		.cfi_offset 10, -8
 675              		.cfi_offset 11, -4
 676              		.loc 1 342 0
ARM GAS  /tmp/ccUacns9.s 			page 13


 677 0004 40F20002 		movw	r2, #:lower16:.LANCHOR1
 678              		.loc 1 339 0
 679 0008 86B0     		sub	sp, sp, #24
 680              	.LCFI13:
 681              		.cfi_def_cfa_offset 56
 682              		.loc 1 342 0
 683 000a C0F20002 		movt	r2, #:upper16:.LANCHOR1
 684              		.loc 1 344 0
 685 000e 4FF48660 		mov	r0, #1072
 686              		.loc 1 342 0
 687 0012 0292     		str	r2, [sp, #8]
 688              		.loc 1 344 0
 689 0014 C4F20200 		movt	r0, 16386
 690 0018 40F24442 		movw	r2, #1092
 691 001c 0190     		str	r0, [sp, #4]
 692 001e C4F20202 		movt	r2, 16386
 693 0022 4FF48B60 		mov	r0, #1112
 694 0026 0392     		str	r2, [sp, #12]
 695 0028 C4F20200 		movt	r0, 16386
 696              		.loc 1 349 0
 697 002c 4FF48062 		mov	r2, #1024
 698              		.loc 1 344 0
 699 0030 0490     		str	r0, [sp, #16]
 700              		.loc 1 349 0
 701 0032 C4F20202 		movt	r2, 16386
 702              		.loc 1 342 0
 703 0036 0298     		ldr	r0, [sp, #8]
 704              		.loc 1 349 0
 705 0038 0592     		str	r2, [sp, #20]
 706              		.loc 1 344 0
 707 003a 4FF0080B 		mov	fp, #8
 708              		.loc 1 342 0
 709 003e 0022     		movs	r2, #0
 710              		.loc 1 345 0
 711 0040 40F20003 		movw	r3, #:lower16:.LANCHOR0
 712              		.loc 1 344 0
 713 0044 4FF01C0A 		mov	sl, #28
 714 0048 4FF03009 		mov	r9, #48
 715 004c 4FF04408 		mov	r8, #68
 716 0050 4FF0580C 		mov	ip, #88
 717 0054 6C27     		movs	r7, #108
 718 0056 8026     		movs	r6, #128
 719 0058 4FF48165 		mov	r5, #1032
 720 005c 40F21C44 		movw	r4, #1052
 721              		.loc 1 342 0
 722 0060 0260     		str	r2, [r0, #0]
 723              	.LVL36:
 724              		.loc 1 345 0
 725 0062 C0F20003 		movt	r3, #:upper16:.LANCHOR0
 726              		.loc 1 344 0
 727 0066 0198     		ldr	r0, [sp, #4]
 728 0068 C4F2020B 		movt	fp, 16386
 729 006c C4F2020A 		movt	sl, 16386
 730 0070 C4F20209 		movt	r9, 16386
 731 0074 C4F20208 		movt	r8, 16386
 732 0078 C4F2020C 		movt	ip, 16386
 733 007c C4F20207 		movt	r7, 16386
ARM GAS  /tmp/ccUacns9.s 			page 14


 734 0080 C4F20206 		movt	r6, 16386
 735 0084 C4F20205 		movt	r5, 16386
 736 0088 C4F20204 		movt	r4, 16386
 737 008c CBF80020 		str	r2, [fp, #0]
 738              		.loc 1 345 0
 739 0090 1A60     		str	r2, [r3, #0]
 740              	.LVL37:
 741              		.loc 1 344 0
 742 0092 CAF80020 		str	r2, [sl, #0]
 743              		.loc 1 345 0
 744 0096 9A60     		str	r2, [r3, #8]
 745              	.LVL38:
 746              		.loc 1 344 0
 747 0098 C9F80020 		str	r2, [r9, #0]
 748              		.loc 1 345 0
 749 009c 1A61     		str	r2, [r3, #16]
 750              	.LVL39:
 751              		.loc 1 344 0
 752 009e C8F80020 		str	r2, [r8, #0]
 753              		.loc 1 345 0
 754 00a2 9A61     		str	r2, [r3, #24]
 755              	.LVL40:
 756              		.loc 1 344 0
 757 00a4 CCF80020 		str	r2, [ip, #0]
 758              		.loc 1 345 0
 759 00a8 1A62     		str	r2, [r3, #32]
 760              	.LVL41:
 761              		.loc 1 344 0
 762 00aa 3A60     		str	r2, [r7, #0]
 763              		.loc 1 345 0
 764 00ac 9A62     		str	r2, [r3, #40]
 765              	.LVL42:
 766              		.loc 1 344 0
 767 00ae 3260     		str	r2, [r6, #0]
 768              		.loc 1 345 0
 769 00b0 1A63     		str	r2, [r3, #48]
 770              	.LVL43:
 771              		.loc 1 344 0
 772 00b2 2A60     		str	r2, [r5, #0]
 773              		.loc 1 345 0
 774 00b4 9A63     		str	r2, [r3, #56]
 775              	.LVL44:
 776              		.loc 1 344 0
 777 00b6 2260     		str	r2, [r4, #0]
 778              		.loc 1 345 0
 779 00b8 1A64     		str	r2, [r3, #64]
 780              	.LVL45:
 781              		.loc 1 344 0
 782 00ba 0260     		str	r2, [r0, #0]
 783 00bc 0398     		ldr	r0, [sp, #12]
 784              		.loc 1 345 0
 785 00be 9A64     		str	r2, [r3, #72]
 786              	.LVL46:
 787              		.loc 1 344 0
 788 00c0 0260     		str	r2, [r0, #0]
 789 00c2 0498     		ldr	r0, [sp, #16]
 790              		.loc 1 345 0
ARM GAS  /tmp/ccUacns9.s 			page 15


 791 00c4 1A65     		str	r2, [r3, #80]
 792              	.LVL47:
 793              		.loc 1 347 0
 794 00c6 0021     		movs	r1, #0
 795              		.loc 1 344 0
 796 00c8 0260     		str	r2, [r0, #0]
 797              		.loc 1 347 0
 798 00ca C4F20201 		movt	r1, 16386
 799              		.loc 1 345 0
 800 00ce 9A65     		str	r2, [r3, #88]
 801              	.LVL48:
 802              		.loc 1 349 0
 803 00d0 059B     		ldr	r3, [sp, #20]
 804              		.loc 1 347 0
 805 00d2 4FF0FF32 		mov	r2, #-1
 806 00d6 4A60     		str	r2, [r1, #4]
 807              		.loc 1 349 0
 808 00d8 5A60     		str	r2, [r3, #4]
 809              		.loc 1 351 0
 810 00da 06B0     		add	sp, sp, #24
 811 00dc BDE8F00F 		pop	{r4, r5, r6, r7, r8, r9, sl, fp}
 812 00e0 7047     		bx	lr
 813              		.cfi_endproc
 814              	.LFE130:
 815              		.size	dmaInit, .-dmaInit
 816 00e2 00BFAFF3 		.section	.text.dmaStreamAllocate,"ax",%progbits
 816      0080AFF3 
 816      0080AFF3 
 816      0080
 817              		.align	2
 818              		.p2align 4,,15
 819              		.global	dmaStreamAllocate
 820              		.thumb
 821              		.thumb_func
 822              		.type	dmaStreamAllocate, %function
 823              	dmaStreamAllocate:
 824              	.LFB131:
 825              		.loc 1 380 0
 826              		.cfi_startproc
 827              		@ args = 0, pretend = 0, frame = 0
 828              		@ frame_needed = 0, uses_anonymous_args = 0
 829              	.LVL49:
 830 0000 2DE9F041 		push	{r4, r5, r6, r7, r8, lr}
 831              	.LCFI14:
 832              		.cfi_def_cfa_offset 24
 833              		.cfi_offset 4, -24
 834              		.cfi_offset 5, -20
 835              		.cfi_offset 6, -16
 836              		.cfi_offset 7, -12
 837              		.cfi_offset 8, -8
 838              		.cfi_offset 14, -4
 839              		.loc 1 385 0
 840 0004 214D     		ldr	r5, .L99
 841 0006 447A     		ldrb	r4, [r0, #9]	@ zero_extendqisi2
 842 0008 2E68     		ldr	r6, [r5, #0]
 843 000a 4FF0010C 		mov	ip, #1
 844 000e 0CFA04F7 		lsl	r7, ip, r4
ARM GAS  /tmp/ccUacns9.s 			page 16


 845 0012 3742     		tst	r7, r6
 846 0014 33D1     		bne	.L91
 847              		.loc 1 389 0
 848 0016 DFF878C0 		ldr	ip, .L99+4
 849              		.loc 1 390 0
 850 001a 0CEBC408 		add	r8, ip, r4, lsl #3
 851              		.loc 1 391 0
 852 001e 3E43     		orrs	r6, r6, r7
 853              		.loc 1 390 0
 854 0020 C8F80430 		str	r3, [r8, #4]
 855              		.loc 1 394 0
 856 0024 7306     		lsls	r3, r6, #25
 857              	.LVL50:
 858              		.loc 1 389 0
 859 0026 4CF83420 		str	r2, [ip, r4, lsl #3]
 860              		.loc 1 391 0
 861 002a 2E60     		str	r6, [r5, #0]
 862              		.loc 1 394 0
 863 002c 07D0     		beq	.L89
 864              		.loc 1 395 0
 865 002e 4FF48053 		mov	r3, #4096
 866 0032 C4F20203 		movt	r3, 16386
 867 0036 5C69     		ldr	r4, [r3, #20]
 868 0038 44F00105 		orr	r5, r4, #1
 869 003c 5D61     		str	r5, [r3, #20]
 870              	.L89:
 871              		.loc 1 397 0
 872 003e 16F4786F 		tst	r6, #3968
 873 0042 07D0     		beq	.L90
 874              		.loc 1 398 0
 875 0044 4FF48056 		mov	r6, #4096
 876 0048 C4F20206 		movt	r6, 16386
 877 004c 7369     		ldr	r3, [r6, #20]
 878 004e 43F00204 		orr	r4, r3, #2
 879 0052 7461     		str	r4, [r6, #20]
 880              	.L90:
 881              		.loc 1 402 0
 882 0054 90E82800 		ldmia	r0, {r3, r5}
 883 0058 1E68     		ldr	r6, [r3, #0]
 884 005a 26F00F04 		bic	r4, r6, #15
 885 005e 1C60     		str	r4, [r3, #0]
 886 0060 047A     		ldrb	r4, [r0, #8]	@ zero_extendqisi2
 887 0062 0F26     		movs	r6, #15
 888 0064 06FA04F6 		lsl	r6, r6, r4
 889              		.loc 1 403 0
 890 0068 0024     		movs	r4, #0
 891              		.loc 1 402 0
 892 006a 2E60     		str	r6, [r5, #0]
 893              		.loc 1 403 0
 894 006c 1C60     		str	r4, [r3, #0]
 895              		.loc 1 406 0
 896 006e 4AB1     		cbz	r2, .L92
 897              		.loc 1 407 0
 898 0070 807A     		ldrb	r0, [r0, #10]	@ zero_extendqisi2
 899              	.LVL51:
 900 0072 0901     		lsls	r1, r1, #4
 901              	.LVL52:
ARM GAS  /tmp/ccUacns9.s 			page 17


 902 0074 FFF7FEFF 		bl	nvicEnableVector
 903              	.LVL53:
 904              		.loc 1 409 0
 905 0078 2046     		mov	r0, r4
 906 007a BDE8F081 		pop	{r4, r5, r6, r7, r8, pc}
 907              	.LVL54:
 908              	.L91:
 909              		.loc 1 386 0
 910 007e 6046     		mov	r0, ip
 911              	.LVL55:
 912 0080 BDE8F081 		pop	{r4, r5, r6, r7, r8, pc}
 913              	.LVL56:
 914              	.L92:
 915              		.loc 1 409 0
 916 0084 1046     		mov	r0, r2
 917              	.LVL57:
 918              		.loc 1 410 0
 919 0086 BDE8F081 		pop	{r4, r5, r6, r7, r8, pc}
 920              	.L100:
 921 008a 00BF     		.align	2
 922              	.L99:
 923 008c 00000000 		.word	.LANCHOR1
 924 0090 00000000 		.word	.LANCHOR0
 925              		.cfi_endproc
 926              	.LFE131:
 927              		.size	dmaStreamAllocate, .-dmaStreamAllocate
 928 0094 AFF30080 		.section	.text.dmaStreamRelease,"ax",%progbits
 928      AFF30080 
 928      AFF30080 
 929              		.align	2
 930              		.p2align 4,,15
 931              		.global	dmaStreamRelease
 932              		.thumb
 933              		.thumb_func
 934              		.type	dmaStreamRelease, %function
 935              	dmaStreamRelease:
 936              	.LFB132:
 937              		.loc 1 425 0
 938              		.cfi_startproc
 939              		@ args = 0, pretend = 0, frame = 0
 940              		@ frame_needed = 0, uses_anonymous_args = 0
 941              	.LVL58:
 942 0000 10B5     		push	{r4, lr}
 943              	.LCFI15:
 944              		.cfi_def_cfa_offset 8
 945              		.cfi_offset 4, -8
 946              		.cfi_offset 14, -4
 947              		.loc 1 425 0
 948 0002 0446     		mov	r4, r0
 949              		.loc 1 434 0
 950 0004 807A     		ldrb	r0, [r0, #10]	@ zero_extendqisi2
 951              	.LVL59:
 952 0006 FFF7FEFF 		bl	nvicDisableVector
 953              	.LVL60:
 954              		.loc 1 437 0
 955 000a 0F4A     		ldr	r2, .L104
 956 000c 637A     		ldrb	r3, [r4, #9]	@ zero_extendqisi2
ARM GAS  /tmp/ccUacns9.s 			page 18


 957 000e 1168     		ldr	r1, [r2, #0]
 958 0010 0120     		movs	r0, #1
 959 0012 00FA03F3 		lsl	r3, r0, r3
 960 0016 21EA0300 		bic	r0, r1, r3
 961 001a 1060     		str	r0, [r2, #0]
 962              		.loc 1 440 0
 963 001c 4206     		lsls	r2, r0, #25
 964 001e 07D1     		bne	.L102
 965              		.loc 1 441 0
 966 0020 4FF48052 		mov	r2, #4096
 967 0024 C4F20202 		movt	r2, 16386
 968 0028 5169     		ldr	r1, [r2, #20]
 969 002a 21F00103 		bic	r3, r1, #1
 970 002e 5361     		str	r3, [r2, #20]
 971              	.L102:
 972              		.loc 1 443 0
 973 0030 10F4786F 		tst	r0, #3968
 974 0034 07D1     		bne	.L101
 975              		.loc 1 444 0
 976 0036 4FF48050 		mov	r0, #4096
 977 003a C4F20200 		movt	r0, 16386
 978 003e 4269     		ldr	r2, [r0, #20]
 979 0040 22F00201 		bic	r1, r2, #2
 980 0044 4161     		str	r1, [r0, #20]
 981              	.L101:
 982 0046 10BD     		pop	{r4, pc}
 983              	.L105:
 984              		.align	2
 985              	.L104:
 986 0048 00000000 		.word	.LANCHOR1
 987              		.cfi_endproc
 988              	.LFE132:
 989              		.size	dmaStreamRelease, .-dmaStreamRelease
 990              		.global	_stm32_dma_streams
 991 004c AFF30080 		.section	.bss.dma_isr_redir,"aw",%nobits
 992              		.align	2
 993              		.set	.LANCHOR0,. + 0
 994              		.type	dma_isr_redir, %object
 995              		.size	dma_isr_redir, 96
 996              	dma_isr_redir:
 997 0000 00000000 		.space	96
 997      00000000 
 997      00000000 
 997      00000000 
 997      00000000 
 998              		.section	.rodata._stm32_dma_streams,"a",%progbits
 999              		.align	2
 1000              		.type	_stm32_dma_streams, %object
 1001              		.size	_stm32_dma_streams, 144
 1002              	_stm32_dma_streams:
 1003 0000 08000240 		.word	1073872904
 1004 0004 04000240 		.word	1073872900
 1005 0008 00       		.byte	0
 1006 0009 00       		.byte	0
 1007 000a 0B       		.byte	11
 1008 000b 00       		.space	1
 1009 000c 1C000240 		.word	1073872924
ARM GAS  /tmp/ccUacns9.s 			page 19


 1010 0010 04000240 		.word	1073872900
 1011 0014 04       		.byte	4
 1012 0015 01       		.byte	1
 1013 0016 0C       		.byte	12
 1014 0017 00       		.space	1
 1015 0018 30000240 		.word	1073872944
 1016 001c 04000240 		.word	1073872900
 1017 0020 08       		.byte	8
 1018 0021 02       		.byte	2
 1019 0022 0D       		.byte	13
 1020 0023 00       		.space	1
 1021 0024 44000240 		.word	1073872964
 1022 0028 04000240 		.word	1073872900
 1023 002c 0C       		.byte	12
 1024 002d 03       		.byte	3
 1025 002e 0E       		.byte	14
 1026 002f 00       		.space	1
 1027 0030 58000240 		.word	1073872984
 1028 0034 04000240 		.word	1073872900
 1029 0038 10       		.byte	16
 1030 0039 04       		.byte	4
 1031 003a 0F       		.byte	15
 1032 003b 00       		.space	1
 1033 003c 6C000240 		.word	1073873004
 1034 0040 04000240 		.word	1073872900
 1035 0044 14       		.byte	20
 1036 0045 05       		.byte	5
 1037 0046 10       		.byte	16
 1038 0047 00       		.space	1
 1039 0048 80000240 		.word	1073873024
 1040 004c 04000240 		.word	1073872900
 1041 0050 18       		.byte	24
 1042 0051 06       		.byte	6
 1043 0052 11       		.byte	17
 1044 0053 00       		.space	1
 1045 0054 08040240 		.word	1073873928
 1046 0058 04040240 		.word	1073873924
 1047 005c 00       		.byte	0
 1048 005d 07       		.byte	7
 1049 005e 38       		.byte	56
 1050 005f 00       		.space	1
 1051 0060 1C040240 		.word	1073873948
 1052 0064 04040240 		.word	1073873924
 1053 0068 04       		.byte	4
 1054 0069 08       		.byte	8
 1055 006a 39       		.byte	57
 1056 006b 00       		.space	1
 1057 006c 30040240 		.word	1073873968
 1058 0070 04040240 		.word	1073873924
 1059 0074 08       		.byte	8
 1060 0075 09       		.byte	9
 1061 0076 3A       		.byte	58
 1062 0077 00       		.space	1
 1063 0078 44040240 		.word	1073873988
 1064 007c 04040240 		.word	1073873924
 1065 0080 0C       		.byte	12
 1066 0081 0A       		.byte	10
ARM GAS  /tmp/ccUacns9.s 			page 20


 1067 0082 3B       		.byte	59
 1068 0083 00       		.space	1
 1069 0084 58040240 		.word	1073874008
 1070 0088 04040240 		.word	1073873924
 1071 008c 10       		.byte	16
 1072 008d 0B       		.byte	11
 1073 008e 3C       		.byte	60
 1074 008f 00       		.space	1
 1075              		.section	.bss.dma_streams_mask,"aw",%nobits
 1076              		.align	2
 1077              		.set	.LANCHOR1,. + 0
 1078              		.type	dma_streams_mask, %object
 1079              		.size	dma_streams_mask, 4
 1080              	dma_streams_mask:
 1081 0000 00000000 		.space	4
 1082              		.text
 1083              	.Letext0:
 1084              		.file 2 "/opt/ARM/gcc-arm-none-eabi-4_7-2013q3/bin/../lib/gcc/arm-none-eabi/4.7.4/../../../../arm-
 1085              		.file 3 "chibios/os/ports/GCC/ARMCMx/chtypes.h"
 1086              		.file 4 "chibios/os/hal/platforms/STM32F30x/stm32f30x.h"
 1087              		.file 5 "chibios/os/hal/platforms/STM32F30x/stm32_dma.h"
 1088              		.file 6 "chibios/os/ports/common/ARMCMx/CMSIS/include/core_cm4.h"
 1089              		.file 7 "chibios/os/ports/GCC/ARMCMx/chcore_v7m.h"
 1090              		.file 8 "chibios/os/ports/common/ARMCMx/nvic.h"