ARM GAS  /tmp/ccLIbcti.s 			page 1


   1              		.syntax unified
   2              		.cpu cortex-m4
   3              		.fpu softvfp
   4              		.eabi_attribute 20, 1
   5              		.eabi_attribute 21, 1
   6              		.eabi_attribute 23, 3
   7              		.eabi_attribute 24, 1
   8              		.eabi_attribute 25, 1
   9              		.eabi_attribute 26, 1
  10              		.eabi_attribute 30, 2
  11              		.eabi_attribute 34, 1
  12              		.eabi_attribute 18, 4
  13              		.thumb
  14              		.file	"uart_scp.c"
  15              		.text
  16              	.Ltext0:
  17              		.cfi_sections	.debug_frame
  18              		.section	.text.txend1,"ax",%progbits
  19              		.align	2
  20              		.p2align 4,,15
  21              		.thumb
  22              		.thumb_func
  23              		.type	txend1, %function
  24              	txend1:
  25              	.LFB119:
  26              		.file 1 "src/uart_scp.c"
  27              		.loc 1 54 0
  28              		.cfi_startproc
  29              		@ args = 0, pretend = 0, frame = 0
  30              		@ frame_needed = 0, uses_anonymous_args = 0
  31              		@ link register save eliminated.
  32              	.LVL0:
  33 0000 7047     		bx	lr
  34              		.cfi_endproc
  35              	.LFE119:
  36              		.size	txend1, .-txend1
  37 0002 00BFAFF3 		.section	.text.txend2,"ax",%progbits
  37      0080AFF3 
  37      0080AFF3 
  37      0080
  38              		.align	2
  39              		.p2align 4,,15
  40              		.thumb
  41              		.thumb_func
  42              		.type	txend2, %function
  43              	txend2:
  44              	.LFB120:
  45              		.loc 1 61 0
  46              		.cfi_startproc
  47              		@ args = 0, pretend = 0, frame = 0
  48              		@ frame_needed = 0, uses_anonymous_args = 0
  49              		@ link register save eliminated.
  50              	.LVL1:
  51 0000 7047     		bx	lr
  52              		.cfi_endproc
  53              	.LFE120:
  54              		.size	txend2, .-txend2
ARM GAS  /tmp/ccLIbcti.s 			page 2


  55 0002 00BFAFF3 		.section	.text.rxerr,"ax",%progbits
  55      0080AFF3 
  55      0080AFF3 
  55      0080
  56              		.align	2
  57              		.p2align 4,,15
  58              		.thumb
  59              		.thumb_func
  60              		.type	rxerr, %function
  61              	rxerr:
  62              	.LFB121:
  63              		.loc 1 69 0
  64              		.cfi_startproc
  65              		@ args = 0, pretend = 0, frame = 0
  66              		@ frame_needed = 0, uses_anonymous_args = 0
  67              		@ link register save eliminated.
  68              	.LVL2:
  69 0000 7047     		bx	lr
  70              		.cfi_endproc
  71              	.LFE121:
  72              		.size	rxerr, .-rxerr
  73 0002 00BFAFF3 		.section	.text.rxchar,"ax",%progbits
  73      0080AFF3 
  73      0080AFF3 
  73      0080
  74              		.align	2
  75              		.p2align 4,,15
  76              		.thumb
  77              		.thumb_func
  78              		.type	rxchar, %function
  79              	rxchar:
  80              	.LFB122:
  81              		.loc 1 78 0
  82              		.cfi_startproc
  83              		@ args = 0, pretend = 0, frame = 0
  84              		@ frame_needed = 0, uses_anonymous_args = 0
  85              		@ link register save eliminated.
  86              	.LVL3:
  87 0000 7047     		bx	lr
  88              		.cfi_endproc
  89              	.LFE122:
  90              		.size	rxchar, .-rxchar
  91 0002 00BFAFF3 		.section	.text.crc8,"ax",%progbits
  91      0080AFF3 
  91      0080AFF3 
  91      0080
  92              		.align	2
  93              		.p2align 4,,15
  94              		.global	crc8
  95              		.thumb
  96              		.thumb_func
  97              		.type	crc8, %function
  98              	crc8:
  99              	.LFB118:
 100              		.loc 1 17 0
 101              		.cfi_startproc
 102              		@ args = 0, pretend = 0, frame = 0
ARM GAS  /tmp/ccLIbcti.s 			page 3


 103              		@ frame_needed = 0, uses_anonymous_args = 0
 104              		@ link register save eliminated.
 105              	.LVL4:
 106              		.loc 1 17 0
 107 0000 30B4     		push	{r4, r5}
 108              	.LCFI0:
 109              		.cfi_def_cfa_offset 8
 110              		.cfi_offset 4, -8
 111              		.cfi_offset 5, -4
 112              		.loc 1 17 0
 113 0002 0546     		mov	r5, r0
 114              		.loc 1 26 0
 115 0004 0029     		cmp	r1, #0
 116 0006 00F08680 		beq	.L24
 117 000a 0023     		movs	r3, #0
 118 000c 1846     		mov	r0, r3
 119              	.LVL5:
 120 000e 2DE0     		b	.L22
 121              	.LVL6:
 122              	.L29:
 123              		.loc 1 36 0
 124 0010 4208     		lsrs	r2, r0, #1
 125              	.LVL7:
 126              		.loc 1 41 0
 127 0012 6408     		lsrs	r4, r4, #1
 128              	.LVL8:
 129              		.loc 1 31 0
 130 0014 82EA0400 		eor	r0, r2, r4
 131              		.loc 1 33 0
 132 0018 C007     		lsls	r0, r0, #31
 133 001a 36D4     		bmi	.L9
 134              	.LVL9:
 135              	.L30:
 136              		.loc 1 36 0
 137 001c 5208     		lsrs	r2, r2, #1
 138              	.LVL10:
 139              		.loc 1 41 0
 140 001e 6408     		lsrs	r4, r4, #1
 141              	.LVL11:
 142              		.loc 1 31 0
 143 0020 82EA0400 		eor	r0, r2, r4
 144              		.loc 1 33 0
 145 0024 C007     		lsls	r0, r0, #31
 146 0026 3AD4     		bmi	.L11
 147              	.LVL12:
 148              	.L31:
 149              		.loc 1 36 0
 150 0028 5208     		lsrs	r2, r2, #1
 151              	.LVL13:
 152              		.loc 1 41 0
 153 002a 6408     		lsrs	r4, r4, #1
 154              	.LVL14:
 155              		.loc 1 31 0
 156 002c 82EA0400 		eor	r0, r2, r4
 157              		.loc 1 33 0
 158 0030 C007     		lsls	r0, r0, #31
 159 0032 3ED4     		bmi	.L13
ARM GAS  /tmp/ccLIbcti.s 			page 4


 160              	.LVL15:
 161              	.L32:
 162              		.loc 1 36 0
 163 0034 5208     		lsrs	r2, r2, #1
 164              	.LVL16:
 165              		.loc 1 41 0
 166 0036 6408     		lsrs	r4, r4, #1
 167              	.LVL17:
 168              		.loc 1 31 0
 169 0038 82EA0400 		eor	r0, r2, r4
 170              		.loc 1 33 0
 171 003c C007     		lsls	r0, r0, #31
 172 003e 42D4     		bmi	.L15
 173              	.LVL18:
 174              	.L33:
 175              		.loc 1 36 0
 176 0040 5208     		lsrs	r2, r2, #1
 177              	.LVL19:
 178              		.loc 1 41 0
 179 0042 6408     		lsrs	r4, r4, #1
 180              	.LVL20:
 181              		.loc 1 31 0
 182 0044 82EA0400 		eor	r0, r2, r4
 183              		.loc 1 33 0
 184 0048 C007     		lsls	r0, r0, #31
 185 004a 46D4     		bmi	.L17
 186              	.LVL21:
 187              	.L34:
 188              		.loc 1 36 0
 189 004c 5208     		lsrs	r2, r2, #1
 190              	.LVL22:
 191              		.loc 1 41 0
 192 004e 6408     		lsrs	r4, r4, #1
 193              	.LVL23:
 194              		.loc 1 31 0
 195 0050 82EA0400 		eor	r0, r2, r4
 196              		.loc 1 33 0
 197 0054 C007     		lsls	r0, r0, #31
 198 0056 4AD4     		bmi	.L19
 199              	.LVL24:
 200              	.L35:
 201              		.loc 1 36 0
 202 0058 5208     		lsrs	r2, r2, #1
 203              	.LVL25:
 204              		.loc 1 31 0
 205 005a 82EA5404 		eor	r4, r2, r4, lsr #1
 206              	.LVL26:
 207              		.loc 1 33 0
 208 005e E007     		lsls	r0, r4, #31
 209 0060 4ED4     		bmi	.L28
 210              	.LVL27:
 211              	.L21:
 212              		.loc 1 26 0
 213 0062 0133     		adds	r3, r3, #1
 214 0064 DBB2     		uxtb	r3, r3
 215              		.loc 1 36 0
 216 0066 5008     		lsrs	r0, r2, #1
ARM GAS  /tmp/ccLIbcti.s 			page 5


 217              	.LVL28:
 218              		.loc 1 26 0
 219 0068 8B42     		cmp	r3, r1
 220 006a 52D0     		beq	.L26
 221              	.LVL29:
 222              	.L22:
 223              		.loc 1 27 0
 224 006c EC5C     		ldrb	r4, [r5, r3]	@ zero_extendqisi2
 225              	.LVL30:
 226              		.loc 1 31 0
 227 006e 84EA0002 		eor	r2, r4, r0
 228              		.loc 1 33 0
 229 0072 D207     		lsls	r2, r2, #31
 230 0074 CCD5     		bpl	.L29
 231              		.loc 1 34 0
 232 0076 80F00700 		eor	r0, r0, #7
 233              	.LVL31:
 234              		.loc 1 36 0
 235 007a 4208     		lsrs	r2, r0, #1
 236              	.LVL32:
 237              		.loc 1 41 0
 238 007c 6408     		lsrs	r4, r4, #1
 239              	.LVL33:
 240              		.loc 1 38 0
 241 007e 42F08002 		orr	r2, r2, #128
 242              	.LVL34:
 243              		.loc 1 31 0
 244 0082 82EA0400 		eor	r0, r2, r4
 245              		.loc 1 33 0
 246 0086 C007     		lsls	r0, r0, #31
 247 0088 C8D5     		bpl	.L30
 248              	.LVL35:
 249              	.L9:
 250              		.loc 1 34 0
 251 008a 82F00702 		eor	r2, r2, #7
 252              	.LVL36:
 253              		.loc 1 36 0
 254 008e 5008     		lsrs	r0, r2, #1
 255              	.LVL37:
 256              		.loc 1 41 0
 257 0090 6408     		lsrs	r4, r4, #1
 258              		.loc 1 38 0
 259 0092 40F08002 		orr	r2, r0, #128
 260              	.LVL38:
 261              		.loc 1 31 0
 262 0096 82EA0400 		eor	r0, r2, r4
 263              		.loc 1 33 0
 264 009a C007     		lsls	r0, r0, #31
 265 009c C4D5     		bpl	.L31
 266              	.LVL39:
 267              	.L11:
 268              		.loc 1 34 0
 269 009e 82F00702 		eor	r2, r2, #7
 270              	.LVL40:
 271              		.loc 1 36 0
 272 00a2 5008     		lsrs	r0, r2, #1
 273              	.LVL41:
ARM GAS  /tmp/ccLIbcti.s 			page 6


 274              		.loc 1 41 0
 275 00a4 6408     		lsrs	r4, r4, #1
 276              		.loc 1 38 0
 277 00a6 40F08002 		orr	r2, r0, #128
 278              	.LVL42:
 279              		.loc 1 31 0
 280 00aa 82EA0400 		eor	r0, r2, r4
 281              		.loc 1 33 0
 282 00ae C007     		lsls	r0, r0, #31
 283 00b0 C0D5     		bpl	.L32
 284              	.LVL43:
 285              	.L13:
 286              		.loc 1 34 0
 287 00b2 82F00702 		eor	r2, r2, #7
 288              	.LVL44:
 289              		.loc 1 36 0
 290 00b6 5008     		lsrs	r0, r2, #1
 291              	.LVL45:
 292              		.loc 1 41 0
 293 00b8 6408     		lsrs	r4, r4, #1
 294              		.loc 1 38 0
 295 00ba 40F08002 		orr	r2, r0, #128
 296              	.LVL46:
 297              		.loc 1 31 0
 298 00be 82EA0400 		eor	r0, r2, r4
 299              		.loc 1 33 0
 300 00c2 C007     		lsls	r0, r0, #31
 301 00c4 BCD5     		bpl	.L33
 302              	.LVL47:
 303              	.L15:
 304              		.loc 1 34 0
 305 00c6 82F00702 		eor	r2, r2, #7
 306              	.LVL48:
 307              		.loc 1 36 0
 308 00ca 5008     		lsrs	r0, r2, #1
 309              	.LVL49:
 310              		.loc 1 41 0
 311 00cc 6408     		lsrs	r4, r4, #1
 312              		.loc 1 38 0
 313 00ce 40F08002 		orr	r2, r0, #128
 314              	.LVL50:
 315              		.loc 1 31 0
 316 00d2 82EA0400 		eor	r0, r2, r4
 317              		.loc 1 33 0
 318 00d6 C007     		lsls	r0, r0, #31
 319 00d8 B8D5     		bpl	.L34
 320              	.LVL51:
 321              	.L17:
 322              		.loc 1 34 0
 323 00da 82F00702 		eor	r2, r2, #7
 324              	.LVL52:
 325              		.loc 1 36 0
 326 00de 5008     		lsrs	r0, r2, #1
 327              	.LVL53:
 328              		.loc 1 41 0
 329 00e0 6408     		lsrs	r4, r4, #1
 330              		.loc 1 38 0
ARM GAS  /tmp/ccLIbcti.s 			page 7


 331 00e2 40F08002 		orr	r2, r0, #128
 332              	.LVL54:
 333              		.loc 1 31 0
 334 00e6 82EA0400 		eor	r0, r2, r4
 335              		.loc 1 33 0
 336 00ea C007     		lsls	r0, r0, #31
 337 00ec B4D5     		bpl	.L35
 338              	.LVL55:
 339              	.L19:
 340              		.loc 1 34 0
 341 00ee 82F00702 		eor	r2, r2, #7
 342              	.LVL56:
 343              		.loc 1 36 0
 344 00f2 5008     		lsrs	r0, r2, #1
 345              	.LVL57:
 346              		.loc 1 38 0
 347 00f4 40F08002 		orr	r2, r0, #128
 348              	.LVL58:
 349              		.loc 1 31 0
 350 00f8 82EA5404 		eor	r4, r2, r4, lsr #1
 351              	.LVL59:
 352              		.loc 1 33 0
 353 00fc E007     		lsls	r0, r4, #31
 354 00fe B0D5     		bpl	.L21
 355              	.LVL60:
 356              	.L28:
 357              		.loc 1 26 0
 358 0100 0133     		adds	r3, r3, #1
 359              		.loc 1 34 0
 360 0102 82F00700 		eor	r0, r2, #7
 361              	.LVL61:
 362              		.loc 1 26 0
 363 0106 DBB2     		uxtb	r3, r3
 364              		.loc 1 36 0
 365 0108 4208     		lsrs	r2, r0, #1
 366              	.LVL62:
 367              		.loc 1 26 0
 368 010a 8B42     		cmp	r3, r1
 369              		.loc 1 38 0
 370 010c 42F08000 		orr	r0, r2, #128
 371              	.LVL63:
 372              		.loc 1 26 0
 373 0110 ACD1     		bne	.L22
 374              	.LVL64:
 375              	.L26:
 376              		.loc 1 48 0
 377 0112 30BC     		pop	{r4, r5}
 378 0114 7047     		bx	lr
 379              	.LVL65:
 380              	.L24:
 381              		.loc 1 24 0
 382 0116 0846     		mov	r0, r1
 383              	.LVL66:
 384 0118 FBE7     		b	.L26
 385              		.cfi_endproc
 386              	.LFE118:
 387              		.size	crc8, .-crc8
ARM GAS  /tmp/ccLIbcti.s 			page 8


 388 011a 00BFAFF3 		.section	.text.rxend,"ax",%progbits
 388      0080
 389              		.align	2
 390              		.p2align 4,,15
 391              		.thumb
 392              		.thumb_func
 393              		.type	rxend, %function
 394              	rxend:
 395              	.LFB123:
 396              		.loc 1 86 0
 397              		.cfi_startproc
 398              		@ args = 0, pretend = 0, frame = 0
 399              		@ frame_needed = 0, uses_anonymous_args = 0
 400              	.LVL67:
 401 0000 10B5     		push	{r4, lr}
 402              	.LCFI1:
 403              		.cfi_def_cfa_offset 8
 404              		.cfi_offset 4, -8
 405              		.cfi_offset 14, -4
 406              	.LBB9:
 407              		.loc 1 89 0
 408 0002 2023     		movs	r3, #32
 409              	.LVL68:
 410              	@ 89 "src/uart_scp.c" 1
 411 0004 83F31188 		msr     BASEPRI, r3
 412              	@ 0 "" 2
 413              	.LVL69:
 414              		.thumb
 415              	.LBE9:
 416              		.loc 1 91 0
 417 0008 2C4C     		ldr	r4, .L47
 418 000a 0721     		movs	r1, #7
 419 000c 2046     		mov	r0, r4
 420              	.LVL70:
 421 000e FFF7FEFF 		bl	crc8
 422              	.LVL71:
 423              		.loc 1 94 0
 424 0012 E379     		ldrb	r3, [r4, #7]	@ zero_extendqisi2
 425 0014 8342     		cmp	r3, r0
 426 0016 00D0     		beq	.L45
 427 0018 10BD     		pop	{r4, pc}
 428              	.L45:
 429              	.LBB10:
 430              	.LBB11:
 431              		.loc 1 95 0
 432 001a 2078     		ldrb	r0, [r4, #0]	@ zero_extendqisi2
 433              	.LVL72:
 434 001c F028     		cmp	r0, #240
 435 001e 22D0     		beq	.L39
 436 0020 F128     		cmp	r0, #241
 437 0022 13D0     		beq	.L40
 438 0024 264C     		ldr	r4, .L47+4
 439              	.L38:
 440              		.loc 1 132 0
 441 0026 0721     		movs	r1, #7
 442 0028 2548     		ldr	r0, .L47+4
 443 002a FFF7FEFF 		bl	crc8
ARM GAS  /tmp/ccLIbcti.s 			page 9


 444              	.LVL73:
 445              		.loc 1 133 0
 446 002e 0821     		movs	r1, #8
 447              		.loc 1 132 0
 448 0030 E071     		strb	r0, [r4, #7]
 449              		.loc 1 133 0
 450 0032 234A     		ldr	r2, .L47+4
 451 0034 2348     		ldr	r0, .L47+8
 452 0036 FFF7FEFF 		bl	uartStartSendI
 453              	.LVL74:
 454              		.loc 1 134 0
 455 003a 2248     		ldr	r0, .L47+8
 456 003c 1F4A     		ldr	r2, .L47
 457 003e 0821     		movs	r1, #8
 458 0040 FFF7FEFF 		bl	uartStartReceiveI
 459              	.LVL75:
 460              	.LBB12:
 461              		.loc 1 136 0
 462 0044 0023     		movs	r3, #0
 463              	.LVL76:
 464              	@ 136 "src/uart_scp.c" 1
 465 0046 83F31188 		msr     BASEPRI, r3
 466              	@ 0 "" 2
 467              	.LVL77:
 468              		.thumb
 469 004a 10BD     		pop	{r4, pc}
 470              	.LVL78:
 471              	.L40:
 472              	.LBE12:
 473              		.loc 1 114 0
 474 004c 6178     		ldrb	r1, [r4, #1]	@ zero_extendqisi2
 475 004e B9B9     		cbnz	r1, .L43
 476              		.loc 1 115 0
 477 0050 4FF48051 		mov	r1, #4096
 478 0054 C4F60001 		movt	r1, 18432
 479              		.loc 1 117 0
 480 0058 194C     		ldr	r4, .L47+4
 481              		.loc 1 115 0
 482 005a 4FF40063 		mov	r3, #2048
 483              		.loc 1 117 0
 484 005e 0122     		movs	r2, #1
 485              		.loc 1 115 0
 486 0060 4B83     		strh	r3, [r1, #26]	@ movhi
 487              		.loc 1 117 0
 488 0062 2270     		strb	r2, [r4, #0]
 489 0064 DFE7     		b	.L38
 490              	.L39:
 491              		.loc 1 98 0
 492 0066 6478     		ldrb	r4, [r4, #1]	@ zero_extendqisi2
 493 0068 84B9     		cbnz	r4, .L41
 494              		.loc 1 99 0
 495 006a 4FF48050 		mov	r0, #4096
 496 006e C4F60000 		movt	r0, 18432
 497              		.loc 1 101 0
 498 0072 134C     		ldr	r4, .L47+4
 499              		.loc 1 99 0
 500 0074 4FF40071 		mov	r1, #512
ARM GAS  /tmp/ccLIbcti.s 			page 10


 501              		.loc 1 101 0
 502 0078 0123     		movs	r3, #1
 503              		.loc 1 99 0
 504 007a 4183     		strh	r1, [r0, #26]	@ movhi
 505              		.loc 1 101 0
 506 007c 2370     		strb	r3, [r4, #0]
 507 007e D2E7     		b	.L38
 508              	.L43:
 509              		.loc 1 119 0
 510 0080 FF29     		cmp	r1, #255
 511 0082 10D0     		beq	.L46
 512              	.L44:
 513              		.loc 1 125 0
 514 0084 0E4C     		ldr	r4, .L47+4
 515 0086 0220     		movs	r0, #2
 516 0088 2070     		strb	r0, [r4, #0]
 517 008a CCE7     		b	.L38
 518              	.L41:
 519              		.loc 1 103 0
 520 008c FF2C     		cmp	r4, #255
 521 008e F9D1     		bne	.L44
 522              		.loc 1 104 0
 523 0090 4FF48051 		mov	r1, #4096
 524 0094 C4F60001 		movt	r1, 18432
 525              		.loc 1 106 0
 526 0098 094C     		ldr	r4, .L47+4
 527              		.loc 1 104 0
 528 009a 4FF40073 		mov	r3, #512
 529              		.loc 1 106 0
 530 009e 0122     		movs	r2, #1
 531              		.loc 1 104 0
 532 00a0 0B83     		strh	r3, [r1, #24]	@ movhi
 533              		.loc 1 106 0
 534 00a2 2270     		strb	r2, [r4, #0]
 535 00a4 BFE7     		b	.L38
 536              	.L46:
 537              		.loc 1 120 0
 538 00a6 4FF48053 		mov	r3, #4096
 539 00aa C4F60003 		movt	r3, 18432
 540              		.loc 1 122 0
 541 00ae 044C     		ldr	r4, .L47+4
 542              		.loc 1 120 0
 543 00b0 4FF40062 		mov	r2, #2048
 544              		.loc 1 122 0
 545 00b4 0120     		movs	r0, #1
 546              		.loc 1 120 0
 547 00b6 1A83     		strh	r2, [r3, #24]	@ movhi
 548              		.loc 1 122 0
 549 00b8 2070     		strb	r0, [r4, #0]
 550 00ba B4E7     		b	.L38
 551              	.L48:
 552              		.align	2
 553              	.L47:
 554 00bc 00000000 		.word	.LANCHOR0
 555 00c0 00000000 		.word	.LANCHOR1
 556 00c4 00000000 		.word	UARTD1
 557              	.LBE11:
ARM GAS  /tmp/ccLIbcti.s 			page 11


 558              	.LBE10:
 559              		.cfi_endproc
 560              	.LFE123:
 561              		.size	rxend, .-rxend
 562 00c8 AFF30080 		.section	.text.uartSCPInit,"ax",%progbits
 562      AFF30080 
 563              		.align	2
 564              		.p2align 4,,15
 565              		.global	uartSCPInit
 566              		.thumb
 567              		.thumb_func
 568              		.type	uartSCPInit, %function
 569              	uartSCPInit:
 570              	.LFB124:
 571              		.loc 1 148 0
 572              		.cfi_startproc
 573              		@ args = 0, pretend = 0, frame = 0
 574              		@ frame_needed = 0, uses_anonymous_args = 0
 575 0000 10B5     		push	{r4, lr}
 576              	.LCFI2:
 577              		.cfi_def_cfa_offset 8
 578              		.cfi_offset 4, -8
 579              		.cfi_offset 14, -4
 580              		.loc 1 153 0
 581 0002 40F20004 		movw	r4, #:lower16:UARTD1
 582 0006 C0F20004 		movt	r4, #:upper16:UARTD1
 583 000a 40F20001 		movw	r1, #:lower16:.LANCHOR2
 584 000e 2046     		mov	r0, r4
 585 0010 C0F20001 		movt	r1, #:upper16:.LANCHOR2
 586 0014 FFF7FEFF 		bl	uartStart
 587              	.LVL79:
 588              		.loc 1 158 0
 589 0018 40F20002 		movw	r2, #:lower16:.LANCHOR0
 590 001c 2046     		mov	r0, r4
 591 001e 0821     		movs	r1, #8
 592 0020 C0F20002 		movt	r2, #:upper16:.LANCHOR0
 593              		.loc 1 160 0
 594 0024 BDE81040 		pop	{r4, lr}
 595              		.loc 1 158 0
 596 0028 FFF7FEBF 		b	uartStartReceive
 597              	.LVL80:
 598              		.cfi_endproc
 599              	.LFE124:
 600              		.size	uartSCPInit, .-uartSCPInit
 601              		.global	txBuffer
 602              		.global	rxBuffer
 603 002c AFF30080 		.section	.bss.rxBuffer,"aw",%nobits
 604              		.align	2
 605              		.set	.LANCHOR0,. + 0
 606              		.type	rxBuffer, %object
 607              		.size	rxBuffer, 8
 608              	rxBuffer:
 609 0000 00000000 		.space	8
 609      00000000 
 610              		.section	.bss.txBuffer,"aw",%nobits
 611              		.align	2
 612              		.set	.LANCHOR1,. + 0
ARM GAS  /tmp/ccLIbcti.s 			page 12


 613              		.type	txBuffer, %object
 614              		.size	txBuffer, 8
 615              	txBuffer:
 616 0000 00000000 		.space	8
 616      00000000 
 617              		.section	.data.uart_cfg_1,"aw",%progbits
 618              		.align	2
 619              		.set	.LANCHOR2,. + 0
 620              		.type	uart_cfg_1, %object
 621              		.size	uart_cfg_1, 36
 622              	uart_cfg_1:
 623 0000 00000000 		.word	txend1
 624 0004 00000000 		.word	txend2
 625 0008 00000000 		.word	rxend
 626 000c 00000000 		.word	rxchar
 627 0010 00000000 		.word	rxerr
 628 0014 00000000 		.space	16
 628      00000000 
 628      00000000 
 628      00000000 
 629              		.text
 630              	.Letext0:
 631              		.file 2 "/opt/ARM/gcc-arm-none-eabi-4_7-2013q3/bin/../lib/gcc/arm-none-eabi/4.7.4/include/stddef.h
 632              		.file 3 "/opt/ARM/gcc-arm-none-eabi-4_7-2013q3/bin/../lib/gcc/arm-none-eabi/4.7.4/../../../../arm-
 633              		.file 4 "chibios/os/hal/platforms/STM32F30x/stm32f30x.h"
 634              		.file 5 "chibios/os/hal/platforms/STM32F30x/stm32_dma.h"
 635              		.file 6 "chibios/os/hal/platforms/STM32/GPIOv2/pal_lld.h"
 636              		.file 7 "chibios/os/hal/include/uart.h"
 637              		.file 8 "chibios/os/hal/platforms/STM32/USARTv2/uart_lld.h"
 638              		.file 9 "chibios/os/ports/common/ARMCMx/CMSIS/include/core_cm4.h"