ARM GAS  /tmp/ccPhbTL6.s 			page 1


   1              		.syntax unified
   2              		.cpu cortex-m4
   3              		.fpu softvfp
   4              		.eabi_attribute 20, 1
   5              		.eabi_attribute 21, 1
   6              		.eabi_attribute 23, 3
   7              		.eabi_attribute 24, 1
   8              		.eabi_attribute 25, 1
   9              		.eabi_attribute 26, 1
  10              		.eabi_attribute 30, 2
  11              		.eabi_attribute 34, 1
  12              		.eabi_attribute 18, 4
  13              		.thumb
  14              		.file	"uart_lld.c"
  15              		.text
  16              	.Ltext0:
  17              		.cfi_sections	.debug_frame
  18              		.section	.text.set_rx_idle_loop,"ax",%progbits
  19              		.align	2
  20              		.p2align 4,,15
  21              		.thumb
  22              		.thumb_func
  23              		.type	set_rx_idle_loop, %function
  24              	set_rx_idle_loop:
  25              	.LFB119:
  26              		.file 1 "chibios/os/hal/platforms/STM32/USARTv2/uart_lld.c"
  27              		.loc 1 113 0
  28              		.cfi_startproc
  29              		@ args = 0, pretend = 0, frame = 0
  30              		@ frame_needed = 0, uses_anonymous_args = 0
  31              		@ link register save eliminated.
  32              	.LVL0:
  33              		.loc 1 118 0
  34 0000 4368     		ldr	r3, [r0, #4]
  35              		.loc 1 113 0
  36 0002 10B4     		push	{r4}
  37              	.LCFI0:
  38              		.cfi_def_cfa_offset 4
  39              		.cfi_offset 4, -4
  40              		.loc 1 122 0
  41 0004 0469     		ldr	r4, [r0, #16]
  42              		.loc 1 118 0
  43 0006 DA68     		ldr	r2, [r3, #12]
  44              		.loc 1 122 0
  45 0008 2368     		ldr	r3, [r4, #0]
  46 000a 00F11801 		add	r1, r0, #24
  47              		.loc 1 124 0
  48 000e C068     		ldr	r0, [r0, #12]
  49              	.LVL1:
  50              		.loc 1 122 0
  51 0010 D960     		str	r1, [r3, #12]
  52              		.loc 1 119 0
  53 0012 002A     		cmp	r2, #0
  54 0014 14BF     		ite	ne
  55 0016 2222     		movne	r2, #34
  56 0018 2022     		moveq	r2, #32
  57              	.LVL2:
ARM GAS  /tmp/ccPhbTL6.s 			page 2


  58              		.loc 1 124 0
  59 001a 0243     		orrs	r2, r2, r0
  60              	.LVL3:
  61              		.loc 1 123 0
  62 001c 0121     		movs	r1, #1
  63              	.LVL4:
  64 001e 5960     		str	r1, [r3, #4]
  65              		.loc 1 124 0
  66 0020 1A60     		str	r2, [r3, #0]
  67              		.loc 1 125 0
  68 0022 1868     		ldr	r0, [r3, #0]
  69 0024 0843     		orrs	r0, r0, r1
  70 0026 1860     		str	r0, [r3, #0]
  71              		.loc 1 126 0
  72 0028 10BC     		pop	{r4}
  73 002a 7047     		bx	lr
  74              		.cfi_endproc
  75              	.LFE119:
  76              		.size	set_rx_idle_loop, .-set_rx_idle_loop
  77 002c AFF30080 		.section	.text.usart_stop,"ax",%progbits
  78              		.align	2
  79              		.p2align 4,,15
  80              		.thumb
  81              		.thumb_func
  82              		.type	usart_stop, %function
  83              	usart_stop:
  84              	.LFB120:
  85              		.loc 1 134 0
  86              		.cfi_startproc
  87              		@ args = 0, pretend = 0, frame = 0
  88              		@ frame_needed = 0, uses_anonymous_args = 0
  89              		@ link register save eliminated.
  90              	.LVL5:
  91              		.loc 1 137 0
  92 0000 0169     		ldr	r1, [r0, #16]
  93              		.loc 1 138 0
  94 0002 4269     		ldr	r2, [r0, #20]
  95              		.loc 1 141 0
  96 0004 8368     		ldr	r3, [r0, #8]
  97              		.loc 1 134 0
  98 0006 2DE9F001 		push	{r4, r5, r6, r7, r8}
  99              	.LCFI1:
 100              		.cfi_def_cfa_offset 20
 101              		.cfi_offset 4, -20
 102              		.cfi_offset 5, -16
 103              		.cfi_offset 6, -12
 104              		.cfi_offset 7, -8
 105              		.cfi_offset 8, -4
 106              		.loc 1 137 0
 107 000a 91E84010 		ldmia	r1, {r6, ip}
 108 000e D6F80080 		ldr	r8, [r6, #0]
 109 0012 28F00F00 		bic	r0, r8, #15
 110              	.LVL6:
 111              		.loc 1 138 0
 112 0016 92E8A000 		ldmia	r2, {r5, r7}
 113              		.loc 1 137 0
 114 001a 3060     		str	r0, [r6, #0]
ARM GAS  /tmp/ccPhbTL6.s 			page 3


 115 001c 097A     		ldrb	r1, [r1, #8]	@ zero_extendqisi2
 116 001e 0F24     		movs	r4, #15
 117 0020 04FA01F0 		lsl	r0, r4, r1
 118 0024 CCF80000 		str	r0, [ip, #0]
 119              		.loc 1 138 0
 120 0028 2968     		ldr	r1, [r5, #0]
 121 002a 21F00F00 		bic	r0, r1, #15
 122 002e 2860     		str	r0, [r5, #0]
 123 0030 117A     		ldrb	r1, [r2, #8]	@ zero_extendqisi2
 124              		.loc 1 141 0
 125 0032 0022     		movs	r2, #0
 126              		.loc 1 138 0
 127 0034 04FA01F4 		lsl	r4, r4, r1
 128 0038 3C60     		str	r4, [r7, #0]
 129              		.loc 1 141 0
 130 003a 1A60     		str	r2, [r3, #0]
 131              		.loc 1 142 0
 132 003c 5A60     		str	r2, [r3, #4]
 133              		.loc 1 143 0
 134 003e 9A60     		str	r2, [r3, #8]
 135              		.loc 1 144 0
 136 0040 BDE8F001 		pop	{r4, r5, r6, r7, r8}
 137 0044 7047     		bx	lr
 138              		.cfi_endproc
 139              	.LFE120:
 140              		.size	usart_stop, .-usart_stop
 141 0046 00BFAFF3 		.section	.text.uart_lld_serve_tx_end_irq,"ax",%progbits
 141      0080AFF3 
 141      0080
 142              		.align	2
 143              		.p2align 4,,15
 144              		.thumb
 145              		.thumb_func
 146              		.type	uart_lld_serve_tx_end_irq, %function
 147              	uart_lld_serve_tx_end_irq:
 148              	.LFB123:
 149              		.loc 1 237 0
 150              		.cfi_startproc
 151              		@ args = 0, pretend = 0, frame = 0
 152              		@ frame_needed = 0, uses_anonymous_args = 0
 153              	.LVL7:
 154 0000 38B5     		push	{r3, r4, r5, lr}
 155              	.LCFI2:
 156              		.cfi_def_cfa_offset 16
 157              		.cfi_offset 3, -16
 158              		.cfi_offset 4, -12
 159              		.cfi_offset 5, -8
 160              		.cfi_offset 14, -4
 161              		.loc 1 241 0
 162 0002 0B07     		lsls	r3, r1, #28
 163              		.loc 1 237 0
 164 0004 0446     		mov	r4, r0
 165              		.loc 1 241 0
 166 0006 19D4     		bmi	.L17
 167              	.LVL8:
 168              	.L6:
 169              		.loc 1 248 0
ARM GAS  /tmp/ccPhbTL6.s 			page 4


 170 0008 6369     		ldr	r3, [r4, #20]
 171              		.loc 1 252 0
 172 000a 6168     		ldr	r1, [r4, #4]
 173              		.loc 1 248 0
 174 000c 1A68     		ldr	r2, [r3, #0]
 175 000e 5868     		ldr	r0, [r3, #4]
 176 0010 1568     		ldr	r5, [r2, #0]
 177              		.loc 1 252 0
 178 0012 0968     		ldr	r1, [r1, #0]
 179              		.loc 1 248 0
 180 0014 25F00F05 		bic	r5, r5, #15
 181 0018 1560     		str	r5, [r2, #0]
 182 001a 1B7A     		ldrb	r3, [r3, #8]	@ zero_extendqisi2
 183 001c 0F22     		movs	r2, #15
 184 001e 02FA03F3 		lsl	r3, r2, r3
 185 0022 0360     		str	r3, [r0, #0]
 186              		.loc 1 251 0
 187 0024 0220     		movs	r0, #2
 188 0026 6070     		strb	r0, [r4, #1]
 189              		.loc 1 252 0
 190 0028 29B1     		cbz	r1, .L9
 191              		.loc 1 253 0
 192 002a 2046     		mov	r0, r4
 193 002c 8847     		blx	r1
 194              	.LVL9:
 195              		.loc 1 257 0
 196 002e 6178     		ldrb	r1, [r4, #1]	@ zero_extendqisi2
 197 0030 0229     		cmp	r1, #2
 198 0032 00D0     		beq	.L9
 199 0034 38BD     		pop	{r3, r4, r5, pc}
 200              	.L9:
 201              		.loc 1 258 0
 202 0036 0022     		movs	r2, #0
 203 0038 6270     		strb	r2, [r4, #1]
 204 003a 38BD     		pop	{r3, r4, r5, pc}
 205              	.LVL10:
 206              	.L17:
 207              		.loc 1 242 0
 208 003c FFF7FEFF 		bl	port_halt
 209              	.LVL11:
 210 0040 E2E7     		b	.L6
 211              		.cfi_endproc
 212              	.LFE123:
 213              		.size	uart_lld_serve_tx_end_irq, .-uart_lld_serve_tx_end_irq
 214 0042 00BFAFF3 		.section	.text.uart_lld_serve_rx_end_irq,"ax",%progbits
 214      0080AFF3 
 214      0080AFF3 
 214      0080
 215              		.align	2
 216              		.p2align 4,,15
 217              		.thumb
 218              		.thumb_func
 219              		.type	uart_lld_serve_rx_end_irq, %function
 220              	uart_lld_serve_rx_end_irq:
 221              	.LFB122:
 222              		.loc 1 197 0
 223              		.cfi_startproc
ARM GAS  /tmp/ccPhbTL6.s 			page 5


 224              		@ args = 0, pretend = 0, frame = 0
 225              		@ frame_needed = 0, uses_anonymous_args = 0
 226              	.LVL12:
 227              		.loc 1 201 0
 228 0000 0A07     		lsls	r2, r1, #28
 229              		.loc 1 197 0
 230 0002 38B5     		push	{r3, r4, r5, lr}
 231              	.LCFI3:
 232              		.cfi_def_cfa_offset 16
 233              		.cfi_offset 3, -16
 234              		.cfi_offset 4, -12
 235              		.cfi_offset 5, -8
 236              		.cfi_offset 14, -4
 237              		.loc 1 197 0
 238 0004 0446     		mov	r4, r0
 239              		.loc 1 201 0
 240 0006 20D4     		bmi	.L32
 241              	.LVL13:
 242              	.L19:
 243              		.loc 1 208 0
 244 0008 A378     		ldrb	r3, [r4, #2]	@ zero_extendqisi2
 245 000a 3BB9     		cbnz	r3, .L20
 246              		.loc 1 211 0
 247 000c 6368     		ldr	r3, [r4, #4]
 248 000e DA68     		ldr	r2, [r3, #12]
 249 0010 D2B1     		cbz	r2, .L18
 250              		.loc 1 212 0
 251 0012 218B     		ldrh	r1, [r4, #24]
 252 0014 2046     		mov	r0, r4
 253 0016 89B2     		uxth	r1, r1
 254 0018 9047     		blx	r2
 255              	.LVL14:
 256 001a 38BD     		pop	{r3, r4, r5, pc}
 257              	.L20:
 258              	.LVL15:
 259              	.LBB4:
 260              	.LBB5:
 261              		.loc 1 217 0
 262 001c 2369     		ldr	r3, [r4, #16]
 263              		.loc 1 219 0
 264 001e 6168     		ldr	r1, [r4, #4]
 265              		.loc 1 217 0
 266 0020 1A68     		ldr	r2, [r3, #0]
 267 0022 5868     		ldr	r0, [r3, #4]
 268 0024 1568     		ldr	r5, [r2, #0]
 269              		.loc 1 219 0
 270 0026 8968     		ldr	r1, [r1, #8]
 271              		.loc 1 217 0
 272 0028 25F00F05 		bic	r5, r5, #15
 273 002c 1560     		str	r5, [r2, #0]
 274 002e 1B7A     		ldrb	r3, [r3, #8]	@ zero_extendqisi2
 275 0030 0F22     		movs	r2, #15
 276 0032 02FA03F3 		lsl	r3, r2, r3
 277 0036 0360     		str	r3, [r0, #0]
 278              		.loc 1 218 0
 279 0038 0220     		movs	r0, #2
 280 003a A070     		strb	r0, [r4, #2]
ARM GAS  /tmp/ccPhbTL6.s 			page 6


 281              		.loc 1 219 0
 282 003c 41B1     		cbz	r1, .L24
 283              		.loc 1 220 0
 284 003e 2046     		mov	r0, r4
 285 0040 8847     		blx	r1
 286              	.LVL16:
 287              		.loc 1 224 0
 288 0042 A178     		ldrb	r1, [r4, #2]	@ zero_extendqisi2
 289 0044 0229     		cmp	r1, #2
 290 0046 03D0     		beq	.L24
 291              	.LVL17:
 292              	.L18:
 293 0048 38BD     		pop	{r3, r4, r5, pc}
 294              	.LVL18:
 295              	.L32:
 296              	.LBE5:
 297              	.LBE4:
 298              		.loc 1 202 0
 299 004a FFF7FEFF 		bl	port_halt
 300              	.LVL19:
 301 004e DBE7     		b	.L19
 302              	.LVL20:
 303              	.L24:
 304              	.LBB8:
 305              	.LBB6:
 306              		.loc 1 225 0
 307 0050 0022     		movs	r2, #0
 308              		.loc 1 226 0
 309 0052 2046     		mov	r0, r4
 310              		.loc 1 225 0
 311 0054 A270     		strb	r2, [r4, #2]
 312              	.LBE6:
 313              	.LBE8:
 314              		.loc 1 229 0
 315 0056 BDE83840 		pop	{r3, r4, r5, lr}
 316              	.LBB9:
 317              	.LBB7:
 318              		.loc 1 226 0
 319 005a FFF7FEBF 		b	set_rx_idle_loop
 320              	.LVL21:
 321              	.LBE7:
 322              	.LBE9:
 323              		.cfi_endproc
 324              	.LFE122:
 325              		.size	uart_lld_serve_rx_end_irq, .-uart_lld_serve_rx_end_irq
 326 005e 00BF     		.section	.text.VectorD4,"ax",%progbits
 327              		.align	2
 328              		.p2align 4,,15
 329              		.global	VectorD4
 330              		.thumb
 331              		.thumb_func
 332              		.type	VectorD4, %function
 333              	VectorD4:
 334              	.LFB125:
 335              		.loc 1 299 0
 336              		.cfi_startproc
 337              		@ args = 0, pretend = 0, frame = 0
ARM GAS  /tmp/ccPhbTL6.s 			page 7


 338              		@ frame_needed = 0, uses_anonymous_args = 0
 339              	.LVL22:
 340 0000 38B5     		push	{r3, r4, r5, lr}
 341              	.LCFI4:
 342              		.cfi_def_cfa_offset 16
 343              		.cfi_offset 3, -16
 344              		.cfi_offset 4, -12
 345              		.cfi_offset 5, -8
 346              		.cfi_offset 14, -4
 347              	.LBB14:
 348              	.LBB15:
 349              		.loc 1 268 0
 350 0002 164D     		ldr	r5, .L66
 351 0004 AA68     		ldr	r2, [r5, #8]
 352              	.LVL23:
 353              		.loc 1 271 0
 354 0006 D469     		ldr	r4, [r2, #28]
 355              	.LVL24:
 356              		.loc 1 274 0
 357 0008 40F20F13 		movw	r3, #271
 358 000c 2340     		ands	r3, r3, r4
 359              		.loc 1 272 0
 360 000e 1462     		str	r4, [r2, #32]
 361              		.loc 1 274 0
 362 0010 CBB1     		cbz	r3, .L34
 363              		.loc 1 276 0
 364 0012 6868     		ldr	r0, [r5, #4]
 365 0014 0369     		ldr	r3, [r0, #16]
 366 0016 B3B1     		cbz	r3, .L34
 367              	.LVL25:
 368              	.LBB16:
 369              	.LBB17:
 370              		.loc 1 96 0
 371 0018 14F0080F 		tst	r4, #8
 372 001c 0CBF     		ite	eq
 373 001e 0021     		moveq	r1, #0
 374 0020 1021     		movne	r1, #16
 375              	.LVL26:
 376              		.loc 1 97 0
 377 0022 E207     		lsls	r2, r4, #31
 378              	.LVL27:
 379              		.loc 1 98 0
 380 0024 48BF     		it	mi
 381 0026 41F00401 		orrmi	r1, r1, #4
 382              	.LVL28:
 383              		.loc 1 99 0
 384 002a A007     		lsls	r0, r4, #30
 385              		.loc 1 100 0
 386 002c 48BF     		it	mi
 387 002e 41F00801 		orrmi	r1, r1, #8
 388              	.LVL29:
 389              		.loc 1 101 0
 390 0032 6207     		lsls	r2, r4, #29
 391              		.loc 1 102 0
 392 0034 48BF     		it	mi
 393 0036 41F02001 		orrmi	r1, r1, #32
 394              	.LVL30:
ARM GAS  /tmp/ccPhbTL6.s 			page 8


 395              		.loc 1 103 0
 396 003a E005     		lsls	r0, r4, #23
 397              		.loc 1 104 0
 398 003c 48BF     		it	mi
 399 003e 41F04001 		orrmi	r1, r1, #64
 400              	.LVL31:
 401              	.LBE17:
 402              	.LBE16:
 403              		.loc 1 277 0
 404 0042 0648     		ldr	r0, .L66
 405 0044 9847     		blx	r3
 406              	.LVL32:
 407              	.L34:
 408              		.loc 1 279 0
 409 0046 6106     		lsls	r1, r4, #25
 410 0048 04D5     		bpl	.L40
 411              		.loc 1 281 0
 412 004a 6968     		ldr	r1, [r5, #4]
 413 004c 4A68     		ldr	r2, [r1, #4]
 414 004e 0AB1     		cbz	r2, .L40
 415              		.loc 1 282 0
 416 0050 0248     		ldr	r0, .L66
 417 0052 9047     		blx	r2
 418              	.LVL33:
 419              	.L40:
 420              	.LBE15:
 421              	.LBE14:
 422              		.loc 1 306 0
 423 0054 BDE83840 		pop	{r3, r4, r5, lr}
 424              		.loc 1 305 0
 425 0058 FFF7FEBF 		b	_port_irq_epilogue
 426              	.LVL34:
 427              	.L67:
 428              		.align	2
 429              	.L66:
 430 005c 00000000 		.word	.LANCHOR0
 431              		.cfi_endproc
 432              	.LFE125:
 433              		.size	VectorD4, .-VectorD4
 434              		.section	.text.uart_lld_init,"ax",%progbits
 435              		.align	2
 436              		.p2align 4,,15
 437              		.global	uart_lld_init
 438              		.thumb
 439              		.thumb_func
 440              		.type	uart_lld_init, %function
 441              	uart_lld_init:
 442              	.LFB126:
 443              		.loc 1 356 0
 444              		.cfi_startproc
 445              		@ args = 0, pretend = 0, frame = 0
 446              		@ frame_needed = 0, uses_anonymous_args = 0
 447 0000 10B5     		push	{r4, lr}
 448              	.LCFI5:
 449              		.cfi_def_cfa_offset 8
 450              		.cfi_offset 4, -8
 451              		.cfi_offset 14, -4
ARM GAS  /tmp/ccPhbTL6.s 			page 9


 452              		.loc 1 359 0
 453 0002 40F20004 		movw	r4, #:lower16:.LANCHOR0
 454 0006 C0F20004 		movt	r4, #:upper16:.LANCHOR0
 455 000a 2046     		mov	r0, r4
 456 000c FFF7FEFF 		bl	uartObjectInit
 457              	.LVL35:
 458              		.loc 1 362 0
 459 0010 064B     		ldr	r3, .L69
 460              		.loc 1 360 0
 461 0012 4FF46052 		mov	r2, #14336
 462 0016 C4F20102 		movt	r2, 16385
 463              		.loc 1 363 0
 464 001a A3F10C01 		sub	r1, r3, #12
 465              		.loc 1 361 0
 466 001e 0820     		movs	r0, #8
 467              		.loc 1 360 0
 468 0020 A260     		str	r2, [r4, #8]
 469              		.loc 1 361 0
 470 0022 E060     		str	r0, [r4, #12]
 471              		.loc 1 362 0
 472 0024 2361     		str	r3, [r4, #16]
 473              		.loc 1 363 0
 474 0026 6161     		str	r1, [r4, #20]
 475 0028 10BD     		pop	{r4, pc}
 476              	.L70:
 477 002a 00BF     		.align	2
 478              	.L69:
 479 002c 30000000 		.word	_stm32_dma_streams+48
 480              		.cfi_endproc
 481              	.LFE126:
 482              		.size	uart_lld_init, .-uart_lld_init
 483              		.section	.text.uart_lld_start,"ax",%progbits
 484              		.align	2
 485              		.p2align 4,,15
 486              		.global	uart_lld_start
 487              		.thumb
 488              		.thumb_func
 489              		.type	uart_lld_start, %function
 490              	uart_lld_start:
 491              	.LFB127:
 492              		.loc 1 390 0
 493              		.cfi_startproc
 494              		@ args = 0, pretend = 0, frame = 0
 495              		@ frame_needed = 0, uses_anonymous_args = 0
 496              	.LVL36:
 497 0000 F8B5     		push	{r3, r4, r5, r6, r7, lr}
 498              	.LCFI6:
 499              		.cfi_def_cfa_offset 24
 500              		.cfi_offset 3, -24
 501              		.cfi_offset 4, -20
 502              		.cfi_offset 5, -16
 503              		.cfi_offset 6, -12
 504              		.cfi_offset 7, -8
 505              		.cfi_offset 14, -4
 506              		.loc 1 392 0
 507 0002 0378     		ldrb	r3, [r0, #0]	@ zero_extendqisi2
 508 0004 012B     		cmp	r3, #1
ARM GAS  /tmp/ccPhbTL6.s 			page 10


 509              		.loc 1 390 0
 510 0006 0446     		mov	r4, r0
 511              		.loc 1 392 0
 512 0008 2CD0     		beq	.L80
 513 000a 8568     		ldr	r5, [r0, #8]
 514              	.LVL37:
 515              	.L72:
 516              		.loc 1 465 0
 517 000c 0026     		movs	r6, #0
 518 000e A670     		strb	r6, [r4, #2]
 519              		.loc 1 466 0
 520 0010 6670     		strb	r6, [r4, #1]
 521              	.LVL38:
 522              	.LBB21:
 523              	.LBB22:
 524              		.loc 1 157 0
 525 0012 2046     		mov	r0, r4
 526 0014 FFF7FEFF 		bl	usart_stop
 527              	.LVL39:
 528              		.loc 1 167 0
 529 0018 6368     		ldr	r3, [r4, #4]
 530 001a 4FF4A247 		mov	r7, #20736
 531 001e 5869     		ldr	r0, [r3, #20]
 532 0020 C0F22527 		movt	r7, 549
 533 0024 B7FBF0F1 		udiv	r1, r7, r0
 534              		.loc 1 185 0
 535 0028 03F11806 		add	r6, r3, #24
 536              		.loc 1 167 0
 537 002c 8AB2     		uxth	r2, r1
 538 002e AA81     		strh	r2, [r5, #12]	@ movhi
 539              		.loc 1 185 0
 540 0030 96E80700 		ldmia	r6, {r0, r1, r2}
 541              		.loc 1 180 0
 542 0034 5F68     		ldr	r7, [r3, #4]
 543              		.loc 1 181 0
 544 0036 40F20D16 		movw	r6, #269
 545 003a 40F24D13 		movw	r3, #333
 546 003e 002F     		cmp	r7, #0
 547 0040 08BF     		it	eq
 548 0042 3346     		moveq	r3, r6
 549              	.LVL40:
 550              		.loc 1 185 0
 551 0044 0343     		orrs	r3, r3, r0
 552              	.LVL41:
 553              		.loc 1 173 0
 554 0046 4FF0FF30 		mov	r0, #-1
 555 004a 2862     		str	r0, [r5, #32]
 556              		.loc 1 177 0
 557 004c 41F04001 		orr	r1, r1, #64
 558              		.loc 1 178 0
 559 0050 42F0C102 		orr	r2, r2, #193
 560              		.loc 1 188 0
 561 0054 2046     		mov	r0, r4
 562              		.loc 1 177 0
 563 0056 6960     		str	r1, [r5, #4]
 564              		.loc 1 178 0
 565 0058 AA60     		str	r2, [r5, #8]
ARM GAS  /tmp/ccPhbTL6.s 			page 11


 566              		.loc 1 185 0
 567 005a 2B60     		str	r3, [r5, #0]
 568              	.LBE22:
 569              	.LBE21:
 570              		.loc 1 468 0
 571 005c BDE8F840 		pop	{r3, r4, r5, r6, r7, lr}
 572              	.LBB24:
 573              	.LBB23:
 574              		.loc 1 188 0
 575 0060 FFF7FEBF 		b	set_rx_idle_loop
 576              	.LVL42:
 577              	.L80:
 578              	.LBE23:
 579              	.LBE24:
 580              		.loc 1 394 0
 581 0064 1A48     		ldr	r0, .L83
 582              	.LVL43:
 583 0066 8442     		cmp	r4, r0
 584 0068 19D0     		beq	.L81
 585              	.L73:
 586              		.loc 1 458 0
 587 006a 6668     		ldr	r6, [r4, #4]
 588 006c B769     		ldr	r7, [r6, #24]
 589 006e 07F4A053 		and	r3, r7, #5120
 590 0072 B3F5805F 		cmp	r3, #4096
 591 0076 0DD0     		beq	.L82
 592              	.L74:
 593              		.loc 1 460 0
 594 0078 2269     		ldr	r2, [r4, #16]
 595              		.loc 1 461 0
 596 007a 6669     		ldr	r6, [r4, #20]
 597              		.loc 1 460 0
 598 007c A568     		ldr	r5, [r4, #8]
 599 007e 1768     		ldr	r7, [r2, #0]
 600              		.loc 1 461 0
 601 0080 3368     		ldr	r3, [r6, #0]
 602              		.loc 1 460 0
 603 0082 05F12400 		add	r0, r5, #36
 604              		.loc 1 461 0
 605 0086 05F12801 		add	r1, r5, #40
 606              		.loc 1 462 0
 607 008a 0022     		movs	r2, #0
 608              		.loc 1 460 0
 609 008c B860     		str	r0, [r7, #8]
 610              		.loc 1 461 0
 611 008e 9960     		str	r1, [r3, #8]
 612              		.loc 1 462 0
 613 0090 2283     		strh	r2, [r4, #24]	@ movhi
 614 0092 BBE7     		b	.L72
 615              	.L82:
 616              		.loc 1 459 0
 617 0094 E068     		ldr	r0, [r4, #12]
 618 0096 40F4A061 		orr	r1, r0, #1280
 619 009a E160     		str	r1, [r4, #12]
 620 009c ECE7     		b	.L74
 621              	.L81:
 622              	.LBB25:
ARM GAS  /tmp/ccPhbTL6.s 			page 12


 623              		.loc 1 396 0
 624 009e 0C21     		movs	r1, #12
 625 00a0 2346     		mov	r3, r4
 626 00a2 0C4A     		ldr	r2, .L83+4
 627 00a4 2069     		ldr	r0, [r4, #16]
 628 00a6 FFF7FEFF 		bl	dmaStreamAllocate
 629              	.LVL44:
 630              		.loc 1 401 0
 631 00aa 0C21     		movs	r1, #12
 632 00ac 6069     		ldr	r0, [r4, #20]
 633 00ae 0A4A     		ldr	r2, .L83+8
 634 00b0 2346     		mov	r3, r4
 635 00b2 FFF7FEFF 		bl	dmaStreamAllocate
 636              	.LVL45:
 637              		.loc 1 406 0
 638 00b6 4FF48051 		mov	r1, #4096
 639 00ba C4F20201 		movt	r1, 16386
 640              		.loc 1 407 0
 641 00be 2520     		movs	r0, #37
 642              		.loc 1 406 0
 643 00c0 8A69     		ldr	r2, [r1, #24]
 644 00c2 42F48045 		orr	r5, r2, #16384
 645 00c6 8D61     		str	r5, [r1, #24]
 646              		.loc 1 407 0
 647 00c8 C021     		movs	r1, #192
 648 00ca FFF7FEFF 		bl	nvicEnableVector
 649              	.LVL46:
 650 00ce CCE7     		b	.L73
 651              	.L84:
 652              		.align	2
 653              	.L83:
 654 00d0 00000000 		.word	.LANCHOR0
 655 00d4 00000000 		.word	uart_lld_serve_rx_end_irq
 656 00d8 00000000 		.word	uart_lld_serve_tx_end_irq
 657              	.LBE25:
 658              		.cfi_endproc
 659              	.LFE127:
 660              		.size	uart_lld_start, .-uart_lld_start
 661 00dc AFF30080 		.section	.text.uart_lld_stop,"ax",%progbits
 662              		.align	2
 663              		.p2align 4,,15
 664              		.global	uart_lld_stop
 665              		.thumb
 666              		.thumb_func
 667              		.type	uart_lld_stop, %function
 668              	uart_lld_stop:
 669              	.LFB128:
 670              		.loc 1 477 0
 671              		.cfi_startproc
 672              		@ args = 0, pretend = 0, frame = 0
 673              		@ frame_needed = 0, uses_anonymous_args = 0
 674              	.LVL47:
 675              		.loc 1 479 0
 676 0000 0378     		ldrb	r3, [r0, #0]	@ zero_extendqisi2
 677 0002 022B     		cmp	r3, #2
 678              		.loc 1 477 0
 679 0004 10B5     		push	{r4, lr}
ARM GAS  /tmp/ccPhbTL6.s 			page 13


 680              	.LCFI7:
 681              		.cfi_def_cfa_offset 8
 682              		.cfi_offset 4, -8
 683              		.cfi_offset 14, -4
 684              		.loc 1 477 0
 685 0006 0446     		mov	r4, r0
 686              		.loc 1 479 0
 687 0008 00D0     		beq	.L89
 688              	.LVL48:
 689              	.L85:
 690 000a 10BD     		pop	{r4, pc}
 691              	.LVL49:
 692              	.L89:
 693              		.loc 1 480 0
 694 000c FFF7FEFF 		bl	usart_stop
 695              	.LVL50:
 696              		.loc 1 481 0
 697 0010 2069     		ldr	r0, [r4, #16]
 698 0012 FFF7FEFF 		bl	dmaStreamRelease
 699              	.LVL51:
 700              		.loc 1 482 0
 701 0016 6069     		ldr	r0, [r4, #20]
 702 0018 FFF7FEFF 		bl	dmaStreamRelease
 703              	.LVL52:
 704              		.loc 1 485 0
 705 001c 0748     		ldr	r0, .L90
 706 001e 8442     		cmp	r4, r0
 707 0020 F3D1     		bne	.L85
 708              		.loc 1 486 0
 709 0022 2520     		movs	r0, #37
 710 0024 FFF7FEFF 		bl	nvicDisableVector
 711              	.LVL53:
 712              		.loc 1 487 0
 713 0028 4FF48051 		mov	r1, #4096
 714 002c C4F20201 		movt	r1, 16386
 715 0030 8A69     		ldr	r2, [r1, #24]
 716 0032 22F48043 		bic	r3, r2, #16384
 717 0036 8B61     		str	r3, [r1, #24]
 718              		.loc 1 488 0
 719 0038 E7E7     		b	.L85
 720              	.L91:
 721 003a 00BF     		.align	2
 722              	.L90:
 723 003c 00000000 		.word	.LANCHOR0
 724              		.cfi_endproc
 725              	.LFE128:
 726              		.size	uart_lld_stop, .-uart_lld_stop
 727              		.section	.text.uart_lld_start_send,"ax",%progbits
 728              		.align	2
 729              		.p2align 4,,15
 730              		.global	uart_lld_start_send
 731              		.thumb
 732              		.thumb_func
 733              		.type	uart_lld_start_send, %function
 734              	uart_lld_start_send:
 735              	.LFB129:
 736              		.loc 1 521 0
ARM GAS  /tmp/ccPhbTL6.s 			page 14


 737              		.cfi_startproc
 738              		@ args = 0, pretend = 0, frame = 0
 739              		@ frame_needed = 0, uses_anonymous_args = 0
 740              		@ link register save eliminated.
 741              	.LVL54:
 742              		.loc 1 524 0
 743 0000 4369     		ldr	r3, [r0, #20]
 744              		.loc 1 526 0
 745 0002 C068     		ldr	r0, [r0, #12]
 746              	.LVL55:
 747              		.loc 1 524 0
 748 0004 1B68     		ldr	r3, [r3, #0]
 749              		.loc 1 526 0
 750 0006 40F09200 		orr	r0, r0, #146
 751              		.loc 1 524 0
 752 000a DA60     		str	r2, [r3, #12]
 753              		.loc 1 525 0
 754 000c 5960     		str	r1, [r3, #4]
 755              		.loc 1 526 0
 756 000e 1860     		str	r0, [r3, #0]
 757              		.loc 1 528 0
 758 0010 1A68     		ldr	r2, [r3, #0]
 759              	.LVL56:
 760 0012 42F00101 		orr	r1, r2, #1
 761              	.LVL57:
 762 0016 1960     		str	r1, [r3, #0]
 763 0018 7047     		bx	lr
 764              		.cfi_endproc
 765              	.LFE129:
 766              		.size	uart_lld_start_send, .-uart_lld_start_send
 767 001a 00BFAFF3 		.section	.text.uart_lld_stop_send,"ax",%progbits
 767      0080
 768              		.align	2
 769              		.p2align 4,,15
 770              		.global	uart_lld_stop_send
 771              		.thumb
 772              		.thumb_func
 773              		.type	uart_lld_stop_send, %function
 774              	uart_lld_stop_send:
 775              	.LFB130:
 776              		.loc 1 542 0
 777              		.cfi_startproc
 778              		@ args = 0, pretend = 0, frame = 0
 779              		@ frame_needed = 0, uses_anonymous_args = 0
 780              		@ link register save eliminated.
 781              	.LVL58:
 782              		.loc 1 544 0
 783 0000 4269     		ldr	r2, [r0, #20]
 784 0002 1368     		ldr	r3, [r2, #0]
 785 0004 5168     		ldr	r1, [r2, #4]
 786 0006 1868     		ldr	r0, [r3, #0]
 787              	.LVL59:
 788 0008 20F00F00 		bic	r0, r0, #15
 789 000c 1860     		str	r0, [r3, #0]
 790 000e 127A     		ldrb	r2, [r2, #8]	@ zero_extendqisi2
 791 0010 0F20     		movs	r0, #15
 792 0012 00FA02F2 		lsl	r2, r0, r2
ARM GAS  /tmp/ccPhbTL6.s 			page 15


 793 0016 0A60     		str	r2, [r1, #0]
 794              		.loc 1 545 0
 795 0018 5868     		ldr	r0, [r3, #4]
 796              		.loc 1 546 0
 797 001a 7047     		bx	lr
 798              		.cfi_endproc
 799              	.LFE130:
 800              		.size	uart_lld_stop_send, .-uart_lld_stop_send
 801 001c AFF30080 		.section	.text.uart_lld_start_receive,"ax",%progbits
 802              		.align	2
 803              		.p2align 4,,15
 804              		.global	uart_lld_start_receive
 805              		.thumb
 806              		.thumb_func
 807              		.type	uart_lld_start_receive, %function
 808              	uart_lld_start_receive:
 809              	.LFB131:
 810              		.loc 1 559 0
 811              		.cfi_startproc
 812              		@ args = 0, pretend = 0, frame = 0
 813              		@ frame_needed = 0, uses_anonymous_args = 0
 814              		@ link register save eliminated.
 815              	.LVL60:
 816 0000 70B4     		push	{r4, r5, r6}
 817              	.LCFI8:
 818              		.cfi_def_cfa_offset 12
 819              		.cfi_offset 4, -12
 820              		.cfi_offset 5, -8
 821              		.cfi_offset 6, -4
 822              		.loc 1 562 0
 823 0002 0469     		ldr	r4, [r0, #16]
 824 0004 94E82800 		ldmia	r4, {r3, r5}
 825 0008 1E68     		ldr	r6, [r3, #0]
 826 000a 26F00F06 		bic	r6, r6, #15
 827 000e 1E60     		str	r6, [r3, #0]
 828 0010 247A     		ldrb	r4, [r4, #8]	@ zero_extendqisi2
 829 0012 0F26     		movs	r6, #15
 830 0014 06FA04F4 		lsl	r4, r6, r4
 831 0018 2C60     		str	r4, [r5, #0]
 832              		.loc 1 567 0
 833 001a C068     		ldr	r0, [r0, #12]
 834              	.LVL61:
 835              		.loc 1 565 0
 836 001c DA60     		str	r2, [r3, #12]
 837              		.loc 1 567 0
 838 001e 40F08200 		orr	r0, r0, #130
 839              		.loc 1 566 0
 840 0022 5960     		str	r1, [r3, #4]
 841              		.loc 1 567 0
 842 0024 1860     		str	r0, [r3, #0]
 843              		.loc 1 569 0
 844 0026 1A68     		ldr	r2, [r3, #0]
 845              	.LVL62:
 846 0028 42F00101 		orr	r1, r2, #1
 847              	.LVL63:
 848 002c 1960     		str	r1, [r3, #0]
 849              		.loc 1 570 0
ARM GAS  /tmp/ccPhbTL6.s 			page 16


 850 002e 70BC     		pop	{r4, r5, r6}
 851 0030 7047     		bx	lr
 852              		.cfi_endproc
 853              	.LFE131:
 854              		.size	uart_lld_start_receive, .-uart_lld_start_receive
 855 0032 00BFAFF3 		.section	.text.uart_lld_stop_receive,"ax",%progbits
 855      0080AFF3 
 855      0080AFF3 
 855      0080
 856              		.align	2
 857              		.p2align 4,,15
 858              		.global	uart_lld_stop_receive
 859              		.thumb
 860              		.thumb_func
 861              		.type	uart_lld_stop_receive, %function
 862              	uart_lld_stop_receive:
 863              	.LFB132:
 864              		.loc 1 583 0
 865              		.cfi_startproc
 866              		@ args = 0, pretend = 0, frame = 0
 867              		@ frame_needed = 0, uses_anonymous_args = 0
 868              	.LVL64:
 869              		.loc 1 586 0
 870 0000 0269     		ldr	r2, [r0, #16]
 871 0002 1368     		ldr	r3, [r2, #0]
 872 0004 5168     		ldr	r1, [r2, #4]
 873              		.loc 1 583 0
 874 0006 10B5     		push	{r4, lr}
 875              	.LCFI9:
 876              		.cfi_def_cfa_offset 8
 877              		.cfi_offset 4, -8
 878              		.cfi_offset 14, -4
 879              		.loc 1 586 0
 880 0008 1C68     		ldr	r4, [r3, #0]
 881 000a 24F00F04 		bic	r4, r4, #15
 882 000e 1C60     		str	r4, [r3, #0]
 883 0010 127A     		ldrb	r2, [r2, #8]	@ zero_extendqisi2
 884 0012 0F24     		movs	r4, #15
 885 0014 04FA02F2 		lsl	r2, r4, r2
 886 0018 0A60     		str	r2, [r1, #0]
 887              		.loc 1 587 0
 888 001a 5C68     		ldr	r4, [r3, #4]
 889              	.LVL65:
 890              		.loc 1 588 0
 891 001c FFF7FEFF 		bl	set_rx_idle_loop
 892              	.LVL66:
 893              		.loc 1 590 0
 894 0020 2046     		mov	r0, r4
 895 0022 10BD     		pop	{r4, pc}
 896              		.cfi_endproc
 897              	.LFE132:
 898              		.size	uart_lld_stop_receive, .-uart_lld_stop_receive
 899              		.global	UARTD1
 900              		.section	.bss.UARTD1,"aw",%nobits
 901              		.align	2
 902              		.set	.LANCHOR0,. + 0
 903              		.type	UARTD1, %object
ARM GAS  /tmp/ccPhbTL6.s 			page 17


 904              		.size	UARTD1, 28
 905              	UARTD1:
 906 0000 00000000 		.space	28
 906      00000000 
 906      00000000 
 906      00000000 
 906      00000000 
 907              		.text
 908              	.Letext0:
 909              		.file 2 "/opt/ARM/gcc-arm-none-eabi-4_7-2013q3/bin/../lib/gcc/arm-none-eabi/4.7.4/include/stddef.h
 910              		.file 3 "/opt/ARM/gcc-arm-none-eabi-4_7-2013q3/bin/../lib/gcc/arm-none-eabi/4.7.4/../../../../arm-
 911              		.file 4 "chibios/os/ports/GCC/ARMCMx/chtypes.h"
 912              		.file 5 "chibios/os/hal/platforms/STM32F30x/stm32f30x.h"
 913              		.file 6 "chibios/os/hal/platforms/STM32F30x/stm32_dma.h"
 914              		.file 7 "chibios/os/hal/include/uart.h"
 915              		.file 8 "chibios/os/hal/platforms/STM32/USARTv2/uart_lld.h"
 916              		.file 9 "chibios/os/ports/common/ARMCMx/CMSIS/include/core_cm4.h"
 917              		.file 10 "chibios/os/ports/GCC/ARMCMx/chcore_v7m.h"
 918              		.file 11 "chibios/os/ports/common/ARMCMx/nvic.h"
 919              		.section	.debug_info,"",%progbits
 920              	.Ldebug_info0:
 921 0000 610D0000 		.4byte	0xd61
 922 0004 0200     		.2byte	0x2
 923 0006 00000000 		.4byte	.Ldebug_abbrev0
 924 000a 04       		.byte	0x4
 925 000b 01       		.uleb128 0x1
 926 000c 60010000 		.4byte	.LASF107
 927 0010 01       		.byte	0x1
 928 0011 F5040000 		.4byte	.LASF108
 929 0015 17000000 		.4byte	.LASF109
 930 0019 70000000 		.4byte	.Ldebug_ranges0+0x70
 931 001d 00000000 		.4byte	0
 932 0021 00000000 		.4byte	0
 933 0025 00000000 		.4byte	.Ldebug_line0
 934 0029 02       		.uleb128 0x2
 935 002a 04       		.byte	0x4
 936 002b 05       		.byte	0x5
 937 002c 696E7400 		.ascii	"int\000"
 938 0030 03       		.uleb128 0x3
 939 0031 70000000 		.4byte	.LASF2
 940 0035 02       		.byte	0x2
 941 0036 D5       		.byte	0xd5
 942 0037 3B000000 		.4byte	0x3b
 943 003b 04       		.uleb128 0x4
 944 003c 04       		.byte	0x4
 945 003d 07       		.byte	0x7
 946 003e 54020000 		.4byte	.LASF0
 947 0042 04       		.uleb128 0x4
 948 0043 01       		.byte	0x1
 949 0044 06       		.byte	0x6
 950 0045 3E010000 		.4byte	.LASF1
 951 0049 03       		.uleb128 0x3
 952 004a DB040000 		.4byte	.LASF3
 953 004e 03       		.byte	0x3
 954 004f 2A       		.byte	0x2a
 955 0050 54000000 		.4byte	0x54
 956 0054 04       		.uleb128 0x4
ARM GAS  /tmp/ccPhbTL6.s 			page 18


 957 0055 01       		.byte	0x1
 958 0056 08       		.byte	0x8
 959 0057 15040000 		.4byte	.LASF4
 960 005b 04       		.uleb128 0x4
 961 005c 02       		.byte	0x2
 962 005d 05       		.byte	0x5
 963 005e 23040000 		.4byte	.LASF5
 964 0062 03       		.uleb128 0x3
 965 0063 D8010000 		.4byte	.LASF6
 966 0067 03       		.byte	0x3
 967 0068 36       		.byte	0x36
 968 0069 6D000000 		.4byte	0x6d
 969 006d 04       		.uleb128 0x4
 970 006e 02       		.byte	0x2
 971 006f 07       		.byte	0x7
 972 0070 D4020000 		.4byte	.LASF7
 973 0074 03       		.uleb128 0x3
 974 0075 0D040000 		.4byte	.LASF8
 975 0079 03       		.byte	0x3
 976 007a 4F       		.byte	0x4f
 977 007b 7F000000 		.4byte	0x7f
 978 007f 04       		.uleb128 0x4
 979 0080 04       		.byte	0x4
 980 0081 05       		.byte	0x5
 981 0082 C6010000 		.4byte	.LASF9
 982 0086 03       		.uleb128 0x3
 983 0087 4E040000 		.4byte	.LASF10
 984 008b 03       		.byte	0x3
 985 008c 50       		.byte	0x50
 986 008d 91000000 		.4byte	0x91
 987 0091 04       		.uleb128 0x4
 988 0092 04       		.byte	0x4
 989 0093 07       		.byte	0x7
 990 0094 91020000 		.4byte	.LASF11
 991 0098 04       		.uleb128 0x4
 992 0099 08       		.byte	0x8
 993 009a 05       		.byte	0x5
 994 009b 30010000 		.4byte	.LASF12
 995 009f 04       		.uleb128 0x4
 996 00a0 08       		.byte	0x8
 997 00a1 07       		.byte	0x7
 998 00a2 AF000000 		.4byte	.LASF13
 999 00a6 03       		.uleb128 0x3
 1000 00a7 02010000 		.4byte	.LASF14
 1001 00ab 04       		.byte	0x4
 1002 00ac 24       		.byte	0x24
 1003 00ad B1000000 		.4byte	0xb1
 1004 00b1 04       		.uleb128 0x4
 1005 00b2 01       		.byte	0x1
 1006 00b3 02       		.byte	0x2
 1007 00b4 07040000 		.4byte	.LASF15
 1008 00b8 05       		.uleb128 0x5
 1009 00b9 04       		.byte	0x4
 1010 00ba 06       		.uleb128 0x6
 1011 00bb 86000000 		.4byte	0x86
 1012 00bf 04       		.uleb128 0x4
 1013 00c0 04       		.byte	0x4
ARM GAS  /tmp/ccPhbTL6.s 			page 19


 1014 00c1 07       		.byte	0x7
 1015 00c2 42030000 		.4byte	.LASF16
 1016 00c6 04       		.uleb128 0x4
 1017 00c7 01       		.byte	0x1
 1018 00c8 08       		.byte	0x8
 1019 00c9 57040000 		.4byte	.LASF17
 1020 00cd 06       		.uleb128 0x6
 1021 00ce 62000000 		.4byte	0x62
 1022 00d2 06       		.uleb128 0x6
 1023 00d3 74000000 		.4byte	0x74
 1024 00d7 07       		.uleb128 0x7
 1025 00d8 10       		.byte	0x10
 1026 00d9 05       		.byte	0x5
 1027 00da E501     		.2byte	0x1e5
 1028 00dc 1D010000 		.4byte	0x11d
 1029 00e0 08       		.uleb128 0x8
 1030 00e1 43435200 		.ascii	"CCR\000"
 1031 00e5 05       		.byte	0x5
 1032 00e6 E701     		.2byte	0x1e7
 1033 00e8 BA000000 		.4byte	0xba
 1034 00ec 02       		.byte	0x2
 1035 00ed 23       		.byte	0x23
 1036 00ee 00       		.uleb128 0
 1037 00ef 09       		.uleb128 0x9
 1038 00f0 C4040000 		.4byte	.LASF18
 1039 00f4 05       		.byte	0x5
 1040 00f5 E801     		.2byte	0x1e8
 1041 00f7 BA000000 		.4byte	0xba
 1042 00fb 02       		.byte	0x2
 1043 00fc 23       		.byte	0x23
 1044 00fd 04       		.uleb128 0x4
 1045 00fe 09       		.uleb128 0x9
 1046 00ff 79020000 		.4byte	.LASF19
 1047 0103 05       		.byte	0x5
 1048 0104 E901     		.2byte	0x1e9
 1049 0106 BA000000 		.4byte	0xba
 1050 010a 02       		.byte	0x2
 1051 010b 23       		.byte	0x23
 1052 010c 08       		.uleb128 0x8
 1053 010d 09       		.uleb128 0x9
 1054 010e 27030000 		.4byte	.LASF20
 1055 0112 05       		.byte	0x5
 1056 0113 EA01     		.2byte	0x1ea
 1057 0115 BA000000 		.4byte	0xba
 1058 0119 02       		.byte	0x2
 1059 011a 23       		.byte	0x23
 1060 011b 0C       		.uleb128 0xc
 1061 011c 00       		.byte	0
 1062 011d 0A       		.uleb128 0xa
 1063 011e B9020000 		.4byte	.LASF21
 1064 0122 05       		.byte	0x5
 1065 0123 EB01     		.2byte	0x1eb
 1066 0125 D7000000 		.4byte	0xd7
 1067 0129 07       		.uleb128 0x7
 1068 012a 34       		.byte	0x34
 1069 012b 05       		.byte	0x5
 1070 012c 8502     		.2byte	0x285
ARM GAS  /tmp/ccPhbTL6.s 			page 20


 1071 012e F5010000 		.4byte	0x1f5
 1072 0132 08       		.uleb128 0x8
 1073 0133 435200   		.ascii	"CR\000"
 1074 0136 05       		.byte	0x5
 1075 0137 8702     		.2byte	0x287
 1076 0139 BA000000 		.4byte	0xba
 1077 013d 02       		.byte	0x2
 1078 013e 23       		.byte	0x23
 1079 013f 00       		.uleb128 0
 1080 0140 09       		.uleb128 0x9
 1081 0141 2D050000 		.4byte	.LASF22
 1082 0145 05       		.byte	0x5
 1083 0146 8802     		.2byte	0x288
 1084 0148 BA000000 		.4byte	0xba
 1085 014c 02       		.byte	0x2
 1086 014d 23       		.byte	0x23
 1087 014e 04       		.uleb128 0x4
 1088 014f 08       		.uleb128 0x8
 1089 0150 43495200 		.ascii	"CIR\000"
 1090 0154 05       		.byte	0x5
 1091 0155 8902     		.2byte	0x289
 1092 0157 BA000000 		.4byte	0xba
 1093 015b 02       		.byte	0x2
 1094 015c 23       		.byte	0x23
 1095 015d 08       		.uleb128 0x8
 1096 015e 09       		.uleb128 0x9
 1097 015f CF010000 		.4byte	.LASF23
 1098 0163 05       		.byte	0x5
 1099 0164 8A02     		.2byte	0x28a
 1100 0166 BA000000 		.4byte	0xba
 1101 016a 02       		.byte	0x2
 1102 016b 23       		.byte	0x23
 1103 016c 0C       		.uleb128 0xc
 1104 016d 09       		.uleb128 0x9
 1105 016e AF030000 		.4byte	.LASF24
 1106 0172 05       		.byte	0x5
 1107 0173 8B02     		.2byte	0x28b
 1108 0175 BA000000 		.4byte	0xba
 1109 0179 02       		.byte	0x2
 1110 017a 23       		.byte	0x23
 1111 017b 10       		.uleb128 0x10
 1112 017c 09       		.uleb128 0x9
 1113 017d 6D050000 		.4byte	.LASF25
 1114 0181 05       		.byte	0x5
 1115 0182 8C02     		.2byte	0x28c
 1116 0184 BA000000 		.4byte	0xba
 1117 0188 02       		.byte	0x2
 1118 0189 23       		.byte	0x23
 1119 018a 14       		.uleb128 0x14
 1120 018b 09       		.uleb128 0x9
 1121 018c 39040000 		.4byte	.LASF26
 1122 0190 05       		.byte	0x5
 1123 0191 8D02     		.2byte	0x28d
 1124 0193 BA000000 		.4byte	0xba
 1125 0197 02       		.byte	0x2
 1126 0198 23       		.byte	0x23
 1127 0199 18       		.uleb128 0x18
ARM GAS  /tmp/ccPhbTL6.s 			page 21


 1128 019a 09       		.uleb128 0x9
 1129 019b A2040000 		.4byte	.LASF27
 1130 019f 05       		.byte	0x5
 1131 01a0 8E02     		.2byte	0x28e
 1132 01a2 BA000000 		.4byte	0xba
 1133 01a6 02       		.byte	0x2
 1134 01a7 23       		.byte	0x23
 1135 01a8 1C       		.uleb128 0x1c
 1136 01a9 09       		.uleb128 0x9
 1137 01aa CA040000 		.4byte	.LASF28
 1138 01ae 05       		.byte	0x5
 1139 01af 8F02     		.2byte	0x28f
 1140 01b1 BA000000 		.4byte	0xba
 1141 01b5 02       		.byte	0x2
 1142 01b6 23       		.byte	0x23
 1143 01b7 20       		.uleb128 0x20
 1144 01b8 08       		.uleb128 0x8
 1145 01b9 43535200 		.ascii	"CSR\000"
 1146 01bd 05       		.byte	0x5
 1147 01be 9002     		.2byte	0x290
 1148 01c0 BA000000 		.4byte	0xba
 1149 01c4 02       		.byte	0x2
 1150 01c5 23       		.byte	0x23
 1151 01c6 24       		.uleb128 0x24
 1152 01c7 09       		.uleb128 0x9
 1153 01c8 A7030000 		.4byte	.LASF29
 1154 01cc 05       		.byte	0x5
 1155 01cd 9102     		.2byte	0x291
 1156 01cf BA000000 		.4byte	0xba
 1157 01d3 02       		.byte	0x2
 1158 01d4 23       		.byte	0x23
 1159 01d5 28       		.uleb128 0x28
 1160 01d6 09       		.uleb128 0x9
 1161 01d7 CF040000 		.4byte	.LASF30
 1162 01db 05       		.byte	0x5
 1163 01dc 9202     		.2byte	0x292
 1164 01de BA000000 		.4byte	0xba
 1165 01e2 02       		.byte	0x2
 1166 01e3 23       		.byte	0x23
 1167 01e4 2C       		.uleb128 0x2c
 1168 01e5 09       		.uleb128 0x9
 1169 01e6 D5040000 		.4byte	.LASF31
 1170 01ea 05       		.byte	0x5
 1171 01eb 9302     		.2byte	0x293
 1172 01ed BA000000 		.4byte	0xba
 1173 01f1 02       		.byte	0x2
 1174 01f2 23       		.byte	0x23
 1175 01f3 30       		.uleb128 0x30
 1176 01f4 00       		.byte	0
 1177 01f5 0A       		.uleb128 0xa
 1178 01f6 AD020000 		.4byte	.LASF32
 1179 01fa 05       		.byte	0x5
 1180 01fb 9402     		.2byte	0x294
 1181 01fd 29010000 		.4byte	0x129
 1182 0201 07       		.uleb128 0x7
 1183 0202 2C       		.byte	0x2c
 1184 0203 05       		.byte	0x5
ARM GAS  /tmp/ccPhbTL6.s 			page 22


 1185 0204 1B03     		.2byte	0x31b
 1186 0206 FB020000 		.4byte	0x2fb
 1187 020a 08       		.uleb128 0x8
 1188 020b 43523100 		.ascii	"CR1\000"
 1189 020f 05       		.byte	0x5
 1190 0210 1D03     		.2byte	0x31d
 1191 0212 BA000000 		.4byte	0xba
 1192 0216 02       		.byte	0x2
 1193 0217 23       		.byte	0x23
 1194 0218 00       		.uleb128 0
 1195 0219 08       		.uleb128 0x8
 1196 021a 43523200 		.ascii	"CR2\000"
 1197 021e 05       		.byte	0x5
 1198 021f 1E03     		.2byte	0x31e
 1199 0221 BA000000 		.4byte	0xba
 1200 0225 02       		.byte	0x2
 1201 0226 23       		.byte	0x23
 1202 0227 04       		.uleb128 0x4
 1203 0228 08       		.uleb128 0x8
 1204 0229 43523300 		.ascii	"CR3\000"
 1205 022d 05       		.byte	0x5
 1206 022e 1F03     		.2byte	0x31f
 1207 0230 BA000000 		.4byte	0xba
 1208 0234 02       		.byte	0x2
 1209 0235 23       		.byte	0x23
 1210 0236 08       		.uleb128 0x8
 1211 0237 08       		.uleb128 0x8
 1212 0238 42525200 		.ascii	"BRR\000"
 1213 023c 05       		.byte	0x5
 1214 023d 2003     		.2byte	0x320
 1215 023f CD000000 		.4byte	0xcd
 1216 0243 02       		.byte	0x2
 1217 0244 23       		.byte	0x23
 1218 0245 0C       		.uleb128 0xc
 1219 0246 09       		.uleb128 0x9
 1220 0247 B8030000 		.4byte	.LASF33
 1221 024b 05       		.byte	0x5
 1222 024c 2103     		.2byte	0x321
 1223 024e 62000000 		.4byte	0x62
 1224 0252 02       		.byte	0x2
 1225 0253 23       		.byte	0x23
 1226 0254 0E       		.uleb128 0xe
 1227 0255 09       		.uleb128 0x9
 1228 0256 53010000 		.4byte	.LASF34
 1229 025a 05       		.byte	0x5
 1230 025b 2203     		.2byte	0x322
 1231 025d CD000000 		.4byte	0xcd
 1232 0261 02       		.byte	0x2
 1233 0262 23       		.byte	0x23
 1234 0263 10       		.uleb128 0x10
 1235 0264 09       		.uleb128 0x9
 1236 0265 C2030000 		.4byte	.LASF35
 1237 0269 05       		.byte	0x5
 1238 026a 2303     		.2byte	0x323
 1239 026c 62000000 		.4byte	0x62
 1240 0270 02       		.byte	0x2
 1241 0271 23       		.byte	0x23
ARM GAS  /tmp/ccPhbTL6.s 			page 23


 1242 0272 12       		.uleb128 0x12
 1243 0273 09       		.uleb128 0x9
 1244 0274 9D040000 		.4byte	.LASF36
 1245 0278 05       		.byte	0x5
 1246 0279 2403     		.2byte	0x324
 1247 027b BA000000 		.4byte	0xba
 1248 027f 02       		.byte	0x2
 1249 0280 23       		.byte	0x23
 1250 0281 14       		.uleb128 0x14
 1251 0282 08       		.uleb128 0x8
 1252 0283 52515200 		.ascii	"RQR\000"
 1253 0287 05       		.byte	0x5
 1254 0288 2503     		.2byte	0x325
 1255 028a CD000000 		.4byte	0xcd
 1256 028e 02       		.byte	0x2
 1257 028f 23       		.byte	0x23
 1258 0290 18       		.uleb128 0x18
 1259 0291 09       		.uleb128 0x9
 1260 0292 CC030000 		.4byte	.LASF37
 1261 0296 05       		.byte	0x5
 1262 0297 2603     		.2byte	0x326
 1263 0299 62000000 		.4byte	0x62
 1264 029d 02       		.byte	0x2
 1265 029e 23       		.byte	0x23
 1266 029f 1A       		.uleb128 0x1a
 1267 02a0 08       		.uleb128 0x8
 1268 02a1 49535200 		.ascii	"ISR\000"
 1269 02a5 05       		.byte	0x5
 1270 02a6 2703     		.2byte	0x327
 1271 02a8 BA000000 		.4byte	0xba
 1272 02ac 02       		.byte	0x2
 1273 02ad 23       		.byte	0x23
 1274 02ae 1C       		.uleb128 0x1c
 1275 02af 08       		.uleb128 0x8
 1276 02b0 49435200 		.ascii	"ICR\000"
 1277 02b4 05       		.byte	0x5
 1278 02b5 2803     		.2byte	0x328
 1279 02b7 BA000000 		.4byte	0xba
 1280 02bb 02       		.byte	0x2
 1281 02bc 23       		.byte	0x23
 1282 02bd 20       		.uleb128 0x20
 1283 02be 08       		.uleb128 0x8
 1284 02bf 52445200 		.ascii	"RDR\000"
 1285 02c3 05       		.byte	0x5
 1286 02c4 2903     		.2byte	0x329
 1287 02c6 CD000000 		.4byte	0xcd
 1288 02ca 02       		.byte	0x2
 1289 02cb 23       		.byte	0x23
 1290 02cc 24       		.uleb128 0x24
 1291 02cd 09       		.uleb128 0x9
 1292 02ce D6030000 		.4byte	.LASF38
 1293 02d2 05       		.byte	0x5
 1294 02d3 2A03     		.2byte	0x32a
 1295 02d5 62000000 		.4byte	0x62
 1296 02d9 02       		.byte	0x2
 1297 02da 23       		.byte	0x23
 1298 02db 26       		.uleb128 0x26
ARM GAS  /tmp/ccPhbTL6.s 			page 24


 1299 02dc 08       		.uleb128 0x8
 1300 02dd 54445200 		.ascii	"TDR\000"
 1301 02e1 05       		.byte	0x5
 1302 02e2 2B03     		.2byte	0x32b
 1303 02e4 CD000000 		.4byte	0xcd
 1304 02e8 02       		.byte	0x2
 1305 02e9 23       		.byte	0x23
 1306 02ea 28       		.uleb128 0x28
 1307 02eb 09       		.uleb128 0x9
 1308 02ec E0030000 		.4byte	.LASF39
 1309 02f0 05       		.byte	0x5
 1310 02f1 2C03     		.2byte	0x32c
 1311 02f3 62000000 		.4byte	0x62
 1312 02f7 02       		.byte	0x2
 1313 02f8 23       		.byte	0x23
 1314 02f9 2A       		.uleb128 0x2a
 1315 02fa 00       		.byte	0
 1316 02fb 0A       		.uleb128 0xa
 1317 02fc 10030000 		.4byte	.LASF40
 1318 0300 05       		.byte	0x5
 1319 0301 2D03     		.2byte	0x32d
 1320 0303 01020000 		.4byte	0x201
 1321 0307 0B       		.uleb128 0xb
 1322 0308 0C       		.byte	0xc
 1323 0309 06       		.byte	0x6
 1324 030a C1       		.byte	0xc1
 1325 030b 56030000 		.4byte	0x356
 1326 030f 0C       		.uleb128 0xc
 1327 0310 41040000 		.4byte	.LASF41
 1328 0314 06       		.byte	0x6
 1329 0315 C2       		.byte	0xc2
 1330 0316 56030000 		.4byte	0x356
 1331 031a 02       		.byte	0x2
 1332 031b 23       		.byte	0x23
 1333 031c 00       		.uleb128 0
 1334 031d 0C       		.uleb128 0xc
 1335 031e 49040000 		.4byte	.LASF42
 1336 0322 06       		.byte	0x6
 1337 0323 C3       		.byte	0xc3
 1338 0324 5C030000 		.4byte	0x35c
 1339 0328 02       		.byte	0x2
 1340 0329 23       		.byte	0x23
 1341 032a 04       		.uleb128 0x4
 1342 032b 0C       		.uleb128 0xc
 1343 032c CD020000 		.4byte	.LASF43
 1344 0330 06       		.byte	0x6
 1345 0331 C4       		.byte	0xc4
 1346 0332 49000000 		.4byte	0x49
 1347 0336 02       		.byte	0x2
 1348 0337 23       		.byte	0x23
 1349 0338 08       		.uleb128 0x8
 1350 0339 0C       		.uleb128 0xc
 1351 033a 19020000 		.4byte	.LASF44
 1352 033e 06       		.byte	0x6
 1353 033f C6       		.byte	0xc6
 1354 0340 49000000 		.4byte	0x49
 1355 0344 02       		.byte	0x2
ARM GAS  /tmp/ccPhbTL6.s 			page 25


 1356 0345 23       		.byte	0x23
 1357 0346 09       		.uleb128 0x9
 1358 0347 0C       		.uleb128 0xc
 1359 0348 D0000000 		.4byte	.LASF45
 1360 034c 06       		.byte	0x6
 1361 034d C7       		.byte	0xc7
 1362 034e 49000000 		.4byte	0x49
 1363 0352 02       		.byte	0x2
 1364 0353 23       		.byte	0x23
 1365 0354 0A       		.uleb128 0xa
 1366 0355 00       		.byte	0
 1367 0356 0D       		.uleb128 0xd
 1368 0357 04       		.byte	0x4
 1369 0358 1D010000 		.4byte	0x11d
 1370 035c 0D       		.uleb128 0xd
 1371 035d 04       		.byte	0x4
 1372 035e BA000000 		.4byte	0xba
 1373 0362 03       		.uleb128 0x3
 1374 0363 EA030000 		.4byte	.LASF46
 1375 0367 06       		.byte	0x6
 1376 0368 C8       		.byte	0xc8
 1377 0369 07030000 		.4byte	0x307
 1378 036d 03       		.uleb128 0x3
 1379 036e A9010000 		.4byte	.LASF47
 1380 0372 06       		.byte	0x6
 1381 0373 D1       		.byte	0xd1
 1382 0374 78030000 		.4byte	0x378
 1383 0378 0D       		.uleb128 0xd
 1384 0379 04       		.byte	0x4
 1385 037a 7E030000 		.4byte	0x37e
 1386 037e 0E       		.uleb128 0xe
 1387 037f 01       		.byte	0x1
 1388 0380 8F030000 		.4byte	0x38f
 1389 0384 0F       		.uleb128 0xf
 1390 0385 B8000000 		.4byte	0xb8
 1391 0389 0F       		.uleb128 0xf
 1392 038a 86000000 		.4byte	0x86
 1393 038e 00       		.byte	0
 1394 038f 10       		.uleb128 0x10
 1395 0390 01       		.byte	0x1
 1396 0391 07       		.byte	0x7
 1397 0392 41       		.byte	0x41
 1398 0393 AA030000 		.4byte	0x3aa
 1399 0397 11       		.uleb128 0x11
 1400 0398 E7020000 		.4byte	.LASF48
 1401 039c 00       		.sleb128 0
 1402 039d 11       		.uleb128 0x11
 1403 039e F3020000 		.4byte	.LASF49
 1404 03a2 01       		.sleb128 1
 1405 03a3 11       		.uleb128 0x11
 1406 03a4 34020000 		.4byte	.LASF50
 1407 03a8 02       		.sleb128 2
 1408 03a9 00       		.byte	0
 1409 03aa 03       		.uleb128 0x3
 1410 03ab 2D040000 		.4byte	.LASF51
 1411 03af 07       		.byte	0x7
 1412 03b0 45       		.byte	0x45
ARM GAS  /tmp/ccPhbTL6.s 			page 26


 1413 03b1 8F030000 		.4byte	0x38f
 1414 03b5 10       		.uleb128 0x10
 1415 03b6 01       		.byte	0x1
 1416 03b7 07       		.byte	0x7
 1417 03b8 4A       		.byte	0x4a
 1418 03b9 D0030000 		.4byte	0x3d0
 1419 03bd 11       		.uleb128 0x11
 1420 03be 90040000 		.4byte	.LASF52
 1421 03c2 00       		.sleb128 0
 1422 03c3 11       		.uleb128 0x11
 1423 03c4 3F020000 		.4byte	.LASF53
 1424 03c8 01       		.sleb128 1
 1425 03c9 11       		.uleb128 0x11
 1426 03ca 74050000 		.4byte	.LASF54
 1427 03ce 02       		.sleb128 2
 1428 03cf 00       		.byte	0
 1429 03d0 03       		.uleb128 0x3
 1430 03d1 99030000 		.4byte	.LASF55
 1431 03d5 07       		.byte	0x7
 1432 03d6 4E       		.byte	0x4e
 1433 03d7 B5030000 		.4byte	0x3b5
 1434 03db 10       		.uleb128 0x10
 1435 03dc 01       		.byte	0x1
 1436 03dd 07       		.byte	0x7
 1437 03de 53       		.byte	0x53
 1438 03df F6030000 		.4byte	0x3f6
 1439 03e3 11       		.uleb128 0x11
 1440 03e4 79040000 		.4byte	.LASF56
 1441 03e8 00       		.sleb128 0
 1442 03e9 11       		.uleb128 0x11
 1443 03ea 53000000 		.4byte	.LASF57
 1444 03ee 01       		.sleb128 1
 1445 03ef 11       		.uleb128 0x11
 1446 03f0 5C030000 		.4byte	.LASF58
 1447 03f4 02       		.sleb128 2
 1448 03f5 00       		.byte	0
 1449 03f6 03       		.uleb128 0x3
 1450 03f7 EB010000 		.4byte	.LASF59
 1451 03fb 07       		.byte	0x7
 1452 03fc 57       		.byte	0x57
 1453 03fd DB030000 		.4byte	0x3db
 1454 0401 0A       		.uleb128 0xa
 1455 0402 47000000 		.4byte	.LASF60
 1456 0406 08       		.byte	0x8
 1457 0407 2C01     		.2byte	0x12c
 1458 0409 86000000 		.4byte	0x86
 1459 040d 0A       		.uleb128 0xa
 1460 040e 0E020000 		.4byte	.LASF61
 1461 0412 08       		.byte	0x8
 1462 0413 3101     		.2byte	0x131
 1463 0415 19040000 		.4byte	0x419
 1464 0419 12       		.uleb128 0x12
 1465 041a 0E020000 		.4byte	.LASF61
 1466 041e 1C       		.byte	0x1c
 1467 041f 08       		.byte	0x8
 1468 0420 7901     		.2byte	0x179
 1469 0422 AE040000 		.4byte	0x4ae
ARM GAS  /tmp/ccPhbTL6.s 			page 27


 1470 0426 09       		.uleb128 0x9
 1471 0427 B8010000 		.4byte	.LASF62
 1472 042b 08       		.byte	0x8
 1473 042c 7D01     		.2byte	0x17d
 1474 042e AA030000 		.4byte	0x3aa
 1475 0432 02       		.byte	0x2
 1476 0433 23       		.byte	0x23
 1477 0434 00       		.uleb128 0
 1478 0435 09       		.uleb128 0x9
 1479 0436 BE010000 		.4byte	.LASF63
 1480 043a 08       		.byte	0x8
 1481 043b 8101     		.2byte	0x181
 1482 043d D0030000 		.4byte	0x3d0
 1483 0441 02       		.byte	0x2
 1484 0442 23       		.byte	0x23
 1485 0443 01       		.uleb128 0x1
 1486 0444 09       		.uleb128 0x9
 1487 0445 58010000 		.4byte	.LASF64
 1488 0449 08       		.byte	0x8
 1489 044a 8501     		.2byte	0x185
 1490 044c F6030000 		.4byte	0x3f6
 1491 0450 02       		.byte	0x2
 1492 0451 23       		.byte	0x23
 1493 0452 02       		.uleb128 0x2
 1494 0453 09       		.uleb128 0x9
 1495 0454 72040000 		.4byte	.LASF65
 1496 0458 08       		.byte	0x8
 1497 0459 8901     		.2byte	0x189
 1498 045b B5050000 		.4byte	0x5b5
 1499 045f 02       		.byte	0x2
 1500 0460 23       		.byte	0x23
 1501 0461 04       		.uleb128 0x4
 1502 0462 09       		.uleb128 0x9
 1503 0463 4E020000 		.4byte	.LASF66
 1504 0467 08       		.byte	0x8
 1505 0468 9101     		.2byte	0x191
 1506 046a C0050000 		.4byte	0x5c0
 1507 046e 02       		.byte	0x2
 1508 046f 23       		.byte	0x23
 1509 0470 08       		.uleb128 0x8
 1510 0471 09       		.uleb128 0x9
 1511 0472 81000000 		.4byte	.LASF67
 1512 0476 08       		.byte	0x8
 1513 0477 9501     		.2byte	0x195
 1514 0479 86000000 		.4byte	0x86
 1515 047d 02       		.byte	0x2
 1516 047e 23       		.byte	0x23
 1517 047f 0C       		.uleb128 0xc
 1518 0480 09       		.uleb128 0x9
 1519 0481 9E000000 		.4byte	.LASF68
 1520 0485 08       		.byte	0x8
 1521 0486 9901     		.2byte	0x199
 1522 0488 C6050000 		.4byte	0x5c6
 1523 048c 02       		.byte	0x2
 1524 048d 23       		.byte	0x23
 1525 048e 10       		.uleb128 0x10
 1526 048f 09       		.uleb128 0x9
ARM GAS  /tmp/ccPhbTL6.s 			page 28


 1527 0490 F9010000 		.4byte	.LASF69
 1528 0494 08       		.byte	0x8
 1529 0495 9D01     		.2byte	0x19d
 1530 0497 C6050000 		.4byte	0x5c6
 1531 049b 02       		.byte	0x2
 1532 049c 23       		.byte	0x23
 1533 049d 14       		.uleb128 0x14
 1534 049e 09       		.uleb128 0x9
 1535 049f 98000000 		.4byte	.LASF70
 1536 04a3 08       		.byte	0x8
 1537 04a4 A101     		.2byte	0x1a1
 1538 04a6 CD000000 		.4byte	0xcd
 1539 04aa 02       		.byte	0x2
 1540 04ab 23       		.byte	0x23
 1541 04ac 18       		.uleb128 0x18
 1542 04ad 00       		.byte	0
 1543 04ae 0A       		.uleb128 0xa
 1544 04af 4A010000 		.4byte	.LASF71
 1545 04b3 08       		.byte	0x8
 1546 04b4 3801     		.2byte	0x138
 1547 04b6 BA040000 		.4byte	0x4ba
 1548 04ba 0D       		.uleb128 0xd
 1549 04bb 04       		.byte	0x4
 1550 04bc C0040000 		.4byte	0x4c0
 1551 04c0 0E       		.uleb128 0xe
 1552 04c1 01       		.byte	0x1
 1553 04c2 CC040000 		.4byte	0x4cc
 1554 04c6 0F       		.uleb128 0xf
 1555 04c7 CC040000 		.4byte	0x4cc
 1556 04cb 00       		.byte	0
 1557 04cc 0D       		.uleb128 0xd
 1558 04cd 04       		.byte	0x4
 1559 04ce 0D040000 		.4byte	0x40d
 1560 04d2 0A       		.uleb128 0xa
 1561 04d3 C6000000 		.4byte	.LASF72
 1562 04d7 08       		.byte	0x8
 1563 04d8 4001     		.2byte	0x140
 1564 04da DE040000 		.4byte	0x4de
 1565 04de 0D       		.uleb128 0xd
 1566 04df 04       		.byte	0x4
 1567 04e0 E4040000 		.4byte	0x4e4
 1568 04e4 0E       		.uleb128 0xe
 1569 04e5 01       		.byte	0x1
 1570 04e6 F5040000 		.4byte	0x4f5
 1571 04ea 0F       		.uleb128 0xf
 1572 04eb CC040000 		.4byte	0x4cc
 1573 04ef 0F       		.uleb128 0xf
 1574 04f0 62000000 		.4byte	0x62
 1575 04f4 00       		.byte	0
 1576 04f5 0A       		.uleb128 0xa
 1577 04f6 A3020000 		.4byte	.LASF73
 1578 04fa 08       		.byte	0x8
 1579 04fb 4801     		.2byte	0x148
 1580 04fd 01050000 		.4byte	0x501
 1581 0501 0D       		.uleb128 0xd
 1582 0502 04       		.byte	0x4
 1583 0503 07050000 		.4byte	0x507
ARM GAS  /tmp/ccPhbTL6.s 			page 29


 1584 0507 0E       		.uleb128 0xe
 1585 0508 01       		.byte	0x1
 1586 0509 18050000 		.4byte	0x518
 1587 050d 0F       		.uleb128 0xf
 1588 050e CC040000 		.4byte	0x4cc
 1589 0512 0F       		.uleb128 0xf
 1590 0513 01040000 		.4byte	0x401
 1591 0517 00       		.byte	0
 1592 0518 07       		.uleb128 0x7
 1593 0519 24       		.byte	0x24
 1594 051a 08       		.byte	0x8
 1595 051b 4E01     		.2byte	0x14e
 1596 051d A9050000 		.4byte	0x5a9
 1597 0521 09       		.uleb128 0x9
 1598 0522 86040000 		.4byte	.LASF74
 1599 0526 08       		.byte	0x8
 1600 0527 5201     		.2byte	0x152
 1601 0529 AE040000 		.4byte	0x4ae
 1602 052d 02       		.byte	0x2
 1603 052e 23       		.byte	0x23
 1604 052f 00       		.uleb128 0
 1605 0530 09       		.uleb128 0x9
 1606 0531 FD030000 		.4byte	.LASF75
 1607 0535 08       		.byte	0x8
 1608 0536 5601     		.2byte	0x156
 1609 0538 AE040000 		.4byte	0x4ae
 1610 053c 02       		.byte	0x2
 1611 053d 23       		.byte	0x23
 1612 053e 04       		.uleb128 0x4
 1613 053f 09       		.uleb128 0x9
 1614 0540 90030000 		.4byte	.LASF76
 1615 0544 08       		.byte	0x8
 1616 0545 5A01     		.2byte	0x15a
 1617 0547 AE040000 		.4byte	0x4ae
 1618 054b 02       		.byte	0x2
 1619 054c 23       		.byte	0x23
 1620 054d 08       		.uleb128 0x8
 1621 054e 09       		.uleb128 0x9
 1622 054f 77000000 		.4byte	.LASF77
 1623 0553 08       		.byte	0x8
 1624 0554 5E01     		.2byte	0x15e
 1625 0556 D2040000 		.4byte	0x4d2
 1626 055a 02       		.byte	0x2
 1627 055b 23       		.byte	0x23
 1628 055c 0C       		.uleb128 0xc
 1629 055d 09       		.uleb128 0x9
 1630 055e 6D030000 		.4byte	.LASF78
 1631 0562 08       		.byte	0x8
 1632 0563 6201     		.2byte	0x162
 1633 0565 F5040000 		.4byte	0x4f5
 1634 0569 02       		.byte	0x2
 1635 056a 23       		.byte	0x23
 1636 056b 10       		.uleb128 0x10
 1637 056c 09       		.uleb128 0x9
 1638 056d 27050000 		.4byte	.LASF79
 1639 0571 08       		.byte	0x8
 1640 0572 6701     		.2byte	0x167
ARM GAS  /tmp/ccPhbTL6.s 			page 30


 1641 0574 86000000 		.4byte	0x86
 1642 0578 02       		.byte	0x2
 1643 0579 23       		.byte	0x23
 1644 057a 14       		.uleb128 0x14
 1645 057b 08       		.uleb128 0x8
 1646 057c 63723100 		.ascii	"cr1\000"
 1647 0580 08       		.byte	0x8
 1648 0581 6B01     		.2byte	0x16b
 1649 0583 86000000 		.4byte	0x86
 1650 0587 02       		.byte	0x2
 1651 0588 23       		.byte	0x23
 1652 0589 18       		.uleb128 0x18
 1653 058a 08       		.uleb128 0x8
 1654 058b 63723200 		.ascii	"cr2\000"
 1655 058f 08       		.byte	0x8
 1656 0590 6F01     		.2byte	0x16f
 1657 0592 86000000 		.4byte	0x86
 1658 0596 02       		.byte	0x2
 1659 0597 23       		.byte	0x23
 1660 0598 1C       		.uleb128 0x1c
 1661 0599 08       		.uleb128 0x8
 1662 059a 63723300 		.ascii	"cr3\000"
 1663 059e 08       		.byte	0x8
 1664 059f 7301     		.2byte	0x173
 1665 05a1 86000000 		.4byte	0x86
 1666 05a5 02       		.byte	0x2
 1667 05a6 23       		.byte	0x23
 1668 05a7 20       		.uleb128 0x20
 1669 05a8 00       		.byte	0
 1670 05a9 0A       		.uleb128 0xa
 1671 05aa EA000000 		.4byte	.LASF80
 1672 05ae 08       		.byte	0x8
 1673 05af 7401     		.2byte	0x174
 1674 05b1 18050000 		.4byte	0x518
 1675 05b5 0D       		.uleb128 0xd
 1676 05b6 04       		.byte	0x4
 1677 05b7 BB050000 		.4byte	0x5bb
 1678 05bb 13       		.uleb128 0x13
 1679 05bc A9050000 		.4byte	0x5a9
 1680 05c0 0D       		.uleb128 0xd
 1681 05c1 04       		.byte	0x4
 1682 05c2 FB020000 		.4byte	0x2fb
 1683 05c6 0D       		.uleb128 0xd
 1684 05c7 04       		.byte	0x4
 1685 05c8 CC050000 		.4byte	0x5cc
 1686 05cc 13       		.uleb128 0x13
 1687 05cd 62030000 		.4byte	0x362
 1688 05d1 14       		.uleb128 0x14
 1689 05d2 AA040000 		.4byte	.LASF83
 1690 05d6 01       		.byte	0x1
 1691 05d7 C5       		.byte	0xc5
 1692 05d8 01       		.byte	0x1
 1693 05d9 01       		.byte	0x1
 1694 05da F5050000 		.4byte	0x5f5
 1695 05de 15       		.uleb128 0x15
 1696 05df 3C030000 		.4byte	.LASF81
 1697 05e3 01       		.byte	0x1
ARM GAS  /tmp/ccPhbTL6.s 			page 31


 1698 05e4 C5       		.byte	0xc5
 1699 05e5 CC040000 		.4byte	0x4cc
 1700 05e9 15       		.uleb128 0x15
 1701 05ea EF040000 		.4byte	.LASF82
 1702 05ee 01       		.byte	0x1
 1703 05ef C5       		.byte	0xc5
 1704 05f0 86000000 		.4byte	0x86
 1705 05f4 00       		.byte	0
 1706 05f5 16       		.uleb128 0x16
 1707 05f6 2C030000 		.4byte	.LASF84
 1708 05fa 01       		.byte	0x1
 1709 05fb 0A01     		.2byte	0x10a
 1710 05fd 01       		.byte	0x1
 1711 05fe 01       		.byte	0x1
 1712 05ff 26060000 		.4byte	0x626
 1713 0603 17       		.uleb128 0x17
 1714 0604 3C030000 		.4byte	.LASF81
 1715 0608 01       		.byte	0x1
 1716 0609 0A01     		.2byte	0x10a
 1717 060b CC040000 		.4byte	0x4cc
 1718 060f 18       		.uleb128 0x18
 1719 0610 69737200 		.ascii	"isr\000"
 1720 0614 01       		.byte	0x1
 1721 0615 0B01     		.2byte	0x10b
 1722 0617 86000000 		.4byte	0x86
 1723 061b 18       		.uleb128 0x18
 1724 061c 7500     		.ascii	"u\000"
 1725 061e 01       		.byte	0x1
 1726 061f 0C01     		.2byte	0x10c
 1727 0621 C0050000 		.4byte	0x5c0
 1728 0625 00       		.byte	0
 1729 0626 19       		.uleb128 0x19
 1730 0627 23020000 		.4byte	.LASF85
 1731 062b 01       		.byte	0x1
 1732 062c 71       		.byte	0x71
 1733 062d 01       		.byte	0x1
 1734 062e 00000000 		.4byte	.LFB119
 1735 0632 2C000000 		.4byte	.LFE119
 1736 0636 00000000 		.4byte	.LLST0
 1737 063a 01       		.byte	0x1
 1738 063b 5E060000 		.4byte	0x65e
 1739 063f 1A       		.uleb128 0x1a
 1740 0640 3C030000 		.4byte	.LASF81
 1741 0644 01       		.byte	0x1
 1742 0645 71       		.byte	0x71
 1743 0646 CC040000 		.4byte	0x4cc
 1744 064a 20000000 		.4byte	.LLST1
 1745 064e 1B       		.uleb128 0x1b
 1746 064f 6D040000 		.4byte	.LASF98
 1747 0653 01       		.byte	0x1
 1748 0654 72       		.byte	0x72
 1749 0655 86000000 		.4byte	0x86
 1750 0659 50000000 		.4byte	.LLST2
 1751 065d 00       		.byte	0
 1752 065e 19       		.uleb128 0x19
 1753 065f A4000000 		.4byte	.LASF86
 1754 0663 01       		.byte	0x1
ARM GAS  /tmp/ccPhbTL6.s 			page 32


 1755 0664 86       		.byte	0x86
 1756 0665 01       		.byte	0x1
 1757 0666 00000000 		.4byte	.LFB120
 1758 066a 46000000 		.4byte	.LFE120
 1759 066e 9E000000 		.4byte	.LLST3
 1760 0672 01       		.byte	0x1
 1761 0673 87060000 		.4byte	0x687
 1762 0677 1A       		.uleb128 0x1a
 1763 0678 3C030000 		.4byte	.LASF81
 1764 067c 01       		.byte	0x1
 1765 067d 86       		.byte	0x86
 1766 067e CC040000 		.4byte	0x4cc
 1767 0682 BE000000 		.4byte	.LLST4
 1768 0686 00       		.byte	0
 1769 0687 19       		.uleb128 0x19
 1770 0688 76030000 		.4byte	.LASF87
 1771 068c 01       		.byte	0x1
 1772 068d ED       		.byte	0xed
 1773 068e 01       		.byte	0x1
 1774 068f 00000000 		.4byte	.LFB123
 1775 0693 42000000 		.4byte	.LFE123
 1776 0697 DF000000 		.4byte	.LLST5
 1777 069b 01       		.byte	0x1
 1778 069c D8060000 		.4byte	0x6d8
 1779 06a0 1A       		.uleb128 0x1a
 1780 06a1 3C030000 		.4byte	.LASF81
 1781 06a5 01       		.byte	0x1
 1782 06a6 ED       		.byte	0xed
 1783 06a7 CC040000 		.4byte	0x4cc
 1784 06ab FF000000 		.4byte	.LLST6
 1785 06af 1A       		.uleb128 0x1a
 1786 06b0 EF040000 		.4byte	.LASF82
 1787 06b4 01       		.byte	0x1
 1788 06b5 ED       		.byte	0xed
 1789 06b6 86000000 		.4byte	0x86
 1790 06ba 33010000 		.4byte	.LLST7
 1791 06be 1C       		.uleb128 0x1c
 1792 06bf 2E000000 		.4byte	.LVL9
 1793 06c3 CE060000 		.4byte	0x6ce
 1794 06c7 1D       		.uleb128 0x1d
 1795 06c8 01       		.byte	0x1
 1796 06c9 50       		.byte	0x50
 1797 06ca 02       		.byte	0x2
 1798 06cb 74       		.byte	0x74
 1799 06cc 00       		.sleb128 0
 1800 06cd 00       		.byte	0
 1801 06ce 1E       		.uleb128 0x1e
 1802 06cf 40000000 		.4byte	.LVL11
 1803 06d3 D20C0000 		.4byte	0xcd2
 1804 06d7 00       		.byte	0
 1805 06d8 1F       		.uleb128 0x1f
 1806 06d9 D1050000 		.4byte	0x5d1
 1807 06dd 00000000 		.4byte	.LFB122
 1808 06e1 5E000000 		.4byte	.LFE122
 1809 06e5 6D010000 		.4byte	.LLST8
 1810 06e9 01       		.byte	0x1
 1811 06ea 63070000 		.4byte	0x763
ARM GAS  /tmp/ccPhbTL6.s 			page 33


 1812 06ee 20       		.uleb128 0x20
 1813 06ef DE050000 		.4byte	0x5de
 1814 06f3 8D010000 		.4byte	.LLST9
 1815 06f7 20       		.uleb128 0x20
 1816 06f8 E9050000 		.4byte	0x5e9
 1817 06fc C1010000 		.4byte	.LLST10
 1818 0700 21       		.uleb128 0x21
 1819 0701 D1050000 		.4byte	0x5d1
 1820 0705 1C000000 		.4byte	.LBB4
 1821 0709 00000000 		.4byte	.Ldebug_ranges0+0
 1822 070d 01       		.byte	0x1
 1823 070e C5       		.byte	0xc5
 1824 070f 49070000 		.4byte	0x749
 1825 0713 20       		.uleb128 0x20
 1826 0714 DE050000 		.4byte	0x5de
 1827 0718 FB010000 		.4byte	.LLST11
 1828 071c 22       		.uleb128 0x22
 1829 071d 20000000 		.4byte	.Ldebug_ranges0+0x20
 1830 0721 23       		.uleb128 0x23
 1831 0722 E9050000 		.4byte	0x5e9
 1832 0726 1C       		.uleb128 0x1c
 1833 0727 42000000 		.4byte	.LVL16
 1834 072b 36070000 		.4byte	0x736
 1835 072f 1D       		.uleb128 0x1d
 1836 0730 01       		.byte	0x1
 1837 0731 50       		.byte	0x50
 1838 0732 02       		.byte	0x2
 1839 0733 74       		.byte	0x74
 1840 0734 00       		.sleb128 0
 1841 0735 00       		.byte	0
 1842 0736 24       		.uleb128 0x24
 1843 0737 5E000000 		.4byte	.LVL21
 1844 073b 01       		.byte	0x1
 1845 073c 26060000 		.4byte	0x626
 1846 0740 1D       		.uleb128 0x1d
 1847 0741 01       		.byte	0x1
 1848 0742 50       		.byte	0x50
 1849 0743 02       		.byte	0x2
 1850 0744 74       		.byte	0x74
 1851 0745 00       		.sleb128 0
 1852 0746 00       		.byte	0
 1853 0747 00       		.byte	0
 1854 0748 00       		.byte	0
 1855 0749 1C       		.uleb128 0x1c
 1856 074a 1A000000 		.4byte	.LVL14
 1857 074e 59070000 		.4byte	0x759
 1858 0752 1D       		.uleb128 0x1d
 1859 0753 01       		.byte	0x1
 1860 0754 50       		.byte	0x50
 1861 0755 02       		.byte	0x2
 1862 0756 74       		.byte	0x74
 1863 0757 00       		.sleb128 0
 1864 0758 00       		.byte	0
 1865 0759 1E       		.uleb128 0x1e
 1866 075a 4E000000 		.4byte	.LVL19
 1867 075e D20C0000 		.4byte	0xcd2
 1868 0762 00       		.byte	0
ARM GAS  /tmp/ccPhbTL6.s 			page 34


 1869 0763 25       		.uleb128 0x25
 1870 0764 4B030000 		.4byte	.LASF110
 1871 0768 01       		.byte	0x1
 1872 0769 5C       		.byte	0x5c
 1873 076a 01       		.byte	0x1
 1874 076b 01040000 		.4byte	0x401
 1875 076f 01       		.byte	0x1
 1876 0770 8B070000 		.4byte	0x78b
 1877 0774 26       		.uleb128 0x26
 1878 0775 69737200 		.ascii	"isr\000"
 1879 0779 01       		.byte	0x1
 1880 077a 5C       		.byte	0x5c
 1881 077b 86000000 		.4byte	0x86
 1882 077f 27       		.uleb128 0x27
 1883 0780 73747300 		.ascii	"sts\000"
 1884 0784 01       		.byte	0x1
 1885 0785 5D       		.byte	0x5d
 1886 0786 01040000 		.4byte	0x401
 1887 078a 00       		.byte	0
 1888 078b 28       		.uleb128 0x28
 1889 078c 01       		.byte	0x1
 1890 078d 1E030000 		.4byte	.LASF88
 1891 0791 01       		.byte	0x1
 1892 0792 2B01     		.2byte	0x12b
 1893 0794 01       		.byte	0x1
 1894 0795 00000000 		.4byte	.LFB125
 1895 0799 60000000 		.4byte	.LFE125
 1896 079d 19020000 		.4byte	.LLST12
 1897 07a1 01       		.byte	0x1
 1898 07a2 D4090000 		.4byte	0x9d4
 1899 07a6 29       		.uleb128 0x29
 1900 07a7 F5050000 		.4byte	0x5f5
 1901 07ab 02000000 		.4byte	.LBB14
 1902 07af 54000000 		.4byte	.LBE14
 1903 07b3 01       		.byte	0x1
 1904 07b4 2F01     		.2byte	0x12f
 1905 07b6 C9090000 		.4byte	0x9c9
 1906 07ba 2A       		.uleb128 0x2a
 1907 07bb 02000000 		.4byte	.LBB15
 1908 07bf 54000000 		.4byte	.LBE15
 1909 07c3 2B       		.uleb128 0x2b
 1910 07c4 0F060000 		.4byte	0x60f
 1911 07c8 01       		.byte	0x1
 1912 07c9 54       		.byte	0x54
 1913 07ca 2C       		.uleb128 0x2c
 1914 07cb 1B060000 		.4byte	0x61b
 1915 07cf 39020000 		.4byte	.LLST13
 1916 07d3 2D       		.uleb128 0x2d
 1917 07d4 03060000 		.4byte	0x603
 1918 07d8 06       		.byte	0x6
 1919 07d9 03       		.byte	0x3
 1920 07da 00000000 		.4byte	UARTD1
 1921 07de 9F       		.byte	0x9f
 1922 07df 29       		.uleb128 0x29
 1923 07e0 63070000 		.4byte	0x763
 1924 07e4 18000000 		.4byte	.LBB16
 1925 07e8 42000000 		.4byte	.LBE16
ARM GAS  /tmp/ccPhbTL6.s 			page 35


 1926 07ec 01       		.byte	0x1
 1927 07ed 1501     		.2byte	0x115
 1928 07ef 10080000 		.4byte	0x810
 1929 07f3 20       		.uleb128 0x20
 1930 07f4 74070000 		.4byte	0x774
 1931 07f8 5B020000 		.4byte	.LLST14
 1932 07fc 2A       		.uleb128 0x2a
 1933 07fd 18000000 		.4byte	.LBB17
 1934 0801 42000000 		.4byte	.LBE17
 1935 0805 2C       		.uleb128 0x2c
 1936 0806 7F070000 		.4byte	0x77f
 1937 080a 6E020000 		.4byte	.LLST15
 1938 080e 00       		.byte	0
 1939 080f 00       		.byte	0
 1940 0810 1C       		.uleb128 0x1c
 1941 0811 46000000 		.4byte	.LVL32
 1942 0815 BB090000 		.4byte	0x9bb
 1943 0819 2E       		.uleb128 0x2e
 1944 081a 01       		.byte	0x1
 1945 081b 51       		.byte	0x51
 1946 081c 9601     		.2byte	0x196
 1947 081e 30       		.byte	0x30
 1948 081f 40       		.byte	0x40
 1949 0820 74       		.byte	0x74
 1950 0821 00       		.sleb128 0
 1951 0822 33       		.byte	0x33
 1952 0823 25       		.byte	0x25
 1953 0824 30       		.byte	0x30
 1954 0825 29       		.byte	0x29
 1955 0826 28       		.byte	0x28
 1956 0827 0100     		.2byte	0x1
 1957 0829 16       		.byte	0x16
 1958 082a 13       		.byte	0x13
 1959 082b 34       		.byte	0x34
 1960 082c 21       		.byte	0x21
 1961 082d 30       		.byte	0x30
 1962 082e 40       		.byte	0x40
 1963 082f 74       		.byte	0x74
 1964 0830 00       		.sleb128 0
 1965 0831 33       		.byte	0x33
 1966 0832 25       		.byte	0x25
 1967 0833 30       		.byte	0x30
 1968 0834 29       		.byte	0x29
 1969 0835 28       		.byte	0x28
 1970 0836 0100     		.2byte	0x1
 1971 0838 16       		.byte	0x16
 1972 0839 13       		.byte	0x13
 1973 083a 74       		.byte	0x74
 1974 083b 00       		.sleb128 0
 1975 083c 4F       		.byte	0x4f
 1976 083d 24       		.byte	0x24
 1977 083e 30       		.byte	0x30
 1978 083f 2D       		.byte	0x2d
 1979 0840 28       		.byte	0x28
 1980 0841 0100     		.2byte	0x1
 1981 0843 16       		.byte	0x16
 1982 0844 13       		.byte	0x13
ARM GAS  /tmp/ccPhbTL6.s 			page 36


 1983 0845 38       		.byte	0x38
 1984 0846 21       		.byte	0x21
 1985 0847 30       		.byte	0x30
 1986 0848 40       		.byte	0x40
 1987 0849 74       		.byte	0x74
 1988 084a 00       		.sleb128 0
 1989 084b 33       		.byte	0x33
 1990 084c 25       		.byte	0x25
 1991 084d 30       		.byte	0x30
 1992 084e 29       		.byte	0x29
 1993 084f 28       		.byte	0x28
 1994 0850 0100     		.2byte	0x1
 1995 0852 16       		.byte	0x16
 1996 0853 13       		.byte	0x13
 1997 0854 34       		.byte	0x34
 1998 0855 21       		.byte	0x21
 1999 0856 30       		.byte	0x30
 2000 0857 40       		.byte	0x40
 2001 0858 74       		.byte	0x74
 2002 0859 00       		.sleb128 0
 2003 085a 33       		.byte	0x33
 2004 085b 25       		.byte	0x25
 2005 085c 30       		.byte	0x30
 2006 085d 29       		.byte	0x29
 2007 085e 28       		.byte	0x28
 2008 085f 0100     		.2byte	0x1
 2009 0861 16       		.byte	0x16
 2010 0862 13       		.byte	0x13
 2011 0863 74       		.byte	0x74
 2012 0864 00       		.sleb128 0
 2013 0865 4F       		.byte	0x4f
 2014 0866 24       		.byte	0x24
 2015 0867 30       		.byte	0x30
 2016 0868 2D       		.byte	0x2d
 2017 0869 28       		.byte	0x28
 2018 086a 0100     		.2byte	0x1
 2019 086c 16       		.byte	0x16
 2020 086d 13       		.byte	0x13
 2021 086e 74       		.byte	0x74
 2022 086f 00       		.sleb128 0
 2023 0870 4E       		.byte	0x4e
 2024 0871 24       		.byte	0x24
 2025 0872 30       		.byte	0x30
 2026 0873 2D       		.byte	0x2d
 2027 0874 28       		.byte	0x28
 2028 0875 0100     		.2byte	0x1
 2029 0877 16       		.byte	0x16
 2030 0878 13       		.byte	0x13
 2031 0879 08       		.byte	0x8
 2032 087a 20       		.byte	0x20
 2033 087b 21       		.byte	0x21
 2034 087c 30       		.byte	0x30
 2035 087d 40       		.byte	0x40
 2036 087e 74       		.byte	0x74
 2037 087f 00       		.sleb128 0
 2038 0880 33       		.byte	0x33
 2039 0881 25       		.byte	0x25
ARM GAS  /tmp/ccPhbTL6.s 			page 37


 2040 0882 30       		.byte	0x30
 2041 0883 29       		.byte	0x29
 2042 0884 28       		.byte	0x28
 2043 0885 0100     		.2byte	0x1
 2044 0887 16       		.byte	0x16
 2045 0888 13       		.byte	0x13
 2046 0889 34       		.byte	0x34
 2047 088a 21       		.byte	0x21
 2048 088b 30       		.byte	0x30
 2049 088c 40       		.byte	0x40
 2050 088d 74       		.byte	0x74
 2051 088e 00       		.sleb128 0
 2052 088f 33       		.byte	0x33
 2053 0890 25       		.byte	0x25
 2054 0891 30       		.byte	0x30
 2055 0892 29       		.byte	0x29
 2056 0893 28       		.byte	0x28
 2057 0894 0100     		.2byte	0x1
 2058 0896 16       		.byte	0x16
 2059 0897 13       		.byte	0x13
 2060 0898 74       		.byte	0x74
 2061 0899 00       		.sleb128 0
 2062 089a 4F       		.byte	0x4f
 2063 089b 24       		.byte	0x24
 2064 089c 30       		.byte	0x30
 2065 089d 2D       		.byte	0x2d
 2066 089e 28       		.byte	0x28
 2067 089f 0100     		.2byte	0x1
 2068 08a1 16       		.byte	0x16
 2069 08a2 13       		.byte	0x13
 2070 08a3 38       		.byte	0x38
 2071 08a4 21       		.byte	0x21
 2072 08a5 30       		.byte	0x30
 2073 08a6 40       		.byte	0x40
 2074 08a7 74       		.byte	0x74
 2075 08a8 00       		.sleb128 0
 2076 08a9 33       		.byte	0x33
 2077 08aa 25       		.byte	0x25
 2078 08ab 30       		.byte	0x30
 2079 08ac 29       		.byte	0x29
 2080 08ad 28       		.byte	0x28
 2081 08ae 0100     		.2byte	0x1
 2082 08b0 16       		.byte	0x16
 2083 08b1 13       		.byte	0x13
 2084 08b2 34       		.byte	0x34
 2085 08b3 21       		.byte	0x21
 2086 08b4 30       		.byte	0x30
 2087 08b5 40       		.byte	0x40
 2088 08b6 74       		.byte	0x74
 2089 08b7 00       		.sleb128 0
 2090 08b8 33       		.byte	0x33
 2091 08b9 25       		.byte	0x25
 2092 08ba 30       		.byte	0x30
 2093 08bb 29       		.byte	0x29
 2094 08bc 28       		.byte	0x28
 2095 08bd 0100     		.2byte	0x1
 2096 08bf 16       		.byte	0x16
ARM GAS  /tmp/ccPhbTL6.s 			page 38


 2097 08c0 13       		.byte	0x13
 2098 08c1 74       		.byte	0x74
 2099 08c2 00       		.sleb128 0
 2100 08c3 4F       		.byte	0x4f
 2101 08c4 24       		.byte	0x24
 2102 08c5 30       		.byte	0x30
 2103 08c6 2D       		.byte	0x2d
 2104 08c7 28       		.byte	0x28
 2105 08c8 0100     		.2byte	0x1
 2106 08ca 16       		.byte	0x16
 2107 08cb 13       		.byte	0x13
 2108 08cc 74       		.byte	0x74
 2109 08cd 00       		.sleb128 0
 2110 08ce 4E       		.byte	0x4e
 2111 08cf 24       		.byte	0x24
 2112 08d0 30       		.byte	0x30
 2113 08d1 2D       		.byte	0x2d
 2114 08d2 28       		.byte	0x28
 2115 08d3 0100     		.2byte	0x1
 2116 08d5 16       		.byte	0x16
 2117 08d6 13       		.byte	0x13
 2118 08d7 74       		.byte	0x74
 2119 08d8 00       		.sleb128 0
 2120 08d9 4D       		.byte	0x4d
 2121 08da 24       		.byte	0x24
 2122 08db 30       		.byte	0x30
 2123 08dc 2D       		.byte	0x2d
 2124 08dd 28       		.byte	0x28
 2125 08de 0100     		.2byte	0x1
 2126 08e0 16       		.byte	0x16
 2127 08e1 13       		.byte	0x13
 2128 08e2 08       		.byte	0x8
 2129 08e3 40       		.byte	0x40
 2130 08e4 21       		.byte	0x21
 2131 08e5 30       		.byte	0x30
 2132 08e6 40       		.byte	0x40
 2133 08e7 74       		.byte	0x74
 2134 08e8 00       		.sleb128 0
 2135 08e9 33       		.byte	0x33
 2136 08ea 25       		.byte	0x25
 2137 08eb 30       		.byte	0x30
 2138 08ec 29       		.byte	0x29
 2139 08ed 28       		.byte	0x28
 2140 08ee 0100     		.2byte	0x1
 2141 08f0 16       		.byte	0x16
 2142 08f1 13       		.byte	0x13
 2143 08f2 34       		.byte	0x34
 2144 08f3 21       		.byte	0x21
 2145 08f4 30       		.byte	0x30
 2146 08f5 40       		.byte	0x40
 2147 08f6 74       		.byte	0x74
 2148 08f7 00       		.sleb128 0
 2149 08f8 33       		.byte	0x33
 2150 08f9 25       		.byte	0x25
 2151 08fa 30       		.byte	0x30
 2152 08fb 29       		.byte	0x29
 2153 08fc 28       		.byte	0x28
ARM GAS  /tmp/ccPhbTL6.s 			page 39


 2154 08fd 0100     		.2byte	0x1
 2155 08ff 16       		.byte	0x16
 2156 0900 13       		.byte	0x13
 2157 0901 74       		.byte	0x74
 2158 0902 00       		.sleb128 0
 2159 0903 4F       		.byte	0x4f
 2160 0904 24       		.byte	0x24
 2161 0905 30       		.byte	0x30
 2162 0906 2D       		.byte	0x2d
 2163 0907 28       		.byte	0x28
 2164 0908 0100     		.2byte	0x1
 2165 090a 16       		.byte	0x16
 2166 090b 13       		.byte	0x13
 2167 090c 38       		.byte	0x38
 2168 090d 21       		.byte	0x21
 2169 090e 30       		.byte	0x30
 2170 090f 40       		.byte	0x40
 2171 0910 74       		.byte	0x74
 2172 0911 00       		.sleb128 0
 2173 0912 33       		.byte	0x33
 2174 0913 25       		.byte	0x25
 2175 0914 30       		.byte	0x30
 2176 0915 29       		.byte	0x29
 2177 0916 28       		.byte	0x28
 2178 0917 0100     		.2byte	0x1
 2179 0919 16       		.byte	0x16
 2180 091a 13       		.byte	0x13
 2181 091b 34       		.byte	0x34
 2182 091c 21       		.byte	0x21
 2183 091d 30       		.byte	0x30
 2184 091e 40       		.byte	0x40
 2185 091f 74       		.byte	0x74
 2186 0920 00       		.sleb128 0
 2187 0921 33       		.byte	0x33
 2188 0922 25       		.byte	0x25
 2189 0923 30       		.byte	0x30
 2190 0924 29       		.byte	0x29
 2191 0925 28       		.byte	0x28
 2192 0926 0100     		.2byte	0x1
 2193 0928 16       		.byte	0x16
 2194 0929 13       		.byte	0x13
 2195 092a 74       		.byte	0x74
 2196 092b 00       		.sleb128 0
 2197 092c 4F       		.byte	0x4f
 2198 092d 24       		.byte	0x24
 2199 092e 30       		.byte	0x30
 2200 092f 2D       		.byte	0x2d
 2201 0930 28       		.byte	0x28
 2202 0931 0100     		.2byte	0x1
 2203 0933 16       		.byte	0x16
 2204 0934 13       		.byte	0x13
 2205 0935 74       		.byte	0x74
 2206 0936 00       		.sleb128 0
 2207 0937 4E       		.byte	0x4e
 2208 0938 24       		.byte	0x24
 2209 0939 30       		.byte	0x30
 2210 093a 2D       		.byte	0x2d
ARM GAS  /tmp/ccPhbTL6.s 			page 40


 2211 093b 28       		.byte	0x28
 2212 093c 0100     		.2byte	0x1
 2213 093e 16       		.byte	0x16
 2214 093f 13       		.byte	0x13
 2215 0940 08       		.byte	0x8
 2216 0941 20       		.byte	0x20
 2217 0942 21       		.byte	0x21
 2218 0943 30       		.byte	0x30
 2219 0944 40       		.byte	0x40
 2220 0945 74       		.byte	0x74
 2221 0946 00       		.sleb128 0
 2222 0947 33       		.byte	0x33
 2223 0948 25       		.byte	0x25
 2224 0949 30       		.byte	0x30
 2225 094a 29       		.byte	0x29
 2226 094b 28       		.byte	0x28
 2227 094c 0100     		.2byte	0x1
 2228 094e 16       		.byte	0x16
 2229 094f 13       		.byte	0x13
 2230 0950 34       		.byte	0x34
 2231 0951 21       		.byte	0x21
 2232 0952 30       		.byte	0x30
 2233 0953 40       		.byte	0x40
 2234 0954 74       		.byte	0x74
 2235 0955 00       		.sleb128 0
 2236 0956 33       		.byte	0x33
 2237 0957 25       		.byte	0x25
 2238 0958 30       		.byte	0x30
 2239 0959 29       		.byte	0x29
 2240 095a 28       		.byte	0x28
 2241 095b 0100     		.2byte	0x1
 2242 095d 16       		.byte	0x16
 2243 095e 13       		.byte	0x13
 2244 095f 74       		.byte	0x74
 2245 0960 00       		.sleb128 0
 2246 0961 4F       		.byte	0x4f
 2247 0962 24       		.byte	0x24
 2248 0963 30       		.byte	0x30
 2249 0964 2D       		.byte	0x2d
 2250 0965 28       		.byte	0x28
 2251 0966 0100     		.2byte	0x1
 2252 0968 16       		.byte	0x16
 2253 0969 13       		.byte	0x13
 2254 096a 38       		.byte	0x38
 2255 096b 21       		.byte	0x21
 2256 096c 30       		.byte	0x30
 2257 096d 40       		.byte	0x40
 2258 096e 74       		.byte	0x74
 2259 096f 00       		.sleb128 0
 2260 0970 33       		.byte	0x33
 2261 0971 25       		.byte	0x25
 2262 0972 30       		.byte	0x30
 2263 0973 29       		.byte	0x29
 2264 0974 28       		.byte	0x28
 2265 0975 0100     		.2byte	0x1
 2266 0977 16       		.byte	0x16
 2267 0978 13       		.byte	0x13
ARM GAS  /tmp/ccPhbTL6.s 			page 41


 2268 0979 34       		.byte	0x34
 2269 097a 21       		.byte	0x21
 2270 097b 30       		.byte	0x30
 2271 097c 40       		.byte	0x40
 2272 097d 74       		.byte	0x74
 2273 097e 00       		.sleb128 0
 2274 097f 33       		.byte	0x33
 2275 0980 25       		.byte	0x25
 2276 0981 30       		.byte	0x30
 2277 0982 29       		.byte	0x29
 2278 0983 28       		.byte	0x28
 2279 0984 0100     		.2byte	0x1
 2280 0986 16       		.byte	0x16
 2281 0987 13       		.byte	0x13
 2282 0988 74       		.byte	0x74
 2283 0989 00       		.sleb128 0
 2284 098a 4F       		.byte	0x4f
 2285 098b 24       		.byte	0x24
 2286 098c 30       		.byte	0x30
 2287 098d 2D       		.byte	0x2d
 2288 098e 28       		.byte	0x28
 2289 098f 0100     		.2byte	0x1
 2290 0991 16       		.byte	0x16
 2291 0992 13       		.byte	0x13
 2292 0993 74       		.byte	0x74
 2293 0994 00       		.sleb128 0
 2294 0995 4E       		.byte	0x4e
 2295 0996 24       		.byte	0x24
 2296 0997 30       		.byte	0x30
 2297 0998 2D       		.byte	0x2d
 2298 0999 28       		.byte	0x28
 2299 099a 0100     		.2byte	0x1
 2300 099c 16       		.byte	0x16
 2301 099d 13       		.byte	0x13
 2302 099e 74       		.byte	0x74
 2303 099f 00       		.sleb128 0
 2304 09a0 4D       		.byte	0x4d
 2305 09a1 24       		.byte	0x24
 2306 09a2 30       		.byte	0x30
 2307 09a3 2D       		.byte	0x2d
 2308 09a4 28       		.byte	0x28
 2309 09a5 0100     		.2byte	0x1
 2310 09a7 16       		.byte	0x16
 2311 09a8 13       		.byte	0x13
 2312 09a9 74       		.byte	0x74
 2313 09aa 00       		.sleb128 0
 2314 09ab 47       		.byte	0x47
 2315 09ac 24       		.byte	0x24
 2316 09ad 30       		.byte	0x30
 2317 09ae 2D       		.byte	0x2d
 2318 09af 28       		.byte	0x28
 2319 09b0 0100     		.2byte	0x1
 2320 09b2 16       		.byte	0x16
 2321 09b3 13       		.byte	0x13
 2322 09b4 1D       		.uleb128 0x1d
 2323 09b5 01       		.byte	0x1
 2324 09b6 50       		.byte	0x50
ARM GAS  /tmp/ccPhbTL6.s 			page 42


 2325 09b7 02       		.byte	0x2
 2326 09b8 75       		.byte	0x75
 2327 09b9 00       		.sleb128 0
 2328 09ba 00       		.byte	0
 2329 09bb 2F       		.uleb128 0x2f
 2330 09bc 54000000 		.4byte	.LVL33
 2331 09c0 1D       		.uleb128 0x1d
 2332 09c1 01       		.byte	0x1
 2333 09c2 50       		.byte	0x50
 2334 09c3 02       		.byte	0x2
 2335 09c4 75       		.byte	0x75
 2336 09c5 00       		.sleb128 0
 2337 09c6 00       		.byte	0
 2338 09c7 00       		.byte	0
 2339 09c8 00       		.byte	0
 2340 09c9 30       		.uleb128 0x30
 2341 09ca 5C000000 		.4byte	.LVL34
 2342 09ce 01       		.byte	0x1
 2343 09cf DD0C0000 		.4byte	0xcdd
 2344 09d3 00       		.byte	0
 2345 09d4 28       		.uleb128 0x28
 2346 09d5 01       		.byte	0x1
 2347 09d6 62000000 		.4byte	.LASF89
 2348 09da 01       		.byte	0x1
 2349 09db 6401     		.2byte	0x164
 2350 09dd 01       		.byte	0x1
 2351 09de 00000000 		.4byte	.LFB126
 2352 09e2 30000000 		.4byte	.LFE126
 2353 09e6 2E040000 		.4byte	.LLST16
 2354 09ea 01       		.byte	0x1
 2355 09eb 000A0000 		.4byte	0xa00
 2356 09ef 31       		.uleb128 0x31
 2357 09f0 10000000 		.4byte	.LVL35
 2358 09f4 E80C0000 		.4byte	0xce8
 2359 09f8 1D       		.uleb128 0x1d
 2360 09f9 01       		.byte	0x1
 2361 09fa 50       		.byte	0x50
 2362 09fb 02       		.byte	0x2
 2363 09fc 74       		.byte	0x74
 2364 09fd 00       		.sleb128 0
 2365 09fe 00       		.byte	0
 2366 09ff 00       		.byte	0
 2367 0a00 14       		.uleb128 0x14
 2368 0a01 E3040000 		.4byte	.LASF90
 2369 0a05 01       		.byte	0x1
 2370 0a06 98       		.byte	0x98
 2371 0a07 01       		.byte	0x1
 2372 0a08 01       		.byte	0x1
 2373 0a09 2D0A0000 		.4byte	0xa2d
 2374 0a0d 15       		.uleb128 0x15
 2375 0a0e 3C030000 		.4byte	.LASF81
 2376 0a12 01       		.byte	0x1
 2377 0a13 98       		.byte	0x98
 2378 0a14 CC040000 		.4byte	0x4cc
 2379 0a18 27       		.uleb128 0x27
 2380 0a19 63723100 		.ascii	"cr1\000"
 2381 0a1d 01       		.byte	0x1
ARM GAS  /tmp/ccPhbTL6.s 			page 43


 2382 0a1e 99       		.byte	0x99
 2383 0a1f 86000000 		.4byte	0x86
 2384 0a23 27       		.uleb128 0x27
 2385 0a24 7500     		.ascii	"u\000"
 2386 0a26 01       		.byte	0x1
 2387 0a27 9A       		.byte	0x9a
 2388 0a28 C0050000 		.4byte	0x5c0
 2389 0a2c 00       		.byte	0
 2390 0a2d 28       		.uleb128 0x28
 2391 0a2e 01       		.byte	0x1
 2392 0a2f FF010000 		.4byte	.LASF91
 2393 0a33 01       		.byte	0x1
 2394 0a34 8601     		.2byte	0x186
 2395 0a36 01       		.byte	0x1
 2396 0a37 00000000 		.4byte	.LFB127
 2397 0a3b DC000000 		.4byte	.LFE127
 2398 0a3f 4E040000 		.4byte	.LLST17
 2399 0a43 01       		.byte	0x1
 2400 0a44 220B0000 		.4byte	0xb22
 2401 0a48 32       		.uleb128 0x32
 2402 0a49 3C030000 		.4byte	.LASF81
 2403 0a4d 01       		.byte	0x1
 2404 0a4e 8601     		.2byte	0x186
 2405 0a50 CC040000 		.4byte	0x4cc
 2406 0a54 6E040000 		.4byte	.LLST18
 2407 0a58 33       		.uleb128 0x33
 2408 0a59 000A0000 		.4byte	0xa00
 2409 0a5d 12000000 		.4byte	.LBB21
 2410 0a61 40000000 		.4byte	.Ldebug_ranges0+0x40
 2411 0a65 01       		.byte	0x1
 2412 0a66 D301     		.2byte	0x1d3
 2413 0a68 B30A0000 		.4byte	0xab3
 2414 0a6c 20       		.uleb128 0x20
 2415 0a6d 0D0A0000 		.4byte	0xa0d
 2416 0a71 A2040000 		.4byte	.LLST19
 2417 0a75 22       		.uleb128 0x22
 2418 0a76 58000000 		.4byte	.Ldebug_ranges0+0x58
 2419 0a7a 2C       		.uleb128 0x2c
 2420 0a7b 180A0000 		.4byte	0xa18
 2421 0a7f B5040000 		.4byte	.LLST20
 2422 0a83 2C       		.uleb128 0x2c
 2423 0a84 230A0000 		.4byte	0xa23
 2424 0a88 E1040000 		.4byte	.LLST21
 2425 0a8c 34       		.uleb128 0x34
 2426 0a8d 18000000 		.4byte	.LVL39
 2427 0a91 5E060000 		.4byte	0x65e
 2428 0a95 A00A0000 		.4byte	0xaa0
 2429 0a99 1D       		.uleb128 0x1d
 2430 0a9a 01       		.byte	0x1
 2431 0a9b 50       		.byte	0x50
 2432 0a9c 02       		.byte	0x2
 2433 0a9d 74       		.byte	0x74
 2434 0a9e 00       		.sleb128 0
 2435 0a9f 00       		.byte	0
 2436 0aa0 24       		.uleb128 0x24
 2437 0aa1 64000000 		.4byte	.LVL42
 2438 0aa5 01       		.byte	0x1
ARM GAS  /tmp/ccPhbTL6.s 			page 44


 2439 0aa6 26060000 		.4byte	0x626
 2440 0aaa 1D       		.uleb128 0x1d
 2441 0aab 01       		.byte	0x1
 2442 0aac 50       		.byte	0x50
 2443 0aad 02       		.byte	0x2
 2444 0aae 74       		.byte	0x74
 2445 0aaf 00       		.sleb128 0
 2446 0ab0 00       		.byte	0
 2447 0ab1 00       		.byte	0
 2448 0ab2 00       		.byte	0
 2449 0ab3 2A       		.uleb128 0x2a
 2450 0ab4 9E000000 		.4byte	.LBB25
 2451 0ab8 DC000000 		.4byte	.LBE25
 2452 0abc 18       		.uleb128 0x18
 2453 0abd 6200     		.ascii	"b\000"
 2454 0abf 01       		.byte	0x1
 2455 0ac0 8B01     		.2byte	0x18b
 2456 0ac2 A6000000 		.4byte	0xa6
 2457 0ac6 34       		.uleb128 0x34
 2458 0ac7 AA000000 		.4byte	.LVL44
 2459 0acb FC0C0000 		.4byte	0xcfc
 2460 0acf E80A0000 		.4byte	0xae8
 2461 0ad3 1D       		.uleb128 0x1d
 2462 0ad4 01       		.byte	0x1
 2463 0ad5 53       		.byte	0x53
 2464 0ad6 02       		.byte	0x2
 2465 0ad7 74       		.byte	0x74
 2466 0ad8 00       		.sleb128 0
 2467 0ad9 1D       		.uleb128 0x1d
 2468 0ada 01       		.byte	0x1
 2469 0adb 52       		.byte	0x52
 2470 0adc 05       		.byte	0x5
 2471 0add 03       		.byte	0x3
 2472 0ade 00000000 		.4byte	uart_lld_serve_rx_end_irq
 2473 0ae2 1D       		.uleb128 0x1d
 2474 0ae3 01       		.byte	0x1
 2475 0ae4 51       		.byte	0x51
 2476 0ae5 01       		.byte	0x1
 2477 0ae6 3C       		.byte	0x3c
 2478 0ae7 00       		.byte	0
 2479 0ae8 34       		.uleb128 0x34
 2480 0ae9 B6000000 		.4byte	.LVL45
 2481 0aed FC0C0000 		.4byte	0xcfc
 2482 0af1 0A0B0000 		.4byte	0xb0a
 2483 0af5 1D       		.uleb128 0x1d
 2484 0af6 01       		.byte	0x1
 2485 0af7 53       		.byte	0x53
 2486 0af8 02       		.byte	0x2
 2487 0af9 74       		.byte	0x74
 2488 0afa 00       		.sleb128 0
 2489 0afb 1D       		.uleb128 0x1d
 2490 0afc 01       		.byte	0x1
 2491 0afd 52       		.byte	0x52
 2492 0afe 05       		.byte	0x5
 2493 0aff 03       		.byte	0x3
 2494 0b00 00000000 		.4byte	uart_lld_serve_tx_end_irq
 2495 0b04 1D       		.uleb128 0x1d
ARM GAS  /tmp/ccPhbTL6.s 			page 45


 2496 0b05 01       		.byte	0x1
 2497 0b06 51       		.byte	0x51
 2498 0b07 01       		.byte	0x1
 2499 0b08 3C       		.byte	0x3c
 2500 0b09 00       		.byte	0
 2501 0b0a 31       		.uleb128 0x31
 2502 0b0b CE000000 		.4byte	.LVL46
 2503 0b0f 240D0000 		.4byte	0xd24
 2504 0b13 1D       		.uleb128 0x1d
 2505 0b14 01       		.byte	0x1
 2506 0b15 51       		.byte	0x51
 2507 0b16 02       		.byte	0x2
 2508 0b17 08       		.byte	0x8
 2509 0b18 C0       		.byte	0xc0
 2510 0b19 1D       		.uleb128 0x1d
 2511 0b1a 01       		.byte	0x1
 2512 0b1b 50       		.byte	0x50
 2513 0b1c 02       		.byte	0x2
 2514 0b1d 08       		.byte	0x8
 2515 0b1e 25       		.byte	0x25
 2516 0b1f 00       		.byte	0
 2517 0b20 00       		.byte	0
 2518 0b21 00       		.byte	0
 2519 0b22 28       		.uleb128 0x28
 2520 0b23 01       		.byte	0x1
 2521 0b24 46050000 		.4byte	.LASF92
 2522 0b28 01       		.byte	0x1
 2523 0b29 DD01     		.2byte	0x1dd
 2524 0b2b 01       		.byte	0x1
 2525 0b2c 00000000 		.4byte	.LFB128
 2526 0b30 40000000 		.4byte	.LFE128
 2527 0b34 F4040000 		.4byte	.LLST22
 2528 0b38 01       		.byte	0x1
 2529 0b39 790B0000 		.4byte	0xb79
 2530 0b3d 32       		.uleb128 0x32
 2531 0b3e 3C030000 		.4byte	.LASF81
 2532 0b42 01       		.byte	0x1
 2533 0b43 DD01     		.2byte	0x1dd
 2534 0b45 CC040000 		.4byte	0x4cc
 2535 0b49 14050000 		.4byte	.LLST23
 2536 0b4d 1E       		.uleb128 0x1e
 2537 0b4e 10000000 		.4byte	.LVL50
 2538 0b52 5E060000 		.4byte	0x65e
 2539 0b56 1E       		.uleb128 0x1e
 2540 0b57 16000000 		.4byte	.LVL51
 2541 0b5b 3E0D0000 		.4byte	0xd3e
 2542 0b5f 1E       		.uleb128 0x1e
 2543 0b60 1C000000 		.4byte	.LVL52
 2544 0b64 3E0D0000 		.4byte	0xd3e
 2545 0b68 31       		.uleb128 0x31
 2546 0b69 28000000 		.4byte	.LVL53
 2547 0b6d 530D0000 		.4byte	0xd53
 2548 0b71 1D       		.uleb128 0x1d
 2549 0b72 01       		.byte	0x1
 2550 0b73 50       		.byte	0x50
 2551 0b74 02       		.byte	0x2
 2552 0b75 08       		.byte	0x8
ARM GAS  /tmp/ccPhbTL6.s 			page 46


 2553 0b76 25       		.byte	0x25
 2554 0b77 00       		.byte	0
 2555 0b78 00       		.byte	0
 2556 0b79 35       		.uleb128 0x35
 2557 0b7a 01       		.byte	0x1
 2558 0b7b 32050000 		.4byte	.LASF93
 2559 0b7f 01       		.byte	0x1
 2560 0b80 0902     		.2byte	0x209
 2561 0b82 01       		.byte	0x1
 2562 0b83 00000000 		.4byte	.LFB129
 2563 0b87 1A000000 		.4byte	.LFE129
 2564 0b8b 02       		.byte	0x2
 2565 0b8c 7D       		.byte	0x7d
 2566 0b8d 00       		.sleb128 0
 2567 0b8e 01       		.byte	0x1
 2568 0b8f C20B0000 		.4byte	0xbc2
 2569 0b93 32       		.uleb128 0x32
 2570 0b94 3C030000 		.4byte	.LASF81
 2571 0b98 01       		.byte	0x1
 2572 0b99 0902     		.2byte	0x209
 2573 0b9b CC040000 		.4byte	0x4cc
 2574 0b9f 48050000 		.4byte	.LLST24
 2575 0ba3 36       		.uleb128 0x36
 2576 0ba4 6E00     		.ascii	"n\000"
 2577 0ba6 01       		.byte	0x1
 2578 0ba7 0902     		.2byte	0x209
 2579 0ba9 30000000 		.4byte	0x30
 2580 0bad 69050000 		.4byte	.LLST25
 2581 0bb1 32       		.uleb128 0x32
 2582 0bb2 61020000 		.4byte	.LASF94
 2583 0bb6 01       		.byte	0x1
 2584 0bb7 0902     		.2byte	0x209
 2585 0bb9 C20B0000 		.4byte	0xbc2
 2586 0bbd 88050000 		.4byte	.LLST26
 2587 0bc1 00       		.byte	0
 2588 0bc2 0D       		.uleb128 0xd
 2589 0bc3 04       		.byte	0x4
 2590 0bc4 C80B0000 		.4byte	0xbc8
 2591 0bc8 37       		.uleb128 0x37
 2592 0bc9 38       		.uleb128 0x38
 2593 0bca 01       		.byte	0x1
 2594 0bcb 7E020000 		.4byte	.LASF96
 2595 0bcf 01       		.byte	0x1
 2596 0bd0 1E02     		.2byte	0x21e
 2597 0bd2 01       		.byte	0x1
 2598 0bd3 30000000 		.4byte	0x30
 2599 0bd7 00000000 		.4byte	.LFB130
 2600 0bdb 1C000000 		.4byte	.LFE130
 2601 0bdf 02       		.byte	0x2
 2602 0be0 7D       		.byte	0x7d
 2603 0be1 00       		.sleb128 0
 2604 0be2 01       		.byte	0x1
 2605 0be3 F80B0000 		.4byte	0xbf8
 2606 0be7 32       		.uleb128 0x32
 2607 0be8 3C030000 		.4byte	.LASF81
 2608 0bec 01       		.byte	0x1
 2609 0bed 1E02     		.2byte	0x21e
ARM GAS  /tmp/ccPhbTL6.s 			page 47


 2610 0bef CC040000 		.4byte	0x4cc
 2611 0bf3 A7050000 		.4byte	.LLST27
 2612 0bf7 00       		.byte	0
 2613 0bf8 28       		.uleb128 0x28
 2614 0bf9 01       		.byte	0x1
 2615 0bfa 00000000 		.4byte	.LASF95
 2616 0bfe 01       		.byte	0x1
 2617 0bff 2F02     		.2byte	0x22f
 2618 0c01 01       		.byte	0x1
 2619 0c02 00000000 		.4byte	.LFB131
 2620 0c06 32000000 		.4byte	.LFE131
 2621 0c0a C8050000 		.4byte	.LLST28
 2622 0c0e 01       		.byte	0x1
 2623 0c0f 420C0000 		.4byte	0xc42
 2624 0c13 32       		.uleb128 0x32
 2625 0c14 3C030000 		.4byte	.LASF81
 2626 0c18 01       		.byte	0x1
 2627 0c19 2F02     		.2byte	0x22f
 2628 0c1b CC040000 		.4byte	0x4cc
 2629 0c1f E8050000 		.4byte	.LLST29
 2630 0c23 36       		.uleb128 0x36
 2631 0c24 6E00     		.ascii	"n\000"
 2632 0c26 01       		.byte	0x1
 2633 0c27 2F02     		.2byte	0x22f
 2634 0c29 30000000 		.4byte	0x30
 2635 0c2d 09060000 		.4byte	.LLST30
 2636 0c31 32       		.uleb128 0x32
 2637 0c32 98000000 		.4byte	.LASF70
 2638 0c36 01       		.byte	0x1
 2639 0c37 2F02     		.2byte	0x22f
 2640 0c39 B8000000 		.4byte	0xb8
 2641 0c3d 28060000 		.4byte	.LLST31
 2642 0c41 00       		.byte	0
 2643 0c42 39       		.uleb128 0x39
 2644 0c43 01       		.byte	0x1
 2645 0c44 1A010000 		.4byte	.LASF97
 2646 0c48 01       		.byte	0x1
 2647 0c49 4702     		.2byte	0x247
 2648 0c4b 01       		.byte	0x1
 2649 0c4c 30000000 		.4byte	0x30
 2650 0c50 00000000 		.4byte	.LFB132
 2651 0c54 24000000 		.4byte	.LFE132
 2652 0c58 47060000 		.4byte	.LLST32
 2653 0c5c 01       		.byte	0x1
 2654 0c5d 8F0C0000 		.4byte	0xc8f
 2655 0c61 32       		.uleb128 0x32
 2656 0c62 3C030000 		.4byte	.LASF81
 2657 0c66 01       		.byte	0x1
 2658 0c67 4702     		.2byte	0x247
 2659 0c69 CC040000 		.4byte	0x4cc
 2660 0c6d 67060000 		.4byte	.LLST33
 2661 0c71 3A       		.uleb128 0x3a
 2662 0c72 6E00     		.ascii	"n\000"
 2663 0c74 01       		.byte	0x1
 2664 0c75 4802     		.2byte	0x248
 2665 0c77 30000000 		.4byte	0x30
 2666 0c7b 01       		.byte	0x1
ARM GAS  /tmp/ccPhbTL6.s 			page 48


 2667 0c7c 54       		.byte	0x54
 2668 0c7d 31       		.uleb128 0x31
 2669 0c7e 20000000 		.4byte	.LVL66
 2670 0c82 26060000 		.4byte	0x626
 2671 0c86 1D       		.uleb128 0x1d
 2672 0c87 01       		.byte	0x1
 2673 0c88 50       		.byte	0x50
 2674 0c89 03       		.byte	0x3
 2675 0c8a F3       		.byte	0xf3
 2676 0c8b 01       		.uleb128 0x1
 2677 0c8c 50       		.byte	0x50
 2678 0c8d 00       		.byte	0
 2679 0c8e 00       		.byte	0
 2680 0c8f 3B       		.uleb128 0x3b
 2681 0c90 F5000000 		.4byte	.LASF99
 2682 0c94 09       		.byte	0x9
 2683 0c95 9806     		.2byte	0x698
 2684 0c97 D2000000 		.4byte	0xd2
 2685 0c9b 01       		.byte	0x1
 2686 0c9c 01       		.byte	0x1
 2687 0c9d 3C       		.uleb128 0x3c
 2688 0c9e 62030000 		.4byte	0x362
 2689 0ca2 AD0C0000 		.4byte	0xcad
 2690 0ca6 3D       		.uleb128 0x3d
 2691 0ca7 BF000000 		.4byte	0xbf
 2692 0cab 0B       		.byte	0xb
 2693 0cac 00       		.byte	0
 2694 0cad 3B       		.uleb128 0x3b
 2695 0cae D7000000 		.4byte	.LASF100
 2696 0cb2 06       		.byte	0x6
 2697 0cb3 8401     		.2byte	0x184
 2698 0cb5 BB0C0000 		.4byte	0xcbb
 2699 0cb9 01       		.byte	0x1
 2700 0cba 01       		.byte	0x1
 2701 0cbb 13       		.uleb128 0x13
 2702 0cbc 9D0C0000 		.4byte	0xc9d
 2703 0cc0 3E       		.uleb128 0x3e
 2704 0cc1 66050000 		.4byte	.LASF101
 2705 0cc5 01       		.byte	0x1
 2706 0cc6 40       		.byte	0x40
 2707 0cc7 0D040000 		.4byte	0x40d
 2708 0ccb 01       		.byte	0x1
 2709 0ccc 05       		.byte	0x5
 2710 0ccd 03       		.byte	0x3
 2711 0cce 00000000 		.4byte	UARTD1
 2712 0cd2 3F       		.uleb128 0x3f
 2713 0cd3 01       		.byte	0x1
 2714 0cd4 E1010000 		.4byte	.LASF102
 2715 0cd8 0A       		.byte	0xa
 2716 0cd9 FA01     		.2byte	0x1fa
 2717 0cdb 01       		.byte	0x1
 2718 0cdc 01       		.byte	0x1
 2719 0cdd 3F       		.uleb128 0x3f
 2720 0cde 01       		.byte	0x1
 2721 0cdf FD020000 		.4byte	.LASF103
 2722 0ce3 0A       		.byte	0xa
 2723 0ce4 FC01     		.2byte	0x1fc
ARM GAS  /tmp/ccPhbTL6.s 			page 49


 2724 0ce6 01       		.byte	0x1
 2725 0ce7 01       		.byte	0x1
 2726 0ce8 40       		.uleb128 0x40
 2727 0ce9 01       		.byte	0x1
 2728 0cea 89000000 		.4byte	.LASF104
 2729 0cee 07       		.byte	0x7
 2730 0cef 67       		.byte	0x67
 2731 0cf0 01       		.byte	0x1
 2732 0cf1 01       		.byte	0x1
 2733 0cf2 FC0C0000 		.4byte	0xcfc
 2734 0cf6 0F       		.uleb128 0xf
 2735 0cf7 CC040000 		.4byte	0x4cc
 2736 0cfb 00       		.byte	0
 2737 0cfc 41       		.uleb128 0x41
 2738 0cfd 01       		.byte	0x1
 2739 0cfe 54050000 		.4byte	.LASF111
 2740 0d02 06       		.byte	0x6
 2741 0d03 8B01     		.2byte	0x18b
 2742 0d05 01       		.byte	0x1
 2743 0d06 A6000000 		.4byte	0xa6
 2744 0d0a 01       		.byte	0x1
 2745 0d0b 240D0000 		.4byte	0xd24
 2746 0d0f 0F       		.uleb128 0xf
 2747 0d10 C6050000 		.4byte	0x5c6
 2748 0d14 0F       		.uleb128 0xf
 2749 0d15 86000000 		.4byte	0x86
 2750 0d19 0F       		.uleb128 0xf
 2751 0d1a 6D030000 		.4byte	0x36d
 2752 0d1e 0F       		.uleb128 0xf
 2753 0d1f B8000000 		.4byte	0xb8
 2754 0d23 00       		.byte	0
 2755 0d24 42       		.uleb128 0x42
 2756 0d25 01       		.byte	0x1
 2757 0d26 09010000 		.4byte	.LASF105
 2758 0d2a 0B       		.byte	0xb
 2759 0d2b 1C01     		.2byte	0x11c
 2760 0d2d 01       		.byte	0x1
 2761 0d2e 01       		.byte	0x1
 2762 0d2f 3E0D0000 		.4byte	0xd3e
 2763 0d33 0F       		.uleb128 0xf
 2764 0d34 86000000 		.4byte	0x86
 2765 0d38 0F       		.uleb128 0xf
 2766 0d39 86000000 		.4byte	0x86
 2767 0d3d 00       		.byte	0
 2768 0d3e 42       		.uleb128 0x42
 2769 0d3f 01       		.byte	0x1
 2770 0d40 5C040000 		.4byte	.LASF106
 2771 0d44 06       		.byte	0x6
 2772 0d45 8F01     		.2byte	0x18f
 2773 0d47 01       		.byte	0x1
 2774 0d48 01       		.byte	0x1
 2775 0d49 530D0000 		.4byte	0xd53
 2776 0d4d 0F       		.uleb128 0xf
 2777 0d4e C6050000 		.4byte	0x5c6
 2778 0d52 00       		.byte	0
 2779 0d53 43       		.uleb128 0x43
 2780 0d54 01       		.byte	0x1
ARM GAS  /tmp/ccPhbTL6.s 			page 50


 2781 0d55 67020000 		.4byte	.LASF112
 2782 0d59 0B       		.byte	0xb
 2783 0d5a 1D01     		.2byte	0x11d
 2784 0d5c 01       		.byte	0x1
 2785 0d5d 01       		.byte	0x1
 2786 0d5e 0F       		.uleb128 0xf
 2787 0d5f 86000000 		.4byte	0x86
 2788 0d63 00       		.byte	0
 2789 0d64 00       		.byte	0
 2790              		.section	.debug_abbrev,"",%progbits
 2791              	.Ldebug_abbrev0:
 2792 0000 01       		.uleb128 0x1
 2793 0001 11       		.uleb128 0x11
 2794 0002 01       		.byte	0x1
 2795 0003 25       		.uleb128 0x25
 2796 0004 0E       		.uleb128 0xe
 2797 0005 13       		.uleb128 0x13
 2798 0006 0B       		.uleb128 0xb
 2799 0007 03       		.uleb128 0x3
 2800 0008 0E       		.uleb128 0xe
 2801 0009 1B       		.uleb128 0x1b
 2802 000a 0E       		.uleb128 0xe
 2803 000b 55       		.uleb128 0x55
 2804 000c 06       		.uleb128 0x6
 2805 000d 11       		.uleb128 0x11
 2806 000e 01       		.uleb128 0x1
 2807 000f 52       		.uleb128 0x52
 2808 0010 01       		.uleb128 0x1
 2809 0011 10       		.uleb128 0x10
 2810 0012 06       		.uleb128 0x6
 2811 0013 00       		.byte	0
 2812 0014 00       		.byte	0
 2813 0015 02       		.uleb128 0x2
 2814 0016 24       		.uleb128 0x24
 2815 0017 00       		.byte	0
 2816 0018 0B       		.uleb128 0xb
 2817 0019 0B       		.uleb128 0xb
 2818 001a 3E       		.uleb128 0x3e
 2819 001b 0B       		.uleb128 0xb
 2820 001c 03       		.uleb128 0x3
 2821 001d 08       		.uleb128 0x8
 2822 001e 00       		.byte	0
 2823 001f 00       		.byte	0
 2824 0020 03       		.uleb128 0x3
 2825 0021 16       		.uleb128 0x16
 2826 0022 00       		.byte	0
 2827 0023 03       		.uleb128 0x3
 2828 0024 0E       		.uleb128 0xe
 2829 0025 3A       		.uleb128 0x3a
 2830 0026 0B       		.uleb128 0xb
 2831 0027 3B       		.uleb128 0x3b
 2832 0028 0B       		.uleb128 0xb
 2833 0029 49       		.uleb128 0x49
 2834 002a 13       		.uleb128 0x13
 2835 002b 00       		.byte	0
 2836 002c 00       		.byte	0
 2837 002d 04       		.uleb128 0x4
ARM GAS  /tmp/ccPhbTL6.s 			page 51


 2838 002e 24       		.uleb128 0x24
 2839 002f 00       		.byte	0
 2840 0030 0B       		.uleb128 0xb
 2841 0031 0B       		.uleb128 0xb
 2842 0032 3E       		.uleb128 0x3e
 2843 0033 0B       		.uleb128 0xb
 2844 0034 03       		.uleb128 0x3
 2845 0035 0E       		.uleb128 0xe
 2846 0036 00       		.byte	0
 2847 0037 00       		.byte	0
 2848 0038 05       		.uleb128 0x5
 2849 0039 0F       		.uleb128 0xf
 2850 003a 00       		.byte	0
 2851 003b 0B       		.uleb128 0xb
 2852 003c 0B       		.uleb128 0xb
 2853 003d 00       		.byte	0
 2854 003e 00       		.byte	0
 2855 003f 06       		.uleb128 0x6
 2856 0040 35       		.uleb128 0x35
 2857 0041 00       		.byte	0
 2858 0042 49       		.uleb128 0x49
 2859 0043 13       		.uleb128 0x13
 2860 0044 00       		.byte	0
 2861 0045 00       		.byte	0
 2862 0046 07       		.uleb128 0x7
 2863 0047 13       		.uleb128 0x13
 2864 0048 01       		.byte	0x1
 2865 0049 0B       		.uleb128 0xb
 2866 004a 0B       		.uleb128 0xb
 2867 004b 3A       		.uleb128 0x3a
 2868 004c 0B       		.uleb128 0xb
 2869 004d 3B       		.uleb128 0x3b
 2870 004e 05       		.uleb128 0x5
 2871 004f 01       		.uleb128 0x1
 2872 0050 13       		.uleb128 0x13
 2873 0051 00       		.byte	0
 2874 0052 00       		.byte	0
 2875 0053 08       		.uleb128 0x8
 2876 0054 0D       		.uleb128 0xd
 2877 0055 00       		.byte	0
 2878 0056 03       		.uleb128 0x3
 2879 0057 08       		.uleb128 0x8
 2880 0058 3A       		.uleb128 0x3a
 2881 0059 0B       		.uleb128 0xb
 2882 005a 3B       		.uleb128 0x3b
 2883 005b 05       		.uleb128 0x5
 2884 005c 49       		.uleb128 0x49
 2885 005d 13       		.uleb128 0x13
 2886 005e 38       		.uleb128 0x38
 2887 005f 0A       		.uleb128 0xa
 2888 0060 00       		.byte	0
 2889 0061 00       		.byte	0
 2890 0062 09       		.uleb128 0x9
 2891 0063 0D       		.uleb128 0xd
 2892 0064 00       		.byte	0
 2893 0065 03       		.uleb128 0x3
 2894 0066 0E       		.uleb128 0xe
ARM GAS  /tmp/ccPhbTL6.s 			page 52


 2895 0067 3A       		.uleb128 0x3a
 2896 0068 0B       		.uleb128 0xb
 2897 0069 3B       		.uleb128 0x3b
 2898 006a 05       		.uleb128 0x5
 2899 006b 49       		.uleb128 0x49
 2900 006c 13       		.uleb128 0x13
 2901 006d 38       		.uleb128 0x38
 2902 006e 0A       		.uleb128 0xa
 2903 006f 00       		.byte	0
 2904 0070 00       		.byte	0
 2905 0071 0A       		.uleb128 0xa
 2906 0072 16       		.uleb128 0x16
 2907 0073 00       		.byte	0
 2908 0074 03       		.uleb128 0x3
 2909 0075 0E       		.uleb128 0xe
 2910 0076 3A       		.uleb128 0x3a
 2911 0077 0B       		.uleb128 0xb
 2912 0078 3B       		.uleb128 0x3b
 2913 0079 05       		.uleb128 0x5
 2914 007a 49       		.uleb128 0x49
 2915 007b 13       		.uleb128 0x13
 2916 007c 00       		.byte	0
 2917 007d 00       		.byte	0
 2918 007e 0B       		.uleb128 0xb
 2919 007f 13       		.uleb128 0x13
 2920 0080 01       		.byte	0x1
 2921 0081 0B       		.uleb128 0xb
 2922 0082 0B       		.uleb128 0xb
 2923 0083 3A       		.uleb128 0x3a
 2924 0084 0B       		.uleb128 0xb
 2925 0085 3B       		.uleb128 0x3b
 2926 0086 0B       		.uleb128 0xb
 2927 0087 01       		.uleb128 0x1
 2928 0088 13       		.uleb128 0x13
 2929 0089 00       		.byte	0
 2930 008a 00       		.byte	0
 2931 008b 0C       		.uleb128 0xc
 2932 008c 0D       		.uleb128 0xd
 2933 008d 00       		.byte	0
 2934 008e 03       		.uleb128 0x3
 2935 008f 0E       		.uleb128 0xe
 2936 0090 3A       		.uleb128 0x3a
 2937 0091 0B       		.uleb128 0xb
 2938 0092 3B       		.uleb128 0x3b
 2939 0093 0B       		.uleb128 0xb
 2940 0094 49       		.uleb128 0x49
 2941 0095 13       		.uleb128 0x13
 2942 0096 38       		.uleb128 0x38
 2943 0097 0A       		.uleb128 0xa
 2944 0098 00       		.byte	0
 2945 0099 00       		.byte	0
 2946 009a 0D       		.uleb128 0xd
 2947 009b 0F       		.uleb128 0xf
 2948 009c 00       		.byte	0
 2949 009d 0B       		.uleb128 0xb
 2950 009e 0B       		.uleb128 0xb
 2951 009f 49       		.uleb128 0x49
ARM GAS  /tmp/ccPhbTL6.s 			page 53


 2952 00a0 13       		.uleb128 0x13
 2953 00a1 00       		.byte	0
 2954 00a2 00       		.byte	0
 2955 00a3 0E       		.uleb128 0xe
 2956 00a4 15       		.uleb128 0x15
 2957 00a5 01       		.byte	0x1
 2958 00a6 27       		.uleb128 0x27
 2959 00a7 0C       		.uleb128 0xc
 2960 00a8 01       		.uleb128 0x1
 2961 00a9 13       		.uleb128 0x13
 2962 00aa 00       		.byte	0
 2963 00ab 00       		.byte	0
 2964 00ac 0F       		.uleb128 0xf
 2965 00ad 05       		.uleb128 0x5
 2966 00ae 00       		.byte	0
 2967 00af 49       		.uleb128 0x49
 2968 00b0 13       		.uleb128 0x13
 2969 00b1 00       		.byte	0
 2970 00b2 00       		.byte	0
 2971 00b3 10       		.uleb128 0x10
 2972 00b4 04       		.uleb128 0x4
 2973 00b5 01       		.byte	0x1
 2974 00b6 0B       		.uleb128 0xb
 2975 00b7 0B       		.uleb128 0xb
 2976 00b8 3A       		.uleb128 0x3a
 2977 00b9 0B       		.uleb128 0xb
 2978 00ba 3B       		.uleb128 0x3b
 2979 00bb 0B       		.uleb128 0xb
 2980 00bc 01       		.uleb128 0x1
 2981 00bd 13       		.uleb128 0x13
 2982 00be 00       		.byte	0
 2983 00bf 00       		.byte	0
 2984 00c0 11       		.uleb128 0x11
 2985 00c1 28       		.uleb128 0x28
 2986 00c2 00       		.byte	0
 2987 00c3 03       		.uleb128 0x3
 2988 00c4 0E       		.uleb128 0xe
 2989 00c5 1C       		.uleb128 0x1c
 2990 00c6 0D       		.uleb128 0xd
 2991 00c7 00       		.byte	0
 2992 00c8 00       		.byte	0
 2993 00c9 12       		.uleb128 0x12
 2994 00ca 13       		.uleb128 0x13
 2995 00cb 01       		.byte	0x1
 2996 00cc 03       		.uleb128 0x3
 2997 00cd 0E       		.uleb128 0xe
 2998 00ce 0B       		.uleb128 0xb
 2999 00cf 0B       		.uleb128 0xb
 3000 00d0 3A       		.uleb128 0x3a
 3001 00d1 0B       		.uleb128 0xb
 3002 00d2 3B       		.uleb128 0x3b
 3003 00d3 05       		.uleb128 0x5
 3004 00d4 01       		.uleb128 0x1
 3005 00d5 13       		.uleb128 0x13
 3006 00d6 00       		.byte	0
 3007 00d7 00       		.byte	0
 3008 00d8 13       		.uleb128 0x13
ARM GAS  /tmp/ccPhbTL6.s 			page 54


 3009 00d9 26       		.uleb128 0x26
 3010 00da 00       		.byte	0
 3011 00db 49       		.uleb128 0x49
 3012 00dc 13       		.uleb128 0x13
 3013 00dd 00       		.byte	0
 3014 00de 00       		.byte	0
 3015 00df 14       		.uleb128 0x14
 3016 00e0 2E       		.uleb128 0x2e
 3017 00e1 01       		.byte	0x1
 3018 00e2 03       		.uleb128 0x3
 3019 00e3 0E       		.uleb128 0xe
 3020 00e4 3A       		.uleb128 0x3a
 3021 00e5 0B       		.uleb128 0xb
 3022 00e6 3B       		.uleb128 0x3b
 3023 00e7 0B       		.uleb128 0xb
 3024 00e8 27       		.uleb128 0x27
 3025 00e9 0C       		.uleb128 0xc
 3026 00ea 20       		.uleb128 0x20
 3027 00eb 0B       		.uleb128 0xb
 3028 00ec 01       		.uleb128 0x1
 3029 00ed 13       		.uleb128 0x13
 3030 00ee 00       		.byte	0
 3031 00ef 00       		.byte	0
 3032 00f0 15       		.uleb128 0x15
 3033 00f1 05       		.uleb128 0x5
 3034 00f2 00       		.byte	0
 3035 00f3 03       		.uleb128 0x3
 3036 00f4 0E       		.uleb128 0xe
 3037 00f5 3A       		.uleb128 0x3a
 3038 00f6 0B       		.uleb128 0xb
 3039 00f7 3B       		.uleb128 0x3b
 3040 00f8 0B       		.uleb128 0xb
 3041 00f9 49       		.uleb128 0x49
 3042 00fa 13       		.uleb128 0x13
 3043 00fb 00       		.byte	0
 3044 00fc 00       		.byte	0
 3045 00fd 16       		.uleb128 0x16
 3046 00fe 2E       		.uleb128 0x2e
 3047 00ff 01       		.byte	0x1
 3048 0100 03       		.uleb128 0x3
 3049 0101 0E       		.uleb128 0xe
 3050 0102 3A       		.uleb128 0x3a
 3051 0103 0B       		.uleb128 0xb
 3052 0104 3B       		.uleb128 0x3b
 3053 0105 05       		.uleb128 0x5
 3054 0106 27       		.uleb128 0x27
 3055 0107 0C       		.uleb128 0xc
 3056 0108 20       		.uleb128 0x20
 3057 0109 0B       		.uleb128 0xb
 3058 010a 01       		.uleb128 0x1
 3059 010b 13       		.uleb128 0x13
 3060 010c 00       		.byte	0
 3061 010d 00       		.byte	0
 3062 010e 17       		.uleb128 0x17
 3063 010f 05       		.uleb128 0x5
 3064 0110 00       		.byte	0
 3065 0111 03       		.uleb128 0x3
ARM GAS  /tmp/ccPhbTL6.s 			page 55


 3066 0112 0E       		.uleb128 0xe
 3067 0113 3A       		.uleb128 0x3a
 3068 0114 0B       		.uleb128 0xb
 3069 0115 3B       		.uleb128 0x3b
 3070 0116 05       		.uleb128 0x5
 3071 0117 49       		.uleb128 0x49
 3072 0118 13       		.uleb128 0x13
 3073 0119 00       		.byte	0
 3074 011a 00       		.byte	0
 3075 011b 18       		.uleb128 0x18
 3076 011c 34       		.uleb128 0x34
 3077 011d 00       		.byte	0
 3078 011e 03       		.uleb128 0x3
 3079 011f 08       		.uleb128 0x8
 3080 0120 3A       		.uleb128 0x3a
 3081 0121 0B       		.uleb128 0xb
 3082 0122 3B       		.uleb128 0x3b
 3083 0123 05       		.uleb128 0x5
 3084 0124 49       		.uleb128 0x49
 3085 0125 13       		.uleb128 0x13
 3086 0126 00       		.byte	0
 3087 0127 00       		.byte	0
 3088 0128 19       		.uleb128 0x19
 3089 0129 2E       		.uleb128 0x2e
 3090 012a 01       		.byte	0x1
 3091 012b 03       		.uleb128 0x3
 3092 012c 0E       		.uleb128 0xe
 3093 012d 3A       		.uleb128 0x3a
 3094 012e 0B       		.uleb128 0xb
 3095 012f 3B       		.uleb128 0x3b
 3096 0130 0B       		.uleb128 0xb
 3097 0131 27       		.uleb128 0x27
 3098 0132 0C       		.uleb128 0xc
 3099 0133 11       		.uleb128 0x11
 3100 0134 01       		.uleb128 0x1
 3101 0135 12       		.uleb128 0x12
 3102 0136 01       		.uleb128 0x1
 3103 0137 40       		.uleb128 0x40
 3104 0138 06       		.uleb128 0x6
 3105 0139 9742     		.uleb128 0x2117
 3106 013b 0C       		.uleb128 0xc
 3107 013c 01       		.uleb128 0x1
 3108 013d 13       		.uleb128 0x13
 3109 013e 00       		.byte	0
 3110 013f 00       		.byte	0
 3111 0140 1A       		.uleb128 0x1a
 3112 0141 05       		.uleb128 0x5
 3113 0142 00       		.byte	0
 3114 0143 03       		.uleb128 0x3
 3115 0144 0E       		.uleb128 0xe
 3116 0145 3A       		.uleb128 0x3a
 3117 0146 0B       		.uleb128 0xb
 3118 0147 3B       		.uleb128 0x3b
 3119 0148 0B       		.uleb128 0xb
 3120 0149 49       		.uleb128 0x49
 3121 014a 13       		.uleb128 0x13
 3122 014b 02       		.uleb128 0x2
ARM GAS  /tmp/ccPhbTL6.s 			page 56


 3123 014c 06       		.uleb128 0x6
 3124 014d 00       		.byte	0
 3125 014e 00       		.byte	0
 3126 014f 1B       		.uleb128 0x1b
 3127 0150 34       		.uleb128 0x34
 3128 0151 00       		.byte	0
 3129 0152 03       		.uleb128 0x3
 3130 0153 0E       		.uleb128 0xe
 3131 0154 3A       		.uleb128 0x3a
 3132 0155 0B       		.uleb128 0xb
 3133 0156 3B       		.uleb128 0x3b
 3134 0157 0B       		.uleb128 0xb
 3135 0158 49       		.uleb128 0x49
 3136 0159 13       		.uleb128 0x13
 3137 015a 02       		.uleb128 0x2
 3138 015b 06       		.uleb128 0x6
 3139 015c 00       		.byte	0
 3140 015d 00       		.byte	0
 3141 015e 1C       		.uleb128 0x1c
 3142 015f 898201   		.uleb128 0x4109
 3143 0162 01       		.byte	0x1
 3144 0163 11       		.uleb128 0x11
 3145 0164 01       		.uleb128 0x1
 3146 0165 01       		.uleb128 0x1
 3147 0166 13       		.uleb128 0x13
 3148 0167 00       		.byte	0
 3149 0168 00       		.byte	0
 3150 0169 1D       		.uleb128 0x1d
 3151 016a 8A8201   		.uleb128 0x410a
 3152 016d 00       		.byte	0
 3153 016e 02       		.uleb128 0x2
 3154 016f 0A       		.uleb128 0xa
 3155 0170 9142     		.uleb128 0x2111
 3156 0172 0A       		.uleb128 0xa
 3157 0173 00       		.byte	0
 3158 0174 00       		.byte	0
 3159 0175 1E       		.uleb128 0x1e
 3160 0176 898201   		.uleb128 0x4109
 3161 0179 00       		.byte	0
 3162 017a 11       		.uleb128 0x11
 3163 017b 01       		.uleb128 0x1
 3164 017c 31       		.uleb128 0x31
 3165 017d 13       		.uleb128 0x13
 3166 017e 00       		.byte	0
 3167 017f 00       		.byte	0
 3168 0180 1F       		.uleb128 0x1f
 3169 0181 2E       		.uleb128 0x2e
 3170 0182 01       		.byte	0x1
 3171 0183 31       		.uleb128 0x31
 3172 0184 13       		.uleb128 0x13
 3173 0185 11       		.uleb128 0x11
 3174 0186 01       		.uleb128 0x1
 3175 0187 12       		.uleb128 0x12
 3176 0188 01       		.uleb128 0x1
 3177 0189 40       		.uleb128 0x40
 3178 018a 06       		.uleb128 0x6
 3179 018b 9742     		.uleb128 0x2117
ARM GAS  /tmp/ccPhbTL6.s 			page 57


 3180 018d 0C       		.uleb128 0xc
 3181 018e 01       		.uleb128 0x1
 3182 018f 13       		.uleb128 0x13
 3183 0190 00       		.byte	0
 3184 0191 00       		.byte	0
 3185 0192 20       		.uleb128 0x20
 3186 0193 05       		.uleb128 0x5
 3187 0194 00       		.byte	0
 3188 0195 31       		.uleb128 0x31
 3189 0196 13       		.uleb128 0x13
 3190 0197 02       		.uleb128 0x2
 3191 0198 06       		.uleb128 0x6
 3192 0199 00       		.byte	0
 3193 019a 00       		.byte	0
 3194 019b 21       		.uleb128 0x21
 3195 019c 1D       		.uleb128 0x1d
 3196 019d 01       		.byte	0x1
 3197 019e 31       		.uleb128 0x31
 3198 019f 13       		.uleb128 0x13
 3199 01a0 52       		.uleb128 0x52
 3200 01a1 01       		.uleb128 0x1
 3201 01a2 55       		.uleb128 0x55
 3202 01a3 06       		.uleb128 0x6
 3203 01a4 58       		.uleb128 0x58
 3204 01a5 0B       		.uleb128 0xb
 3205 01a6 59       		.uleb128 0x59
 3206 01a7 0B       		.uleb128 0xb
 3207 01a8 01       		.uleb128 0x1
 3208 01a9 13       		.uleb128 0x13
 3209 01aa 00       		.byte	0
 3210 01ab 00       		.byte	0
 3211 01ac 22       		.uleb128 0x22
 3212 01ad 0B       		.uleb128 0xb
 3213 01ae 01       		.byte	0x1
 3214 01af 55       		.uleb128 0x55
 3215 01b0 06       		.uleb128 0x6
 3216 01b1 00       		.byte	0
 3217 01b2 00       		.byte	0
 3218 01b3 23       		.uleb128 0x23
 3219 01b4 05       		.uleb128 0x5
 3220 01b5 00       		.byte	0
 3221 01b6 31       		.uleb128 0x31
 3222 01b7 13       		.uleb128 0x13
 3223 01b8 00       		.byte	0
 3224 01b9 00       		.byte	0
 3225 01ba 24       		.uleb128 0x24
 3226 01bb 898201   		.uleb128 0x4109
 3227 01be 01       		.byte	0x1
 3228 01bf 11       		.uleb128 0x11
 3229 01c0 01       		.uleb128 0x1
 3230 01c1 9542     		.uleb128 0x2115
 3231 01c3 0C       		.uleb128 0xc
 3232 01c4 31       		.uleb128 0x31
 3233 01c5 13       		.uleb128 0x13
 3234 01c6 00       		.byte	0
 3235 01c7 00       		.byte	0
 3236 01c8 25       		.uleb128 0x25
ARM GAS  /tmp/ccPhbTL6.s 			page 58


 3237 01c9 2E       		.uleb128 0x2e
 3238 01ca 01       		.byte	0x1
 3239 01cb 03       		.uleb128 0x3
 3240 01cc 0E       		.uleb128 0xe
 3241 01cd 3A       		.uleb128 0x3a
 3242 01ce 0B       		.uleb128 0xb
 3243 01cf 3B       		.uleb128 0x3b
 3244 01d0 0B       		.uleb128 0xb
 3245 01d1 27       		.uleb128 0x27
 3246 01d2 0C       		.uleb128 0xc
 3247 01d3 49       		.uleb128 0x49
 3248 01d4 13       		.uleb128 0x13
 3249 01d5 20       		.uleb128 0x20
 3250 01d6 0B       		.uleb128 0xb
 3251 01d7 01       		.uleb128 0x1
 3252 01d8 13       		.uleb128 0x13
 3253 01d9 00       		.byte	0
 3254 01da 00       		.byte	0
 3255 01db 26       		.uleb128 0x26
 3256 01dc 05       		.uleb128 0x5
 3257 01dd 00       		.byte	0
 3258 01de 03       		.uleb128 0x3
 3259 01df 08       		.uleb128 0x8
 3260 01e0 3A       		.uleb128 0x3a
 3261 01e1 0B       		.uleb128 0xb
 3262 01e2 3B       		.uleb128 0x3b
 3263 01e3 0B       		.uleb128 0xb
 3264 01e4 49       		.uleb128 0x49
 3265 01e5 13       		.uleb128 0x13
 3266 01e6 00       		.byte	0
 3267 01e7 00       		.byte	0
 3268 01e8 27       		.uleb128 0x27
 3269 01e9 34       		.uleb128 0x34
 3270 01ea 00       		.byte	0
 3271 01eb 03       		.uleb128 0x3
 3272 01ec 08       		.uleb128 0x8
 3273 01ed 3A       		.uleb128 0x3a
 3274 01ee 0B       		.uleb128 0xb
 3275 01ef 3B       		.uleb128 0x3b
 3276 01f0 0B       		.uleb128 0xb
 3277 01f1 49       		.uleb128 0x49
 3278 01f2 13       		.uleb128 0x13
 3279 01f3 00       		.byte	0
 3280 01f4 00       		.byte	0
 3281 01f5 28       		.uleb128 0x28
 3282 01f6 2E       		.uleb128 0x2e
 3283 01f7 01       		.byte	0x1
 3284 01f8 3F       		.uleb128 0x3f
 3285 01f9 0C       		.uleb128 0xc
 3286 01fa 03       		.uleb128 0x3
 3287 01fb 0E       		.uleb128 0xe
 3288 01fc 3A       		.uleb128 0x3a
 3289 01fd 0B       		.uleb128 0xb
 3290 01fe 3B       		.uleb128 0x3b
 3291 01ff 05       		.uleb128 0x5
 3292 0200 27       		.uleb128 0x27
 3293 0201 0C       		.uleb128 0xc
ARM GAS  /tmp/ccPhbTL6.s 			page 59


 3294 0202 11       		.uleb128 0x11
 3295 0203 01       		.uleb128 0x1
 3296 0204 12       		.uleb128 0x12
 3297 0205 01       		.uleb128 0x1
 3298 0206 40       		.uleb128 0x40
 3299 0207 06       		.uleb128 0x6
 3300 0208 9742     		.uleb128 0x2117
 3301 020a 0C       		.uleb128 0xc
 3302 020b 01       		.uleb128 0x1
 3303 020c 13       		.uleb128 0x13
 3304 020d 00       		.byte	0
 3305 020e 00       		.byte	0
 3306 020f 29       		.uleb128 0x29
 3307 0210 1D       		.uleb128 0x1d
 3308 0211 01       		.byte	0x1
 3309 0212 31       		.uleb128 0x31
 3310 0213 13       		.uleb128 0x13
 3311 0214 11       		.uleb128 0x11
 3312 0215 01       		.uleb128 0x1
 3313 0216 12       		.uleb128 0x12
 3314 0217 01       		.uleb128 0x1
 3315 0218 58       		.uleb128 0x58
 3316 0219 0B       		.uleb128 0xb
 3317 021a 59       		.uleb128 0x59
 3318 021b 05       		.uleb128 0x5
 3319 021c 01       		.uleb128 0x1
 3320 021d 13       		.uleb128 0x13
 3321 021e 00       		.byte	0
 3322 021f 00       		.byte	0
 3323 0220 2A       		.uleb128 0x2a
 3324 0221 0B       		.uleb128 0xb
 3325 0222 01       		.byte	0x1
 3326 0223 11       		.uleb128 0x11
 3327 0224 01       		.uleb128 0x1
 3328 0225 12       		.uleb128 0x12
 3329 0226 01       		.uleb128 0x1
 3330 0227 00       		.byte	0
 3331 0228 00       		.byte	0
 3332 0229 2B       		.uleb128 0x2b
 3333 022a 34       		.uleb128 0x34
 3334 022b 00       		.byte	0
 3335 022c 31       		.uleb128 0x31
 3336 022d 13       		.uleb128 0x13
 3337 022e 02       		.uleb128 0x2
 3338 022f 0A       		.uleb128 0xa
 3339 0230 00       		.byte	0
 3340 0231 00       		.byte	0
 3341 0232 2C       		.uleb128 0x2c
 3342 0233 34       		.uleb128 0x34
 3343 0234 00       		.byte	0
 3344 0235 31       		.uleb128 0x31
 3345 0236 13       		.uleb128 0x13
 3346 0237 02       		.uleb128 0x2
 3347 0238 06       		.uleb128 0x6
 3348 0239 00       		.byte	0
 3349 023a 00       		.byte	0
 3350 023b 2D       		.uleb128 0x2d
ARM GAS  /tmp/ccPhbTL6.s 			page 60


 3351 023c 05       		.uleb128 0x5
 3352 023d 00       		.byte	0
 3353 023e 31       		.uleb128 0x31
 3354 023f 13       		.uleb128 0x13
 3355 0240 02       		.uleb128 0x2
 3356 0241 0A       		.uleb128 0xa
 3357 0242 00       		.byte	0
 3358 0243 00       		.byte	0
 3359 0244 2E       		.uleb128 0x2e
 3360 0245 8A8201   		.uleb128 0x410a
 3361 0248 00       		.byte	0
 3362 0249 02       		.uleb128 0x2
 3363 024a 0A       		.uleb128 0xa
 3364 024b 9142     		.uleb128 0x2111
 3365 024d 03       		.uleb128 0x3
 3366 024e 00       		.byte	0
 3367 024f 00       		.byte	0
 3368 0250 2F       		.uleb128 0x2f
 3369 0251 898201   		.uleb128 0x4109
 3370 0254 01       		.byte	0x1
 3371 0255 11       		.uleb128 0x11
 3372 0256 01       		.uleb128 0x1
 3373 0257 00       		.byte	0
 3374 0258 00       		.byte	0
 3375 0259 30       		.uleb128 0x30
 3376 025a 898201   		.uleb128 0x4109
 3377 025d 00       		.byte	0
 3378 025e 11       		.uleb128 0x11
 3379 025f 01       		.uleb128 0x1
 3380 0260 9542     		.uleb128 0x2115
 3381 0262 0C       		.uleb128 0xc
 3382 0263 31       		.uleb128 0x31
 3383 0264 13       		.uleb128 0x13
 3384 0265 00       		.byte	0
 3385 0266 00       		.byte	0
 3386 0267 31       		.uleb128 0x31
 3387 0268 898201   		.uleb128 0x4109
 3388 026b 01       		.byte	0x1
 3389 026c 11       		.uleb128 0x11
 3390 026d 01       		.uleb128 0x1
 3391 026e 31       		.uleb128 0x31
 3392 026f 13       		.uleb128 0x13
 3393 0270 00       		.byte	0
 3394 0271 00       		.byte	0
 3395 0272 32       		.uleb128 0x32
 3396 0273 05       		.uleb128 0x5
 3397 0274 00       		.byte	0
 3398 0275 03       		.uleb128 0x3
 3399 0276 0E       		.uleb128 0xe
 3400 0277 3A       		.uleb128 0x3a
 3401 0278 0B       		.uleb128 0xb
 3402 0279 3B       		.uleb128 0x3b
 3403 027a 05       		.uleb128 0x5
 3404 027b 49       		.uleb128 0x49
 3405 027c 13       		.uleb128 0x13
 3406 027d 02       		.uleb128 0x2
 3407 027e 06       		.uleb128 0x6
ARM GAS  /tmp/ccPhbTL6.s 			page 61


 3408 027f 00       		.byte	0
 3409 0280 00       		.byte	0
 3410 0281 33       		.uleb128 0x33
 3411 0282 1D       		.uleb128 0x1d
 3412 0283 01       		.byte	0x1
 3413 0284 31       		.uleb128 0x31
 3414 0285 13       		.uleb128 0x13
 3415 0286 52       		.uleb128 0x52
 3416 0287 01       		.uleb128 0x1
 3417 0288 55       		.uleb128 0x55
 3418 0289 06       		.uleb128 0x6
 3419 028a 58       		.uleb128 0x58
 3420 028b 0B       		.uleb128 0xb
 3421 028c 59       		.uleb128 0x59
 3422 028d 05       		.uleb128 0x5
 3423 028e 01       		.uleb128 0x1
 3424 028f 13       		.uleb128 0x13
 3425 0290 00       		.byte	0
 3426 0291 00       		.byte	0
 3427 0292 34       		.uleb128 0x34
 3428 0293 898201   		.uleb128 0x4109
 3429 0296 01       		.byte	0x1
 3430 0297 11       		.uleb128 0x11
 3431 0298 01       		.uleb128 0x1
 3432 0299 31       		.uleb128 0x31
 3433 029a 13       		.uleb128 0x13
 3434 029b 01       		.uleb128 0x1
 3435 029c 13       		.uleb128 0x13
 3436 029d 00       		.byte	0
 3437 029e 00       		.byte	0
 3438 029f 35       		.uleb128 0x35
 3439 02a0 2E       		.uleb128 0x2e
 3440 02a1 01       		.byte	0x1
 3441 02a2 3F       		.uleb128 0x3f
 3442 02a3 0C       		.uleb128 0xc
 3443 02a4 03       		.uleb128 0x3
 3444 02a5 0E       		.uleb128 0xe
 3445 02a6 3A       		.uleb128 0x3a
 3446 02a7 0B       		.uleb128 0xb
 3447 02a8 3B       		.uleb128 0x3b
 3448 02a9 05       		.uleb128 0x5
 3449 02aa 27       		.uleb128 0x27
 3450 02ab 0C       		.uleb128 0xc
 3451 02ac 11       		.uleb128 0x11
 3452 02ad 01       		.uleb128 0x1
 3453 02ae 12       		.uleb128 0x12
 3454 02af 01       		.uleb128 0x1
 3455 02b0 40       		.uleb128 0x40
 3456 02b1 0A       		.uleb128 0xa
 3457 02b2 9742     		.uleb128 0x2117
 3458 02b4 0C       		.uleb128 0xc
 3459 02b5 01       		.uleb128 0x1
 3460 02b6 13       		.uleb128 0x13
 3461 02b7 00       		.byte	0
 3462 02b8 00       		.byte	0
 3463 02b9 36       		.uleb128 0x36
 3464 02ba 05       		.uleb128 0x5
ARM GAS  /tmp/ccPhbTL6.s 			page 62


 3465 02bb 00       		.byte	0
 3466 02bc 03       		.uleb128 0x3
 3467 02bd 08       		.uleb128 0x8
 3468 02be 3A       		.uleb128 0x3a
 3469 02bf 0B       		.uleb128 0xb
 3470 02c0 3B       		.uleb128 0x3b
 3471 02c1 05       		.uleb128 0x5
 3472 02c2 49       		.uleb128 0x49
 3473 02c3 13       		.uleb128 0x13
 3474 02c4 02       		.uleb128 0x2
 3475 02c5 06       		.uleb128 0x6
 3476 02c6 00       		.byte	0
 3477 02c7 00       		.byte	0
 3478 02c8 37       		.uleb128 0x37
 3479 02c9 26       		.uleb128 0x26
 3480 02ca 00       		.byte	0
 3481 02cb 00       		.byte	0
 3482 02cc 00       		.byte	0
 3483 02cd 38       		.uleb128 0x38
 3484 02ce 2E       		.uleb128 0x2e
 3485 02cf 01       		.byte	0x1
 3486 02d0 3F       		.uleb128 0x3f
 3487 02d1 0C       		.uleb128 0xc
 3488 02d2 03       		.uleb128 0x3
 3489 02d3 0E       		.uleb128 0xe
 3490 02d4 3A       		.uleb128 0x3a
 3491 02d5 0B       		.uleb128 0xb
 3492 02d6 3B       		.uleb128 0x3b
 3493 02d7 05       		.uleb128 0x5
 3494 02d8 27       		.uleb128 0x27
 3495 02d9 0C       		.uleb128 0xc
 3496 02da 49       		.uleb128 0x49
 3497 02db 13       		.uleb128 0x13
 3498 02dc 11       		.uleb128 0x11
 3499 02dd 01       		.uleb128 0x1
 3500 02de 12       		.uleb128 0x12
 3501 02df 01       		.uleb128 0x1
 3502 02e0 40       		.uleb128 0x40
 3503 02e1 0A       		.uleb128 0xa
 3504 02e2 9742     		.uleb128 0x2117
 3505 02e4 0C       		.uleb128 0xc
 3506 02e5 01       		.uleb128 0x1
 3507 02e6 13       		.uleb128 0x13
 3508 02e7 00       		.byte	0
 3509 02e8 00       		.byte	0
 3510 02e9 39       		.uleb128 0x39
 3511 02ea 2E       		.uleb128 0x2e
 3512 02eb 01       		.byte	0x1
 3513 02ec 3F       		.uleb128 0x3f
 3514 02ed 0C       		.uleb128 0xc
 3515 02ee 03       		.uleb128 0x3
 3516 02ef 0E       		.uleb128 0xe
 3517 02f0 3A       		.uleb128 0x3a
 3518 02f1 0B       		.uleb128 0xb
 3519 02f2 3B       		.uleb128 0x3b
 3520 02f3 05       		.uleb128 0x5
 3521 02f4 27       		.uleb128 0x27
ARM GAS  /tmp/ccPhbTL6.s 			page 63


 3522 02f5 0C       		.uleb128 0xc
 3523 02f6 49       		.uleb128 0x49
 3524 02f7 13       		.uleb128 0x13
 3525 02f8 11       		.uleb128 0x11
 3526 02f9 01       		.uleb128 0x1
 3527 02fa 12       		.uleb128 0x12
 3528 02fb 01       		.uleb128 0x1
 3529 02fc 40       		.uleb128 0x40
 3530 02fd 06       		.uleb128 0x6
 3531 02fe 9742     		.uleb128 0x2117
 3532 0300 0C       		.uleb128 0xc
 3533 0301 01       		.uleb128 0x1
 3534 0302 13       		.uleb128 0x13
 3535 0303 00       		.byte	0
 3536 0304 00       		.byte	0
 3537 0305 3A       		.uleb128 0x3a
 3538 0306 34       		.uleb128 0x34
 3539 0307 00       		.byte	0
 3540 0308 03       		.uleb128 0x3
 3541 0309 08       		.uleb128 0x8
 3542 030a 3A       		.uleb128 0x3a
 3543 030b 0B       		.uleb128 0xb
 3544 030c 3B       		.uleb128 0x3b
 3545 030d 05       		.uleb128 0x5
 3546 030e 49       		.uleb128 0x49
 3547 030f 13       		.uleb128 0x13
 3548 0310 02       		.uleb128 0x2
 3549 0311 0A       		.uleb128 0xa
 3550 0312 00       		.byte	0
 3551 0313 00       		.byte	0
 3552 0314 3B       		.uleb128 0x3b
 3553 0315 34       		.uleb128 0x34
 3554 0316 00       		.byte	0
 3555 0317 03       		.uleb128 0x3
 3556 0318 0E       		.uleb128 0xe
 3557 0319 3A       		.uleb128 0x3a
 3558 031a 0B       		.uleb128 0xb
 3559 031b 3B       		.uleb128 0x3b
 3560 031c 05       		.uleb128 0x5
 3561 031d 49       		.uleb128 0x49
 3562 031e 13       		.uleb128 0x13
 3563 031f 3F       		.uleb128 0x3f
 3564 0320 0C       		.uleb128 0xc
 3565 0321 3C       		.uleb128 0x3c
 3566 0322 0C       		.uleb128 0xc
 3567 0323 00       		.byte	0
 3568 0324 00       		.byte	0
 3569 0325 3C       		.uleb128 0x3c
 3570 0326 01       		.uleb128 0x1
 3571 0327 01       		.byte	0x1
 3572 0328 49       		.uleb128 0x49
 3573 0329 13       		.uleb128 0x13
 3574 032a 01       		.uleb128 0x1
 3575 032b 13       		.uleb128 0x13
 3576 032c 00       		.byte	0
 3577 032d 00       		.byte	0
 3578 032e 3D       		.uleb128 0x3d
ARM GAS  /tmp/ccPhbTL6.s 			page 64


 3579 032f 21       		.uleb128 0x21
 3580 0330 00       		.byte	0
 3581 0331 49       		.uleb128 0x49
 3582 0332 13       		.uleb128 0x13
 3583 0333 2F       		.uleb128 0x2f
 3584 0334 0B       		.uleb128 0xb
 3585 0335 00       		.byte	0
 3586 0336 00       		.byte	0
 3587 0337 3E       		.uleb128 0x3e
 3588 0338 34       		.uleb128 0x34
 3589 0339 00       		.byte	0
 3590 033a 03       		.uleb128 0x3
 3591 033b 0E       		.uleb128 0xe
 3592 033c 3A       		.uleb128 0x3a
 3593 033d 0B       		.uleb128 0xb
 3594 033e 3B       		.uleb128 0x3b
 3595 033f 0B       		.uleb128 0xb
 3596 0340 49       		.uleb128 0x49
 3597 0341 13       		.uleb128 0x13
 3598 0342 3F       		.uleb128 0x3f
 3599 0343 0C       		.uleb128 0xc
 3600 0344 02       		.uleb128 0x2
 3601 0345 0A       		.uleb128 0xa
 3602 0346 00       		.byte	0
 3603 0347 00       		.byte	0
 3604 0348 3F       		.uleb128 0x3f
 3605 0349 2E       		.uleb128 0x2e
 3606 034a 00       		.byte	0
 3607 034b 3F       		.uleb128 0x3f
 3608 034c 0C       		.uleb128 0xc
 3609 034d 03       		.uleb128 0x3
 3610 034e 0E       		.uleb128 0xe
 3611 034f 3A       		.uleb128 0x3a
 3612 0350 0B       		.uleb128 0xb
 3613 0351 3B       		.uleb128 0x3b
 3614 0352 05       		.uleb128 0x5
 3615 0353 27       		.uleb128 0x27
 3616 0354 0C       		.uleb128 0xc
 3617 0355 3C       		.uleb128 0x3c
 3618 0356 0C       		.uleb128 0xc
 3619 0357 00       		.byte	0
 3620 0358 00       		.byte	0
 3621 0359 40       		.uleb128 0x40
 3622 035a 2E       		.uleb128 0x2e
 3623 035b 01       		.byte	0x1
 3624 035c 3F       		.uleb128 0x3f
 3625 035d 0C       		.uleb128 0xc
 3626 035e 03       		.uleb128 0x3
 3627 035f 0E       		.uleb128 0xe
 3628 0360 3A       		.uleb128 0x3a
 3629 0361 0B       		.uleb128 0xb
 3630 0362 3B       		.uleb128 0x3b
 3631 0363 0B       		.uleb128 0xb
 3632 0364 27       		.uleb128 0x27
 3633 0365 0C       		.uleb128 0xc
 3634 0366 3C       		.uleb128 0x3c
 3635 0367 0C       		.uleb128 0xc
ARM GAS  /tmp/ccPhbTL6.s 			page 65


 3636 0368 01       		.uleb128 0x1
 3637 0369 13       		.uleb128 0x13
 3638 036a 00       		.byte	0
 3639 036b 00       		.byte	0
 3640 036c 41       		.uleb128 0x41
 3641 036d 2E       		.uleb128 0x2e
 3642 036e 01       		.byte	0x1
 3643 036f 3F       		.uleb128 0x3f
 3644 0370 0C       		.uleb128 0xc
 3645 0371 03       		.uleb128 0x3
 3646 0372 0E       		.uleb128 0xe
 3647 0373 3A       		.uleb128 0x3a
 3648 0374 0B       		.uleb128 0xb
 3649 0375 3B       		.uleb128 0x3b
 3650 0376 05       		.uleb128 0x5
 3651 0377 27       		.uleb128 0x27
 3652 0378 0C       		.uleb128 0xc
 3653 0379 49       		.uleb128 0x49
 3654 037a 13       		.uleb128 0x13
 3655 037b 3C       		.uleb128 0x3c
 3656 037c 0C       		.uleb128 0xc
 3657 037d 01       		.uleb128 0x1
 3658 037e 13       		.uleb128 0x13
 3659 037f 00       		.byte	0
 3660 0380 00       		.byte	0
 3661 0381 42       		.uleb128 0x42
 3662 0382 2E       		.uleb128 0x2e
 3663 0383 01       		.byte	0x1
 3664 0384 3F       		.uleb128 0x3f
 3665 0385 0C       		.uleb128 0xc
 3666 0386 03       		.uleb128 0x3
 3667 0387 0E       		.uleb128 0xe
 3668 0388 3A       		.uleb128 0x3a
 3669 0389 0B       		.uleb128 0xb
 3670 038a 3B       		.uleb128 0x3b
 3671 038b 05       		.uleb128 0x5
 3672 038c 27       		.uleb128 0x27
 3673 038d 0C       		.uleb128 0xc
 3674 038e 3C       		.uleb128 0x3c
 3675 038f 0C       		.uleb128 0xc
 3676 0390 01       		.uleb128 0x1
 3677 0391 13       		.uleb128 0x13
 3678 0392 00       		.byte	0
 3679 0393 00       		.byte	0
 3680 0394 43       		.uleb128 0x43
 3681 0395 2E       		.uleb128 0x2e
 3682 0396 01       		.byte	0x1
 3683 0397 3F       		.uleb128 0x3f
 3684 0398 0C       		.uleb128 0xc
 3685 0399 03       		.uleb128 0x3
 3686 039a 0E       		.uleb128 0xe
 3687 039b 3A       		.uleb128 0x3a
 3688 039c 0B       		.uleb128 0xb
 3689 039d 3B       		.uleb128 0x3b
 3690 039e 05       		.uleb128 0x5
 3691 039f 27       		.uleb128 0x27
 3692 03a0 0C       		.uleb128 0xc
ARM GAS  /tmp/ccPhbTL6.s 			page 66


 3693 03a1 3C       		.uleb128 0x3c
 3694 03a2 0C       		.uleb128 0xc
 3695 03a3 00       		.byte	0
 3696 03a4 00       		.byte	0
 3697 03a5 00       		.byte	0
 3698              		.section	.debug_loc,"",%progbits
 3699              	.Ldebug_loc0:
 3700              	.LLST0:
 3701 0000 00000000 		.4byte	.LFB119
 3702 0004 04000000 		.4byte	.LCFI0
 3703 0008 0200     		.2byte	0x2
 3704 000a 7D       		.byte	0x7d
 3705 000b 00       		.sleb128 0
 3706 000c 04000000 		.4byte	.LCFI0
 3707 0010 2C000000 		.4byte	.LFE119
 3708 0014 0200     		.2byte	0x2
 3709 0016 7D       		.byte	0x7d
 3710 0017 04       		.sleb128 4
 3711 0018 00000000 		.4byte	0
 3712 001c 00000000 		.4byte	0
 3713              	.LLST1:
 3714 0020 00000000 		.4byte	.LVL0
 3715 0024 10000000 		.4byte	.LVL1
 3716 0028 0100     		.2byte	0x1
 3717 002a 50       		.byte	0x50
 3718 002b 10000000 		.4byte	.LVL1
 3719 002f 1E000000 		.4byte	.LVL4
 3720 0033 0300     		.2byte	0x3
 3721 0035 71       		.byte	0x71
 3722 0036 68       		.sleb128 -24
 3723 0037 9F       		.byte	0x9f
 3724 0038 1E000000 		.4byte	.LVL4
 3725 003c 2C000000 		.4byte	.LFE119
 3726 0040 0600     		.2byte	0x6
 3727 0042 73       		.byte	0x73
 3728 0043 0C       		.sleb128 12
 3729 0044 06       		.byte	0x6
 3730 0045 48       		.byte	0x48
 3731 0046 1C       		.byte	0x1c
 3732 0047 9F       		.byte	0x9f
 3733 0048 00000000 		.4byte	0
 3734 004c 00000000 		.4byte	0
 3735              	.LLST2:
 3736 0050 1A000000 		.4byte	.LVL2
 3737 0054 1C000000 		.4byte	.LVL3
 3738 0058 0100     		.2byte	0x1
 3739 005a 52       		.byte	0x52
 3740 005b 1C000000 		.4byte	.LVL3
 3741 005f 1E000000 		.4byte	.LVL4
 3742 0063 1200     		.2byte	0x12
 3743 0065 08       		.byte	0x8
 3744 0066 22       		.byte	0x22
 3745 0067 08       		.byte	0x8
 3746 0068 20       		.byte	0x20
 3747 0069 71       		.byte	0x71
 3748 006a 6C       		.sleb128 -20
 3749 006b 06       		.byte	0x6
ARM GAS  /tmp/ccPhbTL6.s 			page 67


 3750 006c 23       		.byte	0x23
 3751 006d 0C       		.uleb128 0xc
 3752 006e 06       		.byte	0x6
 3753 006f 30       		.byte	0x30
 3754 0070 2E       		.byte	0x2e
 3755 0071 28       		.byte	0x28
 3756 0072 0100     		.2byte	0x1
 3757 0074 16       		.byte	0x16
 3758 0075 13       		.byte	0x13
 3759 0076 9F       		.byte	0x9f
 3760 0077 1E000000 		.4byte	.LVL4
 3761 007b 2C000000 		.4byte	.LFE119
 3762 007f 1500     		.2byte	0x15
 3763 0081 08       		.byte	0x8
 3764 0082 22       		.byte	0x22
 3765 0083 08       		.byte	0x8
 3766 0084 20       		.byte	0x20
 3767 0085 73       		.byte	0x73
 3768 0086 0C       		.sleb128 12
 3769 0087 06       		.byte	0x6
 3770 0088 44       		.byte	0x44
 3771 0089 1C       		.byte	0x1c
 3772 008a 06       		.byte	0x6
 3773 008b 23       		.byte	0x23
 3774 008c 0C       		.uleb128 0xc
 3775 008d 06       		.byte	0x6
 3776 008e 30       		.byte	0x30
 3777 008f 2E       		.byte	0x2e
 3778 0090 28       		.byte	0x28
 3779 0091 0100     		.2byte	0x1
 3780 0093 16       		.byte	0x16
 3781 0094 13       		.byte	0x13
 3782 0095 9F       		.byte	0x9f
 3783 0096 00000000 		.4byte	0
 3784 009a 00000000 		.4byte	0
 3785              	.LLST3:
 3786 009e 00000000 		.4byte	.LFB120
 3787 00a2 0A000000 		.4byte	.LCFI1
 3788 00a6 0200     		.2byte	0x2
 3789 00a8 7D       		.byte	0x7d
 3790 00a9 00       		.sleb128 0
 3791 00aa 0A000000 		.4byte	.LCFI1
 3792 00ae 46000000 		.4byte	.LFE120
 3793 00b2 0200     		.2byte	0x2
 3794 00b4 7D       		.byte	0x7d
 3795 00b5 14       		.sleb128 20
 3796 00b6 00000000 		.4byte	0
 3797 00ba 00000000 		.4byte	0
 3798              	.LLST4:
 3799 00be 00000000 		.4byte	.LVL5
 3800 00c2 16000000 		.4byte	.LVL6
 3801 00c6 0100     		.2byte	0x1
 3802 00c8 50       		.byte	0x50
 3803 00c9 16000000 		.4byte	.LVL6
 3804 00cd 46000000 		.4byte	.LFE120
 3805 00d1 0400     		.2byte	0x4
 3806 00d3 F3       		.byte	0xf3
ARM GAS  /tmp/ccPhbTL6.s 			page 68


 3807 00d4 01       		.uleb128 0x1
 3808 00d5 50       		.byte	0x50
 3809 00d6 9F       		.byte	0x9f
 3810 00d7 00000000 		.4byte	0
 3811 00db 00000000 		.4byte	0
 3812              	.LLST5:
 3813 00df 00000000 		.4byte	.LFB123
 3814 00e3 02000000 		.4byte	.LCFI2
 3815 00e7 0200     		.2byte	0x2
 3816 00e9 7D       		.byte	0x7d
 3817 00ea 00       		.sleb128 0
 3818 00eb 02000000 		.4byte	.LCFI2
 3819 00ef 42000000 		.4byte	.LFE123
 3820 00f3 0200     		.2byte	0x2
 3821 00f5 7D       		.byte	0x7d
 3822 00f6 10       		.sleb128 16
 3823 00f7 00000000 		.4byte	0
 3824 00fb 00000000 		.4byte	0
 3825              	.LLST6:
 3826 00ff 00000000 		.4byte	.LVL7
 3827 0103 08000000 		.4byte	.LVL8
 3828 0107 0100     		.2byte	0x1
 3829 0109 50       		.byte	0x50
 3830 010a 08000000 		.4byte	.LVL8
 3831 010e 3C000000 		.4byte	.LVL10
 3832 0112 0100     		.2byte	0x1
 3833 0114 54       		.byte	0x54
 3834 0115 3C000000 		.4byte	.LVL10
 3835 0119 3F000000 		.4byte	.LVL11-1
 3836 011d 0100     		.2byte	0x1
 3837 011f 50       		.byte	0x50
 3838 0120 3F000000 		.4byte	.LVL11-1
 3839 0124 42000000 		.4byte	.LFE123
 3840 0128 0100     		.2byte	0x1
 3841 012a 54       		.byte	0x54
 3842 012b 00000000 		.4byte	0
 3843 012f 00000000 		.4byte	0
 3844              	.LLST7:
 3845 0133 00000000 		.4byte	.LVL7
 3846 0137 08000000 		.4byte	.LVL8
 3847 013b 0100     		.2byte	0x1
 3848 013d 51       		.byte	0x51
 3849 013e 08000000 		.4byte	.LVL8
 3850 0142 3C000000 		.4byte	.LVL10
 3851 0146 0400     		.2byte	0x4
 3852 0148 F3       		.byte	0xf3
 3853 0149 01       		.uleb128 0x1
 3854 014a 51       		.byte	0x51
 3855 014b 9F       		.byte	0x9f
 3856 014c 3C000000 		.4byte	.LVL10
 3857 0150 3F000000 		.4byte	.LVL11-1
 3858 0154 0100     		.2byte	0x1
 3859 0156 51       		.byte	0x51
 3860 0157 3F000000 		.4byte	.LVL11-1
 3861 015b 42000000 		.4byte	.LFE123
 3862 015f 0400     		.2byte	0x4
 3863 0161 F3       		.byte	0xf3
ARM GAS  /tmp/ccPhbTL6.s 			page 69


 3864 0162 01       		.uleb128 0x1
 3865 0163 51       		.byte	0x51
 3866 0164 9F       		.byte	0x9f
 3867 0165 00000000 		.4byte	0
 3868 0169 00000000 		.4byte	0
 3869              	.LLST8:
 3870 016d 00000000 		.4byte	.LFB122
 3871 0171 04000000 		.4byte	.LCFI3
 3872 0175 0200     		.2byte	0x2
 3873 0177 7D       		.byte	0x7d
 3874 0178 00       		.sleb128 0
 3875 0179 04000000 		.4byte	.LCFI3
 3876 017d 5E000000 		.4byte	.LFE122
 3877 0181 0200     		.2byte	0x2
 3878 0183 7D       		.byte	0x7d
 3879 0184 10       		.sleb128 16
 3880 0185 00000000 		.4byte	0
 3881 0189 00000000 		.4byte	0
 3882              	.LLST9:
 3883 018d 00000000 		.4byte	.LVL12
 3884 0191 08000000 		.4byte	.LVL13
 3885 0195 0100     		.2byte	0x1
 3886 0197 50       		.byte	0x50
 3887 0198 08000000 		.4byte	.LVL13
 3888 019c 4A000000 		.4byte	.LVL18
 3889 01a0 0100     		.2byte	0x1
 3890 01a2 54       		.byte	0x54
 3891 01a3 4A000000 		.4byte	.LVL18
 3892 01a7 4D000000 		.4byte	.LVL19-1
 3893 01ab 0100     		.2byte	0x1
 3894 01ad 50       		.byte	0x50
 3895 01ae 4D000000 		.4byte	.LVL19-1
 3896 01b2 5E000000 		.4byte	.LFE122
 3897 01b6 0100     		.2byte	0x1
 3898 01b8 54       		.byte	0x54
 3899 01b9 00000000 		.4byte	0
 3900 01bd 00000000 		.4byte	0
 3901              	.LLST10:
 3902 01c1 00000000 		.4byte	.LVL12
 3903 01c5 08000000 		.4byte	.LVL13
 3904 01c9 0100     		.2byte	0x1
 3905 01cb 51       		.byte	0x51
 3906 01cc 08000000 		.4byte	.LVL13
 3907 01d0 4A000000 		.4byte	.LVL18
 3908 01d4 0400     		.2byte	0x4
 3909 01d6 F3       		.byte	0xf3
 3910 01d7 01       		.uleb128 0x1
 3911 01d8 51       		.byte	0x51
 3912 01d9 9F       		.byte	0x9f
 3913 01da 4A000000 		.4byte	.LVL18
 3914 01de 4D000000 		.4byte	.LVL19-1
 3915 01e2 0100     		.2byte	0x1
 3916 01e4 51       		.byte	0x51
 3917 01e5 4D000000 		.4byte	.LVL19-1
 3918 01e9 5E000000 		.4byte	.LFE122
 3919 01ed 0400     		.2byte	0x4
 3920 01ef F3       		.byte	0xf3
ARM GAS  /tmp/ccPhbTL6.s 			page 70


 3921 01f0 01       		.uleb128 0x1
 3922 01f1 51       		.byte	0x51
 3923 01f2 9F       		.byte	0x9f
 3924 01f3 00000000 		.4byte	0
 3925 01f7 00000000 		.4byte	0
 3926              	.LLST11:
 3927 01fb 1C000000 		.4byte	.LVL15
 3928 01ff 48000000 		.4byte	.LVL17
 3929 0203 0100     		.2byte	0x1
 3930 0205 54       		.byte	0x54
 3931 0206 50000000 		.4byte	.LVL20
 3932 020a 5E000000 		.4byte	.LFE122
 3933 020e 0100     		.2byte	0x1
 3934 0210 54       		.byte	0x54
 3935 0211 00000000 		.4byte	0
 3936 0215 00000000 		.4byte	0
 3937              	.LLST12:
 3938 0219 00000000 		.4byte	.LFB125
 3939 021d 02000000 		.4byte	.LCFI4
 3940 0221 0200     		.2byte	0x2
 3941 0223 7D       		.byte	0x7d
 3942 0224 00       		.sleb128 0
 3943 0225 02000000 		.4byte	.LCFI4
 3944 0229 60000000 		.4byte	.LFE125
 3945 022d 0200     		.2byte	0x2
 3946 022f 7D       		.byte	0x7d
 3947 0230 10       		.sleb128 16
 3948 0231 00000000 		.4byte	0
 3949 0235 00000000 		.4byte	0
 3950              	.LLST13:
 3951 0239 06000000 		.4byte	.LVL23
 3952 023d 24000000 		.4byte	.LVL27
 3953 0241 0100     		.2byte	0x1
 3954 0243 52       		.byte	0x52
 3955 0244 24000000 		.4byte	.LVL27
 3956 0248 45000000 		.4byte	.LVL32-1
 3957 024c 0500     		.2byte	0x5
 3958 024e 03       		.byte	0x3
 3959 024f 08000000 		.4byte	UARTD1+8
 3960 0253 00000000 		.4byte	0
 3961 0257 00000000 		.4byte	0
 3962              	.LLST14:
 3963 025b 18000000 		.4byte	.LVL25
 3964 025f 46000000 		.4byte	.LVL32
 3965 0263 0100     		.2byte	0x1
 3966 0265 54       		.byte	0x54
 3967 0266 00000000 		.4byte	0
 3968 026a 00000000 		.4byte	0
 3969              	.LLST15:
 3970 026e 18000000 		.4byte	.LVL25
 3971 0272 22000000 		.4byte	.LVL26
 3972 0276 0200     		.2byte	0x2
 3973 0278 30       		.byte	0x30
 3974 0279 9F       		.byte	0x9f
 3975 027a 22000000 		.4byte	.LVL26
 3976 027e 45000000 		.4byte	.LVL32-1
 3977 0282 0100     		.2byte	0x1
ARM GAS  /tmp/ccPhbTL6.s 			page 71


 3978 0284 51       		.byte	0x51
 3979 0285 45000000 		.4byte	.LVL32-1
 3980 0289 46000000 		.4byte	.LVL32
 3981 028d 9701     		.2byte	0x197
 3982 028f 30       		.byte	0x30
 3983 0290 40       		.byte	0x40
 3984 0291 74       		.byte	0x74
 3985 0292 00       		.sleb128 0
 3986 0293 33       		.byte	0x33
 3987 0294 25       		.byte	0x25
 3988 0295 30       		.byte	0x30
 3989 0296 29       		.byte	0x29
 3990 0297 28       		.byte	0x28
 3991 0298 0100     		.2byte	0x1
 3992 029a 16       		.byte	0x16
 3993 029b 13       		.byte	0x13
 3994 029c 34       		.byte	0x34
 3995 029d 21       		.byte	0x21
 3996 029e 30       		.byte	0x30
 3997 029f 40       		.byte	0x40
 3998 02a0 74       		.byte	0x74
 3999 02a1 00       		.sleb128 0
 4000 02a2 33       		.byte	0x33
 4001 02a3 25       		.byte	0x25
 4002 02a4 30       		.byte	0x30
 4003 02a5 29       		.byte	0x29
 4004 02a6 28       		.byte	0x28
 4005 02a7 0100     		.2byte	0x1
 4006 02a9 16       		.byte	0x16
 4007 02aa 13       		.byte	0x13
 4008 02ab 74       		.byte	0x74
 4009 02ac 00       		.sleb128 0
 4010 02ad 4F       		.byte	0x4f
 4011 02ae 24       		.byte	0x24
 4012 02af 30       		.byte	0x30
 4013 02b0 2D       		.byte	0x2d
 4014 02b1 28       		.byte	0x28
 4015 02b2 0100     		.2byte	0x1
 4016 02b4 16       		.byte	0x16
 4017 02b5 13       		.byte	0x13
 4018 02b6 38       		.byte	0x38
 4019 02b7 21       		.byte	0x21
 4020 02b8 30       		.byte	0x30
 4021 02b9 40       		.byte	0x40
 4022 02ba 74       		.byte	0x74
 4023 02bb 00       		.sleb128 0
 4024 02bc 33       		.byte	0x33
 4025 02bd 25       		.byte	0x25
 4026 02be 30       		.byte	0x30
 4027 02bf 29       		.byte	0x29
 4028 02c0 28       		.byte	0x28
 4029 02c1 0100     		.2byte	0x1
 4030 02c3 16       		.byte	0x16
 4031 02c4 13       		.byte	0x13
 4032 02c5 34       		.byte	0x34
 4033 02c6 21       		.byte	0x21
 4034 02c7 30       		.byte	0x30
ARM GAS  /tmp/ccPhbTL6.s 			page 72


 4035 02c8 40       		.byte	0x40
 4036 02c9 74       		.byte	0x74
 4037 02ca 00       		.sleb128 0
 4038 02cb 33       		.byte	0x33
 4039 02cc 25       		.byte	0x25
 4040 02cd 30       		.byte	0x30
 4041 02ce 29       		.byte	0x29
 4042 02cf 28       		.byte	0x28
 4043 02d0 0100     		.2byte	0x1
 4044 02d2 16       		.byte	0x16
 4045 02d3 13       		.byte	0x13
 4046 02d4 74       		.byte	0x74
 4047 02d5 00       		.sleb128 0
 4048 02d6 4F       		.byte	0x4f
 4049 02d7 24       		.byte	0x24
 4050 02d8 30       		.byte	0x30
 4051 02d9 2D       		.byte	0x2d
 4052 02da 28       		.byte	0x28
 4053 02db 0100     		.2byte	0x1
 4054 02dd 16       		.byte	0x16
 4055 02de 13       		.byte	0x13
 4056 02df 74       		.byte	0x74
 4057 02e0 00       		.sleb128 0
 4058 02e1 4E       		.byte	0x4e
 4059 02e2 24       		.byte	0x24
 4060 02e3 30       		.byte	0x30
 4061 02e4 2D       		.byte	0x2d
 4062 02e5 28       		.byte	0x28
 4063 02e6 0100     		.2byte	0x1
 4064 02e8 16       		.byte	0x16
 4065 02e9 13       		.byte	0x13
 4066 02ea 08       		.byte	0x8
 4067 02eb 20       		.byte	0x20
 4068 02ec 21       		.byte	0x21
 4069 02ed 30       		.byte	0x30
 4070 02ee 40       		.byte	0x40
 4071 02ef 74       		.byte	0x74
 4072 02f0 00       		.sleb128 0
 4073 02f1 33       		.byte	0x33
 4074 02f2 25       		.byte	0x25
 4075 02f3 30       		.byte	0x30
 4076 02f4 29       		.byte	0x29
 4077 02f5 28       		.byte	0x28
 4078 02f6 0100     		.2byte	0x1
 4079 02f8 16       		.byte	0x16
 4080 02f9 13       		.byte	0x13
 4081 02fa 34       		.byte	0x34
 4082 02fb 21       		.byte	0x21
 4083 02fc 30       		.byte	0x30
 4084 02fd 40       		.byte	0x40
 4085 02fe 74       		.byte	0x74
 4086 02ff 00       		.sleb128 0
 4087 0300 33       		.byte	0x33
 4088 0301 25       		.byte	0x25
 4089 0302 30       		.byte	0x30
 4090 0303 29       		.byte	0x29
 4091 0304 28       		.byte	0x28
ARM GAS  /tmp/ccPhbTL6.s 			page 73


 4092 0305 0100     		.2byte	0x1
 4093 0307 16       		.byte	0x16
 4094 0308 13       		.byte	0x13
 4095 0309 74       		.byte	0x74
 4096 030a 00       		.sleb128 0
 4097 030b 4F       		.byte	0x4f
 4098 030c 24       		.byte	0x24
 4099 030d 30       		.byte	0x30
 4100 030e 2D       		.byte	0x2d
 4101 030f 28       		.byte	0x28
 4102 0310 0100     		.2byte	0x1
 4103 0312 16       		.byte	0x16
 4104 0313 13       		.byte	0x13
 4105 0314 38       		.byte	0x38
 4106 0315 21       		.byte	0x21
 4107 0316 30       		.byte	0x30
 4108 0317 40       		.byte	0x40
 4109 0318 74       		.byte	0x74
 4110 0319 00       		.sleb128 0
 4111 031a 33       		.byte	0x33
 4112 031b 25       		.byte	0x25
 4113 031c 30       		.byte	0x30
 4114 031d 29       		.byte	0x29
 4115 031e 28       		.byte	0x28
 4116 031f 0100     		.2byte	0x1
 4117 0321 16       		.byte	0x16
 4118 0322 13       		.byte	0x13
 4119 0323 34       		.byte	0x34
 4120 0324 21       		.byte	0x21
 4121 0325 30       		.byte	0x30
 4122 0326 40       		.byte	0x40
 4123 0327 74       		.byte	0x74
 4124 0328 00       		.sleb128 0
 4125 0329 33       		.byte	0x33
 4126 032a 25       		.byte	0x25
 4127 032b 30       		.byte	0x30
 4128 032c 29       		.byte	0x29
 4129 032d 28       		.byte	0x28
 4130 032e 0100     		.2byte	0x1
 4131 0330 16       		.byte	0x16
 4132 0331 13       		.byte	0x13
 4133 0332 74       		.byte	0x74
 4134 0333 00       		.sleb128 0
 4135 0334 4F       		.byte	0x4f
 4136 0335 24       		.byte	0x24
 4137 0336 30       		.byte	0x30
 4138 0337 2D       		.byte	0x2d
 4139 0338 28       		.byte	0x28
 4140 0339 0100     		.2byte	0x1
 4141 033b 16       		.byte	0x16
 4142 033c 13       		.byte	0x13
 4143 033d 74       		.byte	0x74
 4144 033e 00       		.sleb128 0
 4145 033f 4E       		.byte	0x4e
 4146 0340 24       		.byte	0x24
 4147 0341 30       		.byte	0x30
 4148 0342 2D       		.byte	0x2d
ARM GAS  /tmp/ccPhbTL6.s 			page 74


 4149 0343 28       		.byte	0x28
 4150 0344 0100     		.2byte	0x1
 4151 0346 16       		.byte	0x16
 4152 0347 13       		.byte	0x13
 4153 0348 74       		.byte	0x74
 4154 0349 00       		.sleb128 0
 4155 034a 4D       		.byte	0x4d
 4156 034b 24       		.byte	0x24
 4157 034c 30       		.byte	0x30
 4158 034d 2D       		.byte	0x2d
 4159 034e 28       		.byte	0x28
 4160 034f 0100     		.2byte	0x1
 4161 0351 16       		.byte	0x16
 4162 0352 13       		.byte	0x13
 4163 0353 08       		.byte	0x8
 4164 0354 40       		.byte	0x40
 4165 0355 21       		.byte	0x21
 4166 0356 30       		.byte	0x30
 4167 0357 40       		.byte	0x40
 4168 0358 74       		.byte	0x74
 4169 0359 00       		.sleb128 0
 4170 035a 33       		.byte	0x33
 4171 035b 25       		.byte	0x25
 4172 035c 30       		.byte	0x30
 4173 035d 29       		.byte	0x29
 4174 035e 28       		.byte	0x28
 4175 035f 0100     		.2byte	0x1
 4176 0361 16       		.byte	0x16
 4177 0362 13       		.byte	0x13
 4178 0363 34       		.byte	0x34
 4179 0364 21       		.byte	0x21
 4180 0365 30       		.byte	0x30
 4181 0366 40       		.byte	0x40
 4182 0367 74       		.byte	0x74
 4183 0368 00       		.sleb128 0
 4184 0369 33       		.byte	0x33
 4185 036a 25       		.byte	0x25
 4186 036b 30       		.byte	0x30
 4187 036c 29       		.byte	0x29
 4188 036d 28       		.byte	0x28
 4189 036e 0100     		.2byte	0x1
 4190 0370 16       		.byte	0x16
 4191 0371 13       		.byte	0x13
 4192 0372 74       		.byte	0x74
 4193 0373 00       		.sleb128 0
 4194 0374 4F       		.byte	0x4f
 4195 0375 24       		.byte	0x24
 4196 0376 30       		.byte	0x30
 4197 0377 2D       		.byte	0x2d
 4198 0378 28       		.byte	0x28
 4199 0379 0100     		.2byte	0x1
 4200 037b 16       		.byte	0x16
 4201 037c 13       		.byte	0x13
 4202 037d 38       		.byte	0x38
 4203 037e 21       		.byte	0x21
 4204 037f 30       		.byte	0x30
 4205 0380 40       		.byte	0x40
ARM GAS  /tmp/ccPhbTL6.s 			page 75


 4206 0381 74       		.byte	0x74
 4207 0382 00       		.sleb128 0
 4208 0383 33       		.byte	0x33
 4209 0384 25       		.byte	0x25
 4210 0385 30       		.byte	0x30
 4211 0386 29       		.byte	0x29
 4212 0387 28       		.byte	0x28
 4213 0388 0100     		.2byte	0x1
 4214 038a 16       		.byte	0x16
 4215 038b 13       		.byte	0x13
 4216 038c 34       		.byte	0x34
 4217 038d 21       		.byte	0x21
 4218 038e 30       		.byte	0x30
 4219 038f 40       		.byte	0x40
 4220 0390 74       		.byte	0x74
 4221 0391 00       		.sleb128 0
 4222 0392 33       		.byte	0x33
 4223 0393 25       		.byte	0x25
 4224 0394 30       		.byte	0x30
 4225 0395 29       		.byte	0x29
 4226 0396 28       		.byte	0x28
 4227 0397 0100     		.2byte	0x1
 4228 0399 16       		.byte	0x16
 4229 039a 13       		.byte	0x13
 4230 039b 74       		.byte	0x74
 4231 039c 00       		.sleb128 0
 4232 039d 4F       		.byte	0x4f
 4233 039e 24       		.byte	0x24
 4234 039f 30       		.byte	0x30
 4235 03a0 2D       		.byte	0x2d
 4236 03a1 28       		.byte	0x28
 4237 03a2 0100     		.2byte	0x1
 4238 03a4 16       		.byte	0x16
 4239 03a5 13       		.byte	0x13
 4240 03a6 74       		.byte	0x74
 4241 03a7 00       		.sleb128 0
 4242 03a8 4E       		.byte	0x4e
 4243 03a9 24       		.byte	0x24
 4244 03aa 30       		.byte	0x30
 4245 03ab 2D       		.byte	0x2d
 4246 03ac 28       		.byte	0x28
 4247 03ad 0100     		.2byte	0x1
 4248 03af 16       		.byte	0x16
 4249 03b0 13       		.byte	0x13
 4250 03b1 08       		.byte	0x8
 4251 03b2 20       		.byte	0x20
 4252 03b3 21       		.byte	0x21
 4253 03b4 30       		.byte	0x30
 4254 03b5 40       		.byte	0x40
 4255 03b6 74       		.byte	0x74
 4256 03b7 00       		.sleb128 0
 4257 03b8 33       		.byte	0x33
 4258 03b9 25       		.byte	0x25
 4259 03ba 30       		.byte	0x30
 4260 03bb 29       		.byte	0x29
 4261 03bc 28       		.byte	0x28
 4262 03bd 0100     		.2byte	0x1
ARM GAS  /tmp/ccPhbTL6.s 			page 76


 4263 03bf 16       		.byte	0x16
 4264 03c0 13       		.byte	0x13
 4265 03c1 34       		.byte	0x34
 4266 03c2 21       		.byte	0x21
 4267 03c3 30       		.byte	0x30
 4268 03c4 40       		.byte	0x40
 4269 03c5 74       		.byte	0x74
 4270 03c6 00       		.sleb128 0
 4271 03c7 33       		.byte	0x33
 4272 03c8 25       		.byte	0x25
 4273 03c9 30       		.byte	0x30
 4274 03ca 29       		.byte	0x29
 4275 03cb 28       		.byte	0x28
 4276 03cc 0100     		.2byte	0x1
 4277 03ce 16       		.byte	0x16
 4278 03cf 13       		.byte	0x13
 4279 03d0 74       		.byte	0x74
 4280 03d1 00       		.sleb128 0
 4281 03d2 4F       		.byte	0x4f
 4282 03d3 24       		.byte	0x24
 4283 03d4 30       		.byte	0x30
 4284 03d5 2D       		.byte	0x2d
 4285 03d6 28       		.byte	0x28
 4286 03d7 0100     		.2byte	0x1
 4287 03d9 16       		.byte	0x16
 4288 03da 13       		.byte	0x13
 4289 03db 38       		.byte	0x38
 4290 03dc 21       		.byte	0x21
 4291 03dd 30       		.byte	0x30
 4292 03de 40       		.byte	0x40
 4293 03df 74       		.byte	0x74
 4294 03e0 00       		.sleb128 0
 4295 03e1 33       		.byte	0x33
 4296 03e2 25       		.byte	0x25
 4297 03e3 30       		.byte	0x30
 4298 03e4 29       		.byte	0x29
 4299 03e5 28       		.byte	0x28
 4300 03e6 0100     		.2byte	0x1
 4301 03e8 16       		.byte	0x16
 4302 03e9 13       		.byte	0x13
 4303 03ea 34       		.byte	0x34
 4304 03eb 21       		.byte	0x21
 4305 03ec 30       		.byte	0x30
 4306 03ed 40       		.byte	0x40
 4307 03ee 74       		.byte	0x74
 4308 03ef 00       		.sleb128 0
 4309 03f0 33       		.byte	0x33
 4310 03f1 25       		.byte	0x25
 4311 03f2 30       		.byte	0x30
 4312 03f3 29       		.byte	0x29
 4313 03f4 28       		.byte	0x28
 4314 03f5 0100     		.2byte	0x1
 4315 03f7 16       		.byte	0x16
 4316 03f8 13       		.byte	0x13
 4317 03f9 74       		.byte	0x74
 4318 03fa 00       		.sleb128 0
 4319 03fb 4F       		.byte	0x4f
ARM GAS  /tmp/ccPhbTL6.s 			page 77


 4320 03fc 24       		.byte	0x24
 4321 03fd 30       		.byte	0x30
 4322 03fe 2D       		.byte	0x2d
 4323 03ff 28       		.byte	0x28
 4324 0400 0100     		.2byte	0x1
 4325 0402 16       		.byte	0x16
 4326 0403 13       		.byte	0x13
 4327 0404 74       		.byte	0x74
 4328 0405 00       		.sleb128 0
 4329 0406 4E       		.byte	0x4e
 4330 0407 24       		.byte	0x24
 4331 0408 30       		.byte	0x30
 4332 0409 2D       		.byte	0x2d
 4333 040a 28       		.byte	0x28
 4334 040b 0100     		.2byte	0x1
 4335 040d 16       		.byte	0x16
 4336 040e 13       		.byte	0x13
 4337 040f 74       		.byte	0x74
 4338 0410 00       		.sleb128 0
 4339 0411 4D       		.byte	0x4d
 4340 0412 24       		.byte	0x24
 4341 0413 30       		.byte	0x30
 4342 0414 2D       		.byte	0x2d
 4343 0415 28       		.byte	0x28
 4344 0416 0100     		.2byte	0x1
 4345 0418 16       		.byte	0x16
 4346 0419 13       		.byte	0x13
 4347 041a 74       		.byte	0x74
 4348 041b 00       		.sleb128 0
 4349 041c 47       		.byte	0x47
 4350 041d 24       		.byte	0x24
 4351 041e 30       		.byte	0x30
 4352 041f 2D       		.byte	0x2d
 4353 0420 28       		.byte	0x28
 4354 0421 0100     		.2byte	0x1
 4355 0423 16       		.byte	0x16
 4356 0424 13       		.byte	0x13
 4357 0425 9F       		.byte	0x9f
 4358 0426 00000000 		.4byte	0
 4359 042a 00000000 		.4byte	0
 4360              	.LLST16:
 4361 042e 00000000 		.4byte	.LFB126
 4362 0432 02000000 		.4byte	.LCFI5
 4363 0436 0200     		.2byte	0x2
 4364 0438 7D       		.byte	0x7d
 4365 0439 00       		.sleb128 0
 4366 043a 02000000 		.4byte	.LCFI5
 4367 043e 30000000 		.4byte	.LFE126
 4368 0442 0200     		.2byte	0x2
 4369 0444 7D       		.byte	0x7d
 4370 0445 08       		.sleb128 8
 4371 0446 00000000 		.4byte	0
 4372 044a 00000000 		.4byte	0
 4373              	.LLST17:
 4374 044e 00000000 		.4byte	.LFB127
 4375 0452 02000000 		.4byte	.LCFI6
 4376 0456 0200     		.2byte	0x2
ARM GAS  /tmp/ccPhbTL6.s 			page 78


 4377 0458 7D       		.byte	0x7d
 4378 0459 00       		.sleb128 0
 4379 045a 02000000 		.4byte	.LCFI6
 4380 045e DC000000 		.4byte	.LFE127
 4381 0462 0200     		.2byte	0x2
 4382 0464 7D       		.byte	0x7d
 4383 0465 18       		.sleb128 24
 4384 0466 00000000 		.4byte	0
 4385 046a 00000000 		.4byte	0
 4386              	.LLST18:
 4387 046e 00000000 		.4byte	.LVL36
 4388 0472 0C000000 		.4byte	.LVL37
 4389 0476 0100     		.2byte	0x1
 4390 0478 50       		.byte	0x50
 4391 0479 0C000000 		.4byte	.LVL37
 4392 047d 64000000 		.4byte	.LVL42
 4393 0481 0100     		.2byte	0x1
 4394 0483 54       		.byte	0x54
 4395 0484 64000000 		.4byte	.LVL42
 4396 0488 66000000 		.4byte	.LVL43
 4397 048c 0100     		.2byte	0x1
 4398 048e 50       		.byte	0x50
 4399 048f 66000000 		.4byte	.LVL43
 4400 0493 DC000000 		.4byte	.LFE127
 4401 0497 0100     		.2byte	0x1
 4402 0499 54       		.byte	0x54
 4403 049a 00000000 		.4byte	0
 4404 049e 00000000 		.4byte	0
 4405              	.LLST19:
 4406 04a2 12000000 		.4byte	.LVL38
 4407 04a6 64000000 		.4byte	.LVL42
 4408 04aa 0100     		.2byte	0x1
 4409 04ac 54       		.byte	0x54
 4410 04ad 00000000 		.4byte	0
 4411 04b1 00000000 		.4byte	0
 4412              	.LLST20:
 4413 04b5 44000000 		.4byte	.LVL40
 4414 04b9 46000000 		.4byte	.LVL41
 4415 04bd 0100     		.2byte	0x1
 4416 04bf 53       		.byte	0x53
 4417 04c0 46000000 		.4byte	.LVL41
 4418 04c4 64000000 		.4byte	.LVL42
 4419 04c8 0F00     		.2byte	0xf
 4420 04ca 0A       		.byte	0xa
 4421 04cb 4D01     		.2byte	0x14d
 4422 04cd 76       		.byte	0x76
 4423 04ce 00       		.sleb128 0
 4424 04cf 77       		.byte	0x77
 4425 04d0 00       		.sleb128 0
 4426 04d1 30       		.byte	0x30
 4427 04d2 2E       		.byte	0x2e
 4428 04d3 28       		.byte	0x28
 4429 04d4 0100     		.2byte	0x1
 4430 04d6 16       		.byte	0x16
 4431 04d7 13       		.byte	0x13
 4432 04d8 9F       		.byte	0x9f
 4433 04d9 00000000 		.4byte	0
ARM GAS  /tmp/ccPhbTL6.s 			page 79


 4434 04dd 00000000 		.4byte	0
 4435              	.LLST21:
 4436 04e1 12000000 		.4byte	.LVL38
 4437 04e5 64000000 		.4byte	.LVL42
 4438 04e9 0100     		.2byte	0x1
 4439 04eb 55       		.byte	0x55
 4440 04ec 00000000 		.4byte	0
 4441 04f0 00000000 		.4byte	0
 4442              	.LLST22:
 4443 04f4 00000000 		.4byte	.LFB128
 4444 04f8 06000000 		.4byte	.LCFI7
 4445 04fc 0200     		.2byte	0x2
 4446 04fe 7D       		.byte	0x7d
 4447 04ff 00       		.sleb128 0
 4448 0500 06000000 		.4byte	.LCFI7
 4449 0504 40000000 		.4byte	.LFE128
 4450 0508 0200     		.2byte	0x2
 4451 050a 7D       		.byte	0x7d
 4452 050b 08       		.sleb128 8
 4453 050c 00000000 		.4byte	0
 4454 0510 00000000 		.4byte	0
 4455              	.LLST23:
 4456 0514 00000000 		.4byte	.LVL47
 4457 0518 0A000000 		.4byte	.LVL48
 4458 051c 0100     		.2byte	0x1
 4459 051e 50       		.byte	0x50
 4460 051f 0A000000 		.4byte	.LVL48
 4461 0523 0C000000 		.4byte	.LVL49
 4462 0527 0100     		.2byte	0x1
 4463 0529 54       		.byte	0x54
 4464 052a 0C000000 		.4byte	.LVL49
 4465 052e 0F000000 		.4byte	.LVL50-1
 4466 0532 0100     		.2byte	0x1
 4467 0534 50       		.byte	0x50
 4468 0535 0F000000 		.4byte	.LVL50-1
 4469 0539 40000000 		.4byte	.LFE128
 4470 053d 0100     		.2byte	0x1
 4471 053f 54       		.byte	0x54
 4472 0540 00000000 		.4byte	0
 4473 0544 00000000 		.4byte	0
 4474              	.LLST24:
 4475 0548 00000000 		.4byte	.LVL54
 4476 054c 04000000 		.4byte	.LVL55
 4477 0550 0100     		.2byte	0x1
 4478 0552 50       		.byte	0x50
 4479 0553 04000000 		.4byte	.LVL55
 4480 0557 1A000000 		.4byte	.LFE129
 4481 055b 0400     		.2byte	0x4
 4482 055d F3       		.byte	0xf3
 4483 055e 01       		.uleb128 0x1
 4484 055f 50       		.byte	0x50
 4485 0560 9F       		.byte	0x9f
 4486 0561 00000000 		.4byte	0
 4487 0565 00000000 		.4byte	0
 4488              	.LLST25:
 4489 0569 00000000 		.4byte	.LVL54
 4490 056d 16000000 		.4byte	.LVL57
ARM GAS  /tmp/ccPhbTL6.s 			page 80


 4491 0571 0100     		.2byte	0x1
 4492 0573 51       		.byte	0x51
 4493 0574 16000000 		.4byte	.LVL57
 4494 0578 1A000000 		.4byte	.LFE129
 4495 057c 0200     		.2byte	0x2
 4496 057e 73       		.byte	0x73
 4497 057f 04       		.sleb128 4
 4498 0580 00000000 		.4byte	0
 4499 0584 00000000 		.4byte	0
 4500              	.LLST26:
 4501 0588 00000000 		.4byte	.LVL54
 4502 058c 12000000 		.4byte	.LVL56
 4503 0590 0100     		.2byte	0x1
 4504 0592 52       		.byte	0x52
 4505 0593 12000000 		.4byte	.LVL56
 4506 0597 1A000000 		.4byte	.LFE129
 4507 059b 0200     		.2byte	0x2
 4508 059d 73       		.byte	0x73
 4509 059e 0C       		.sleb128 12
 4510 059f 00000000 		.4byte	0
 4511 05a3 00000000 		.4byte	0
 4512              	.LLST27:
 4513 05a7 00000000 		.4byte	.LVL58
 4514 05ab 08000000 		.4byte	.LVL59
 4515 05af 0100     		.2byte	0x1
 4516 05b1 50       		.byte	0x50
 4517 05b2 08000000 		.4byte	.LVL59
 4518 05b6 1C000000 		.4byte	.LFE130
 4519 05ba 0400     		.2byte	0x4
 4520 05bc F3       		.byte	0xf3
 4521 05bd 01       		.uleb128 0x1
 4522 05be 50       		.byte	0x50
 4523 05bf 9F       		.byte	0x9f
 4524 05c0 00000000 		.4byte	0
 4525 05c4 00000000 		.4byte	0
 4526              	.LLST28:
 4527 05c8 00000000 		.4byte	.LFB131
 4528 05cc 02000000 		.4byte	.LCFI8
 4529 05d0 0200     		.2byte	0x2
 4530 05d2 7D       		.byte	0x7d
 4531 05d3 00       		.sleb128 0
 4532 05d4 02000000 		.4byte	.LCFI8
 4533 05d8 32000000 		.4byte	.LFE131
 4534 05dc 0200     		.2byte	0x2
 4535 05de 7D       		.byte	0x7d
 4536 05df 0C       		.sleb128 12
 4537 05e0 00000000 		.4byte	0
 4538 05e4 00000000 		.4byte	0
 4539              	.LLST29:
 4540 05e8 00000000 		.4byte	.LVL60
 4541 05ec 1C000000 		.4byte	.LVL61
 4542 05f0 0100     		.2byte	0x1
 4543 05f2 50       		.byte	0x50
 4544 05f3 1C000000 		.4byte	.LVL61
 4545 05f7 32000000 		.4byte	.LFE131
 4546 05fb 0400     		.2byte	0x4
 4547 05fd F3       		.byte	0xf3
ARM GAS  /tmp/ccPhbTL6.s 			page 81


 4548 05fe 01       		.uleb128 0x1
 4549 05ff 50       		.byte	0x50
 4550 0600 9F       		.byte	0x9f
 4551 0601 00000000 		.4byte	0
 4552 0605 00000000 		.4byte	0
 4553              	.LLST30:
 4554 0609 00000000 		.4byte	.LVL60
 4555 060d 2C000000 		.4byte	.LVL63
 4556 0611 0100     		.2byte	0x1
 4557 0613 51       		.byte	0x51
 4558 0614 2C000000 		.4byte	.LVL63
 4559 0618 32000000 		.4byte	.LFE131
 4560 061c 0200     		.2byte	0x2
 4561 061e 73       		.byte	0x73
 4562 061f 04       		.sleb128 4
 4563 0620 00000000 		.4byte	0
 4564 0624 00000000 		.4byte	0
 4565              	.LLST31:
 4566 0628 00000000 		.4byte	.LVL60
 4567 062c 28000000 		.4byte	.LVL62
 4568 0630 0100     		.2byte	0x1
 4569 0632 52       		.byte	0x52
 4570 0633 28000000 		.4byte	.LVL62
 4571 0637 32000000 		.4byte	.LFE131
 4572 063b 0200     		.2byte	0x2
 4573 063d 73       		.byte	0x73
 4574 063e 0C       		.sleb128 12
 4575 063f 00000000 		.4byte	0
 4576 0643 00000000 		.4byte	0
 4577              	.LLST32:
 4578 0647 00000000 		.4byte	.LFB132
 4579 064b 08000000 		.4byte	.LCFI9
 4580 064f 0200     		.2byte	0x2
 4581 0651 7D       		.byte	0x7d
 4582 0652 00       		.sleb128 0
 4583 0653 08000000 		.4byte	.LCFI9
 4584 0657 24000000 		.4byte	.LFE132
 4585 065b 0200     		.2byte	0x2
 4586 065d 7D       		.byte	0x7d
 4587 065e 08       		.sleb128 8
 4588 065f 00000000 		.4byte	0
 4589 0663 00000000 		.4byte	0
 4590              	.LLST33:
 4591 0667 00000000 		.4byte	.LVL64
 4592 066b 1F000000 		.4byte	.LVL66-1
 4593 066f 0100     		.2byte	0x1
 4594 0671 50       		.byte	0x50
 4595 0672 1F000000 		.4byte	.LVL66-1
 4596 0676 24000000 		.4byte	.LFE132
 4597 067a 0400     		.2byte	0x4
 4598 067c F3       		.byte	0xf3
 4599 067d 01       		.uleb128 0x1
 4600 067e 50       		.byte	0x50
 4601 067f 9F       		.byte	0x9f
 4602 0680 00000000 		.4byte	0
 4603 0684 00000000 		.4byte	0
 4604              		.section	.debug_aranges,"",%progbits
ARM GAS  /tmp/ccPhbTL6.s 			page 82


 4605 0000 74000000 		.4byte	0x74
 4606 0004 0200     		.2byte	0x2
 4607 0006 00000000 		.4byte	.Ldebug_info0
 4608 000a 04       		.byte	0x4
 4609 000b 00       		.byte	0
 4610 000c 0000     		.2byte	0
 4611 000e 0000     		.2byte	0
 4612 0010 00000000 		.4byte	.LFB119
 4613 0014 2C000000 		.4byte	.LFE119-.LFB119
 4614 0018 00000000 		.4byte	.LFB120
 4615 001c 46000000 		.4byte	.LFE120-.LFB120
 4616 0020 00000000 		.4byte	.LFB123
 4617 0024 42000000 		.4byte	.LFE123-.LFB123
 4618 0028 00000000 		.4byte	.LFB122
 4619 002c 5E000000 		.4byte	.LFE122-.LFB122
 4620 0030 00000000 		.4byte	.LFB125
 4621 0034 60000000 		.4byte	.LFE125-.LFB125
 4622 0038 00000000 		.4byte	.LFB126
 4623 003c 30000000 		.4byte	.LFE126-.LFB126
 4624 0040 00000000 		.4byte	.LFB127
 4625 0044 DC000000 		.4byte	.LFE127-.LFB127
 4626 0048 00000000 		.4byte	.LFB128
 4627 004c 40000000 		.4byte	.LFE128-.LFB128
 4628 0050 00000000 		.4byte	.LFB129
 4629 0054 1A000000 		.4byte	.LFE129-.LFB129
 4630 0058 00000000 		.4byte	.LFB130
 4631 005c 1C000000 		.4byte	.LFE130-.LFB130
 4632 0060 00000000 		.4byte	.LFB131
 4633 0064 32000000 		.4byte	.LFE131-.LFB131
 4634 0068 00000000 		.4byte	.LFB132
 4635 006c 24000000 		.4byte	.LFE132-.LFB132
 4636 0070 00000000 		.4byte	0
 4637 0074 00000000 		.4byte	0
 4638              		.section	.debug_ranges,"",%progbits
 4639              	.Ldebug_ranges0:
 4640 0000 1C000000 		.4byte	.LBB4
 4641 0004 4A000000 		.4byte	.LBE4
 4642 0008 50000000 		.4byte	.LBB8
 4643 000c 56000000 		.4byte	.LBE8
 4644 0010 5A000000 		.4byte	.LBB9
 4645 0014 5E000000 		.4byte	.LBE9
 4646 0018 00000000 		.4byte	0
 4647 001c 00000000 		.4byte	0
 4648 0020 1C000000 		.4byte	.LBB5
 4649 0024 4A000000 		.4byte	.LBE5
 4650 0028 50000000 		.4byte	.LBB6
 4651 002c 56000000 		.4byte	.LBE6
 4652 0030 5A000000 		.4byte	.LBB7
 4653 0034 5E000000 		.4byte	.LBE7
 4654 0038 00000000 		.4byte	0
 4655 003c 00000000 		.4byte	0
 4656 0040 12000000 		.4byte	.LBB21
 4657 0044 5C000000 		.4byte	.LBE21
 4658 0048 60000000 		.4byte	.LBB24
 4659 004c 64000000 		.4byte	.LBE24
 4660 0050 00000000 		.4byte	0
 4661 0054 00000000 		.4byte	0
ARM GAS  /tmp/ccPhbTL6.s 			page 83


 4662 0058 12000000 		.4byte	.LBB22
 4663 005c 5C000000 		.4byte	.LBE22
 4664 0060 60000000 		.4byte	.LBB23
 4665 0064 64000000 		.4byte	.LBE23
 4666 0068 00000000 		.4byte	0
 4667 006c 00000000 		.4byte	0
 4668 0070 00000000 		.4byte	.LFB119
 4669 0074 2C000000 		.4byte	.LFE119
 4670 0078 00000000 		.4byte	.LFB120
 4671 007c 46000000 		.4byte	.LFE120
 4672 0080 00000000 		.4byte	.LFB123
 4673 0084 42000000 		.4byte	.LFE123
 4674 0088 00000000 		.4byte	.LFB122
 4675 008c 5E000000 		.4byte	.LFE122
 4676 0090 00000000 		.4byte	.LFB125
 4677 0094 60000000 		.4byte	.LFE125
 4678 0098 00000000 		.4byte	.LFB126
 4679 009c 30000000 		.4byte	.LFE126
 4680 00a0 00000000 		.4byte	.LFB127
 4681 00a4 DC000000 		.4byte	.LFE127
 4682 00a8 00000000 		.4byte	.LFB128
 4683 00ac 40000000 		.4byte	.LFE128
 4684 00b0 00000000 		.4byte	.LFB129
 4685 00b4 1A000000 		.4byte	.LFE129
 4686 00b8 00000000 		.4byte	.LFB130
 4687 00bc 1C000000 		.4byte	.LFE130
 4688 00c0 00000000 		.4byte	.LFB131
 4689 00c4 32000000 		.4byte	.LFE131
 4690 00c8 00000000 		.4byte	.LFB132
 4691 00cc 24000000 		.4byte	.LFE132
 4692 00d0 00000000 		.4byte	0
 4693 00d4 00000000 		.4byte	0
 4694              		.section	.debug_line,"",%progbits
 4695              	.Ldebug_line0:
 4696 0000 CF030000 		.section	.debug_str,"MS",%progbits,1
 4696      02002902 
 4696      00000201 
 4696      FB0E0D00 
 4696      01010101 
 4697              	.LASF95:
 4698 0000 75617274 		.ascii	"uart_lld_start_receive\000"
 4698      5F6C6C64 
 4698      5F737461 
 4698      72745F72 
 4698      65636569 
 4699              	.LASF109:
 4700 0017 2F686F6D 		.ascii	"/home/joerg/repos/OpenBLDC/kjellhar/bldc-strip/\000"
 4700      652F6A6F 
 4700      6572672F 
 4700      7265706F 
 4700      732F4F70 
 4701              	.LASF60:
 4702 0047 75617274 		.ascii	"uartflags_t\000"
 4702      666C6167 
 4702      735F7400 
 4703              	.LASF57:
 4704 0053 55415254 		.ascii	"UART_RX_ACTIVE\000"
ARM GAS  /tmp/ccPhbTL6.s 			page 84


 4704      5F52585F 
 4704      41435449 
 4704      564500
 4705              	.LASF89:
 4706 0062 75617274 		.ascii	"uart_lld_init\000"
 4706      5F6C6C64 
 4706      5F696E69 
 4706      7400
 4707              	.LASF2:
 4708 0070 73697A65 		.ascii	"size_t\000"
 4708      5F7400
 4709              	.LASF77:
 4710 0077 72786368 		.ascii	"rxchar_cb\000"
 4710      61725F63 
 4710      6200
 4711              	.LASF67:
 4712 0081 646D616D 		.ascii	"dmamode\000"
 4712      6F646500 
 4713              	.LASF104:
 4714 0089 75617274 		.ascii	"uartObjectInit\000"
 4714      4F626A65 
 4714      6374496E 
 4714      697400
 4715              	.LASF70:
 4716 0098 72786275 		.ascii	"rxbuf\000"
 4716      6600
 4717              	.LASF68:
 4718 009e 646D6172 		.ascii	"dmarx\000"
 4718      7800
 4719              	.LASF86:
 4720 00a4 75736172 		.ascii	"usart_stop\000"
 4720      745F7374 
 4720      6F7000
 4721              	.LASF13:
 4722 00af 6C6F6E67 		.ascii	"long long unsigned int\000"
 4722      206C6F6E 
 4722      6720756E 
 4722      7369676E 
 4722      65642069 
 4723              	.LASF72:
 4724 00c6 75617274 		.ascii	"uartccb_t\000"
 4724      6363625F 
 4724      7400
 4725              	.LASF45:
 4726 00d0 76656374 		.ascii	"vector\000"
 4726      6F7200
 4727              	.LASF100:
 4728 00d7 5F73746D 		.ascii	"_stm32_dma_streams\000"
 4728      33325F64 
 4728      6D615F73 
 4728      74726561 
 4728      6D7300
 4729              	.LASF80:
 4730 00ea 55415254 		.ascii	"UARTConfig\000"
 4730      436F6E66 
 4730      696700
 4731              	.LASF99:
ARM GAS  /tmp/ccPhbTL6.s 			page 85


 4732 00f5 49544D5F 		.ascii	"ITM_RxBuffer\000"
 4732      52784275 
 4732      66666572 
 4732      00
 4733              	.LASF14:
 4734 0102 626F6F6C 		.ascii	"bool_t\000"
 4734      5F7400
 4735              	.LASF105:
 4736 0109 6E766963 		.ascii	"nvicEnableVector\000"
 4736      456E6162 
 4736      6C655665 
 4736      63746F72 
 4736      00
 4737              	.LASF97:
 4738 011a 75617274 		.ascii	"uart_lld_stop_receive\000"
 4738      5F6C6C64 
 4738      5F73746F 
 4738      705F7265 
 4738      63656976 
 4739              	.LASF12:
 4740 0130 6C6F6E67 		.ascii	"long long int\000"
 4740      206C6F6E 
 4740      6720696E 
 4740      7400
 4741              	.LASF1:
 4742 013e 7369676E 		.ascii	"signed char\000"
 4742      65642063 
 4742      68617200 
 4743              	.LASF71:
 4744 014a 75617274 		.ascii	"uartcb_t\000"
 4744      63625F74 
 4744      00
 4745              	.LASF34:
 4746 0153 47545052 		.ascii	"GTPR\000"
 4746      00
 4747              	.LASF64:
 4748 0158 72787374 		.ascii	"rxstate\000"
 4748      61746500 
 4749              	.LASF107:
 4750 0160 474E5520 		.ascii	"GNU C 4.7.4 20130913 (release) [ARM/embedded-4_7-br"
 4750      4320342E 
 4750      372E3420 
 4750      32303133 
 4750      30393133 
 4751 0193 616E6368 		.ascii	"anch revision 202601]\000"
 4751      20726576 
 4751      6973696F 
 4751      6E203230 
 4751      32363031 
 4752              	.LASF47:
 4753 01a9 73746D33 		.ascii	"stm32_dmaisr_t\000"
 4753      325F646D 
 4753      61697372 
 4753      5F7400
 4754              	.LASF62:
 4755 01b8 73746174 		.ascii	"state\000"
 4755      6500
ARM GAS  /tmp/ccPhbTL6.s 			page 86


 4756              	.LASF63:
 4757 01be 74787374 		.ascii	"txstate\000"
 4757      61746500 
 4758              	.LASF9:
 4759 01c6 6C6F6E67 		.ascii	"long int\000"
 4759      20696E74 
 4759      00
 4760              	.LASF23:
 4761 01cf 41504232 		.ascii	"APB2RSTR\000"
 4761      52535452 
 4761      00
 4762              	.LASF6:
 4763 01d8 75696E74 		.ascii	"uint16_t\000"
 4763      31365F74 
 4763      00
 4764              	.LASF102:
 4765 01e1 706F7274 		.ascii	"port_halt\000"
 4765      5F68616C 
 4765      7400
 4766              	.LASF59:
 4767 01eb 75617274 		.ascii	"uartrxstate_t\000"
 4767      72787374 
 4767      6174655F 
 4767      7400
 4768              	.LASF69:
 4769 01f9 646D6174 		.ascii	"dmatx\000"
 4769      7800
 4770              	.LASF91:
 4771 01ff 75617274 		.ascii	"uart_lld_start\000"
 4771      5F6C6C64 
 4771      5F737461 
 4771      727400
 4772              	.LASF61:
 4773 020e 55415254 		.ascii	"UARTDriver\000"
 4773      44726976 
 4773      657200
 4774              	.LASF44:
 4775 0219 73656C66 		.ascii	"selfindex\000"
 4775      696E6465 
 4775      7800
 4776              	.LASF85:
 4777 0223 7365745F 		.ascii	"set_rx_idle_loop\000"
 4777      72785F69 
 4777      646C655F 
 4777      6C6F6F70 
 4777      00
 4778              	.LASF50:
 4779 0234 55415254 		.ascii	"UART_READY\000"
 4779      5F524541 
 4779      445900
 4780              	.LASF53:
 4781 023f 55415254 		.ascii	"UART_TX_ACTIVE\000"
 4781      5F54585F 
 4781      41435449 
 4781      564500
 4782              	.LASF66:
 4783 024e 75736172 		.ascii	"usart\000"
ARM GAS  /tmp/ccPhbTL6.s 			page 87


 4783      7400
 4784              	.LASF0:
 4785 0254 756E7369 		.ascii	"unsigned int\000"
 4785      676E6564 
 4785      20696E74 
 4785      00
 4786              	.LASF94:
 4787 0261 74786275 		.ascii	"txbuf\000"
 4787      6600
 4788              	.LASF112:
 4789 0267 6E766963 		.ascii	"nvicDisableVector\000"
 4789      44697361 
 4789      626C6556 
 4789      6563746F 
 4789      7200
 4790              	.LASF19:
 4791 0279 43504152 		.ascii	"CPAR\000"
 4791      00
 4792              	.LASF96:
 4793 027e 75617274 		.ascii	"uart_lld_stop_send\000"
 4793      5F6C6C64 
 4793      5F73746F 
 4793      705F7365 
 4793      6E6400
 4794              	.LASF11:
 4795 0291 6C6F6E67 		.ascii	"long unsigned int\000"
 4795      20756E73 
 4795      69676E65 
 4795      6420696E 
 4795      7400
 4796              	.LASF73:
 4797 02a3 75617274 		.ascii	"uartecb_t\000"
 4797      6563625F 
 4797      7400
 4798              	.LASF32:
 4799 02ad 5243435F 		.ascii	"RCC_TypeDef\000"
 4799      54797065 
 4799      44656600 
 4800              	.LASF21:
 4801 02b9 444D415F 		.ascii	"DMA_Channel_TypeDef\000"
 4801      4368616E 
 4801      6E656C5F 
 4801      54797065 
 4801      44656600 
 4802              	.LASF43:
 4803 02cd 69736869 		.ascii	"ishift\000"
 4803      667400
 4804              	.LASF7:
 4805 02d4 73686F72 		.ascii	"short unsigned int\000"
 4805      7420756E 
 4805      7369676E 
 4805      65642069 
 4805      6E7400
 4806              	.LASF48:
 4807 02e7 55415254 		.ascii	"UART_UNINIT\000"
 4807      5F554E49 
 4807      4E495400 
ARM GAS  /tmp/ccPhbTL6.s 			page 88


 4808              	.LASF49:
 4809 02f3 55415254 		.ascii	"UART_STOP\000"
 4809      5F53544F 
 4809      5000
 4810              	.LASF103:
 4811 02fd 5F706F72 		.ascii	"_port_irq_epilogue\000"
 4811      745F6972 
 4811      715F6570 
 4811      696C6F67 
 4811      756500
 4812              	.LASF40:
 4813 0310 55534152 		.ascii	"USART_TypeDef\000"
 4813      545F5479 
 4813      70654465 
 4813      6600
 4814              	.LASF88:
 4815 031e 56656374 		.ascii	"VectorD4\000"
 4815      6F724434 
 4815      00
 4816              	.LASF20:
 4817 0327 434D4152 		.ascii	"CMAR\000"
 4817      00
 4818              	.LASF84:
 4819 032c 73657276 		.ascii	"serve_usart_irq\000"
 4819      655F7573 
 4819      6172745F 
 4819      69727100 
 4820              	.LASF81:
 4821 033c 75617274 		.ascii	"uartp\000"
 4821      7000
 4822              	.LASF16:
 4823 0342 73697A65 		.ascii	"sizetype\000"
 4823      74797065 
 4823      00
 4824              	.LASF110:
 4825 034b 7472616E 		.ascii	"translate_errors\000"
 4825      736C6174 
 4825      655F6572 
 4825      726F7273 
 4825      00
 4826              	.LASF58:
 4827 035c 55415254 		.ascii	"UART_RX_COMPLETE\000"
 4827      5F52585F 
 4827      434F4D50 
 4827      4C455445 
 4827      00
 4828              	.LASF78:
 4829 036d 72786572 		.ascii	"rxerr_cb\000"
 4829      725F6362 
 4829      00
 4830              	.LASF87:
 4831 0376 75617274 		.ascii	"uart_lld_serve_tx_end_irq\000"
 4831      5F6C6C64 
 4831      5F736572 
 4831      76655F74 
 4831      785F656E 
 4832              	.LASF76:
ARM GAS  /tmp/ccPhbTL6.s 			page 89


 4833 0390 7278656E 		.ascii	"rxend_cb\000"
 4833      645F6362 
 4833      00
 4834              	.LASF55:
 4835 0399 75617274 		.ascii	"uarttxstate_t\000"
 4835      74787374 
 4835      6174655F 
 4835      7400
 4836              	.LASF29:
 4837 03a7 41484252 		.ascii	"AHBRSTR\000"
 4837      53545200 
 4838              	.LASF24:
 4839 03af 41504231 		.ascii	"APB1RSTR\000"
 4839      52535452 
 4839      00
 4840              	.LASF33:
 4841 03b8 52455345 		.ascii	"RESERVED1\000"
 4841      52564544 
 4841      3100
 4842              	.LASF35:
 4843 03c2 52455345 		.ascii	"RESERVED2\000"
 4843      52564544 
 4843      3200
 4844              	.LASF37:
 4845 03cc 52455345 		.ascii	"RESERVED3\000"
 4845      52564544 
 4845      3300
 4846              	.LASF38:
 4847 03d6 52455345 		.ascii	"RESERVED4\000"
 4847      52564544 
 4847      3400
 4848              	.LASF39:
 4849 03e0 52455345 		.ascii	"RESERVED5\000"
 4849      52564544 
 4849      3500
 4850              	.LASF46:
 4851 03ea 73746D33 		.ascii	"stm32_dma_stream_t\000"
 4851      325F646D 
 4851      615F7374 
 4851      7265616D 
 4851      5F7400
 4852              	.LASF75:
 4853 03fd 7478656E 		.ascii	"txend2_cb\000"
 4853      64325F63 
 4853      6200
 4854              	.LASF15:
 4855 0407 5F426F6F 		.ascii	"_Bool\000"
 4855      6C00
 4856              	.LASF8:
 4857 040d 696E7433 		.ascii	"int32_t\000"
 4857      325F7400 
 4858              	.LASF4:
 4859 0415 756E7369 		.ascii	"unsigned char\000"
 4859      676E6564 
 4859      20636861 
 4859      7200
 4860              	.LASF5:
ARM GAS  /tmp/ccPhbTL6.s 			page 90


 4861 0423 73686F72 		.ascii	"short int\000"
 4861      7420696E 
 4861      7400
 4862              	.LASF51:
 4863 042d 75617274 		.ascii	"uartstate_t\000"
 4863      73746174 
 4863      655F7400 
 4864              	.LASF26:
 4865 0439 41504232 		.ascii	"APB2ENR\000"
 4865      454E5200 
 4866              	.LASF41:
 4867 0441 6368616E 		.ascii	"channel\000"
 4867      6E656C00 
 4868              	.LASF42:
 4869 0449 69666372 		.ascii	"ifcr\000"
 4869      00
 4870              	.LASF10:
 4871 044e 75696E74 		.ascii	"uint32_t\000"
 4871      33325F74 
 4871      00
 4872              	.LASF17:
 4873 0457 63686172 		.ascii	"char\000"
 4873      00
 4874              	.LASF106:
 4875 045c 646D6153 		.ascii	"dmaStreamRelease\000"
 4875      74726561 
 4875      6D52656C 
 4875      65617365 
 4875      00
 4876              	.LASF98:
 4877 046d 6D6F6465 		.ascii	"mode\000"
 4877      00
 4878              	.LASF65:
 4879 0472 636F6E66 		.ascii	"config\000"
 4879      696700
 4880              	.LASF56:
 4881 0479 55415254 		.ascii	"UART_RX_IDLE\000"
 4881      5F52585F 
 4881      49444C45 
 4881      00
 4882              	.LASF74:
 4883 0486 7478656E 		.ascii	"txend1_cb\000"
 4883      64315F63 
 4883      6200
 4884              	.LASF52:
 4885 0490 55415254 		.ascii	"UART_TX_IDLE\000"
 4885      5F54585F 
 4885      49444C45 
 4885      00
 4886              	.LASF36:
 4887 049d 52544F52 		.ascii	"RTOR\000"
 4887      00
 4888              	.LASF27:
 4889 04a2 41504231 		.ascii	"APB1ENR\000"
 4889      454E5200 
 4890              	.LASF83:
 4891 04aa 75617274 		.ascii	"uart_lld_serve_rx_end_irq\000"
ARM GAS  /tmp/ccPhbTL6.s 			page 91


 4891      5F6C6C64 
 4891      5F736572 
 4891      76655F72 
 4891      785F656E 
 4892              	.LASF18:
 4893 04c4 434E4454 		.ascii	"CNDTR\000"
 4893      5200
 4894              	.LASF28:
 4895 04ca 42444352 		.ascii	"BDCR\000"
 4895      00
 4896              	.LASF30:
 4897 04cf 43464752 		.ascii	"CFGR2\000"
 4897      3200
 4898              	.LASF31:
 4899 04d5 43464752 		.ascii	"CFGR3\000"
 4899      3300
 4900              	.LASF3:
 4901 04db 75696E74 		.ascii	"uint8_t\000"
 4901      385F7400 
 4902              	.LASF90:
 4903 04e3 75736172 		.ascii	"usart_start\000"
 4903      745F7374 
 4903      61727400 
 4904              	.LASF82:
 4905 04ef 666C6167 		.ascii	"flags\000"
 4905      7300
 4906              	.LASF108:
 4907 04f5 63686962 		.ascii	"chibios/os/hal/platforms/STM32/USARTv2/uart_lld.c\000"
 4907      696F732F 
 4907      6F732F68 
 4907      616C2F70 
 4907      6C617466 
 4908              	.LASF79:
 4909 0527 73706565 		.ascii	"speed\000"
 4909      6400
 4910              	.LASF22:
 4911 052d 43464752 		.ascii	"CFGR\000"
 4911      00
 4912              	.LASF93:
 4913 0532 75617274 		.ascii	"uart_lld_start_send\000"
 4913      5F6C6C64 
 4913      5F737461 
 4913      72745F73 
 4913      656E6400 
 4914              	.LASF92:
 4915 0546 75617274 		.ascii	"uart_lld_stop\000"
 4915      5F6C6C64 
 4915      5F73746F 
 4915      7000
 4916              	.LASF111:
 4917 0554 646D6153 		.ascii	"dmaStreamAllocate\000"
 4917      74726561 
 4917      6D416C6C 
 4917      6F636174 
 4917      6500
 4918              	.LASF101:
 4919 0566 55415254 		.ascii	"UARTD1\000"
ARM GAS  /tmp/ccPhbTL6.s 			page 92


 4919      443100
 4920              	.LASF25:
 4921 056d 41484245 		.ascii	"AHBENR\000"
 4921      4E5200
 4922              	.LASF54:
 4923 0574 55415254 		.ascii	"UART_TX_COMPLETE\000"
 4923      5F54585F 
 4923      434F4D50 
 4923      4C455445 
 4923      00
 4924              		.ident	"GCC: (GNU Tools for ARM Embedded Processors) 4.7.4 20130913 (release) [ARM/embedded-4_7-br
ARM GAS  /tmp/ccPhbTL6.s 			page 93


DEFINED SYMBOLS
                            *ABS*:00000000 uart_lld.c
     /tmp/ccPhbTL6.s:19     .text.set_rx_idle_loop:00000000 $t
     /tmp/ccPhbTL6.s:24     .text.set_rx_idle_loop:00000000 set_rx_idle_loop
     /tmp/ccPhbTL6.s:78     .text.usart_stop:00000000 $t
     /tmp/ccPhbTL6.s:83     .text.usart_stop:00000000 usart_stop
     /tmp/ccPhbTL6.s:142    .text.uart_lld_serve_tx_end_irq:00000000 $t
     /tmp/ccPhbTL6.s:147    .text.uart_lld_serve_tx_end_irq:00000000 uart_lld_serve_tx_end_irq
     /tmp/ccPhbTL6.s:215    .text.uart_lld_serve_rx_end_irq:00000000 $t
     /tmp/ccPhbTL6.s:220    .text.uart_lld_serve_rx_end_irq:00000000 uart_lld_serve_rx_end_irq
     /tmp/ccPhbTL6.s:327    .text.VectorD4:00000000 $t
     /tmp/ccPhbTL6.s:333    .text.VectorD4:00000000 VectorD4
     /tmp/ccPhbTL6.s:430    .text.VectorD4:0000005c $d
     /tmp/ccPhbTL6.s:435    .text.uart_lld_init:00000000 $t
     /tmp/ccPhbTL6.s:441    .text.uart_lld_init:00000000 uart_lld_init
     /tmp/ccPhbTL6.s:902    .bss.UARTD1:00000000 .LANCHOR0
     /tmp/ccPhbTL6.s:479    .text.uart_lld_init:0000002c $d
     /tmp/ccPhbTL6.s:484    .text.uart_lld_start:00000000 $t
     /tmp/ccPhbTL6.s:490    .text.uart_lld_start:00000000 uart_lld_start
     /tmp/ccPhbTL6.s:654    .text.uart_lld_start:000000d0 $d
     /tmp/ccPhbTL6.s:662    .text.uart_lld_stop:00000000 $t
     /tmp/ccPhbTL6.s:668    .text.uart_lld_stop:00000000 uart_lld_stop
     /tmp/ccPhbTL6.s:723    .text.uart_lld_stop:0000003c $d
     /tmp/ccPhbTL6.s:728    .text.uart_lld_start_send:00000000 $t
     /tmp/ccPhbTL6.s:734    .text.uart_lld_start_send:00000000 uart_lld_start_send
     /tmp/ccPhbTL6.s:768    .text.uart_lld_stop_send:00000000 $t
     /tmp/ccPhbTL6.s:774    .text.uart_lld_stop_send:00000000 uart_lld_stop_send
     /tmp/ccPhbTL6.s:802    .text.uart_lld_start_receive:00000000 $t
     /tmp/ccPhbTL6.s:808    .text.uart_lld_start_receive:00000000 uart_lld_start_receive
     /tmp/ccPhbTL6.s:856    .text.uart_lld_stop_receive:00000000 $t
     /tmp/ccPhbTL6.s:862    .text.uart_lld_stop_receive:00000000 uart_lld_stop_receive
     /tmp/ccPhbTL6.s:905    .bss.UARTD1:00000000 UARTD1
     /tmp/ccPhbTL6.s:901    .bss.UARTD1:00000000 $d
                     .debug_frame:00000010 $d
     /tmp/ccPhbTL6.s:661    .text.uart_lld_start:000000dc $t

UNDEFINED SYMBOLS
port_halt
_port_irq_epilogue
uartObjectInit
_stm32_dma_streams
dmaStreamAllocate
nvicEnableVector
dmaStreamRelease
nvicDisableVector
