ARM GAS  /tmp/ccPhbTL6.s 			page 1


   1              		.syntax unified
   2              		.cpu cortex-m4
   3              		.fpu softvfp
   4              		.eabi_attribute 20, 1
   5              		.eabi_attribute 21, 1
   6              		.eabi_attribute 23, 3
   7              		.eabi_attribute 24, 1
   8              		.eabi_attribute 25, 1
   9              		.eabi_attribute 26, 1
  10              		.eabi_attribute 30, 2
  11              		.eabi_attribute 34, 1
  12              		.eabi_attribute 18, 4
  13              		.thumb
  14              		.file	"uart_lld.c"
  15              		.text
  16              	.Ltext0:
  17              		.cfi_sections	.debug_frame
  18              		.section	.text.set_rx_idle_loop,"ax",%progbits
  19              		.align	2
  20              		.p2align 4,,15
  21              		.thumb
  22              		.thumb_func
  23              		.type	set_rx_idle_loop, %function
  24              	set_rx_idle_loop:
  25              	.LFB119:
  26              		.file 1 "chibios/os/hal/platforms/STM32/USARTv2/uart_lld.c"
  27              		.loc 1 113 0
  28              		.cfi_startproc
  29              		@ args = 0, pretend = 0, frame = 0
  30              		@ frame_needed = 0, uses_anonymous_args = 0
  31              		@ link register save eliminated.
  32              	.LVL0:
  33              		.loc 1 118 0
  34 0000 4368     		ldr	r3, [r0, #4]
  35              		.loc 1 113 0
  36 0002 10B4     		push	{r4}
  37              	.LCFI0:
  38              		.cfi_def_cfa_offset 4
  39              		.cfi_offset 4, -4
  40              		.loc 1 122 0
  41 0004 0469     		ldr	r4, [r0, #16]
  42              		.loc 1 118 0
  43 0006 DA68     		ldr	r2, [r3, #12]
  44              		.loc 1 122 0
  45 0008 2368     		ldr	r3, [r4, #0]
  46 000a 00F11801 		add	r1, r0, #24
  47              		.loc 1 124 0
  48 000e C068     		ldr	r0, [r0, #12]
  49              	.LVL1:
  50              		.loc 1 122 0
  51 0010 D960     		str	r1, [r3, #12]
  52              		.loc 1 119 0
  53 0012 002A     		cmp	r2, #0
  54 0014 14BF     		ite	ne
  55 0016 2222     		movne	r2, #34
  56 0018 2022     		moveq	r2, #32
  57              	.LVL2:
ARM GAS  /tmp/ccPhbTL6.s 			page 2


  58              		.loc 1 124 0
  59 001a 0243     		orrs	r2, r2, r0
  60              	.LVL3:
  61              		.loc 1 123 0
  62 001c 0121     		movs	r1, #1
  63              	.LVL4:
  64 001e 5960     		str	r1, [r3, #4]
  65              		.loc 1 124 0
  66 0020 1A60     		str	r2, [r3, #0]
  67              		.loc 1 125 0
  68 0022 1868     		ldr	r0, [r3, #0]
  69 0024 0843     		orrs	r0, r0, r1
  70 0026 1860     		str	r0, [r3, #0]
  71              		.loc 1 126 0
  72 0028 10BC     		pop	{r4}
  73 002a 7047     		bx	lr
  74              		.cfi_endproc
  75              	.LFE119:
  76              		.size	set_rx_idle_loop, .-set_rx_idle_loop
  77 002c AFF30080 		.section	.text.usart_stop,"ax",%progbits
  78              		.align	2
  79              		.p2align 4,,15
  80              		.thumb
  81              		.thumb_func
  82              		.type	usart_stop, %function
  83              	usart_stop:
  84              	.LFB120:
  85              		.loc 1 134 0
  86              		.cfi_startproc
  87              		@ args = 0, pretend = 0, frame = 0
  88              		@ frame_needed = 0, uses_anonymous_args = 0
  89              		@ link register save eliminated.
  90              	.LVL5:
  91              		.loc 1 137 0
  92 0000 0169     		ldr	r1, [r0, #16]
  93              		.loc 1 138 0
  94 0002 4269     		ldr	r2, [r0, #20]
  95              		.loc 1 141 0
  96 0004 8368     		ldr	r3, [r0, #8]
  97              		.loc 1 134 0
  98 0006 2DE9F001 		push	{r4, r5, r6, r7, r8}
  99              	.LCFI1:
 100              		.cfi_def_cfa_offset 20
 101              		.cfi_offset 4, -20
 102              		.cfi_offset 5, -16
 103              		.cfi_offset 6, -12
 104              		.cfi_offset 7, -8
 105              		.cfi_offset 8, -4
 106              		.loc 1 137 0
 107 000a 91E84010 		ldmia	r1, {r6, ip}
 108 000e D6F80080 		ldr	r8, [r6, #0]
 109 0012 28F00F00 		bic	r0, r8, #15
 110              	.LVL6:
 111              		.loc 1 138 0
 112 0016 92E8A000 		ldmia	r2, {r5, r7}
 113              		.loc 1 137 0
 114 001a 3060     		str	r0, [r6, #0]
ARM GAS  /tmp/ccPhbTL6.s 			page 3


 115 001c 097A     		ldrb	r1, [r1, #8]	@ zero_extendqisi2
 116 001e 0F24     		movs	r4, #15
 117 0020 04FA01F0 		lsl	r0, r4, r1
 118 0024 CCF80000 		str	r0, [ip, #0]
 119              		.loc 1 138 0
 120 0028 2968     		ldr	r1, [r5, #0]
 121 002a 21F00F00 		bic	r0, r1, #15
 122 002e 2860     		str	r0, [r5, #0]
 123 0030 117A     		ldrb	r1, [r2, #8]	@ zero_extendqisi2
 124              		.loc 1 141 0
 125 0032 0022     		movs	r2, #0
 126              		.loc 1 138 0
 127 0034 04FA01F4 		lsl	r4, r4, r1
 128 0038 3C60     		str	r4, [r7, #0]
 129              		.loc 1 141 0
 130 003a 1A60     		str	r2, [r3, #0]
 131              		.loc 1 142 0
 132 003c 5A60     		str	r2, [r3, #4]
 133              		.loc 1 143 0
 134 003e 9A60     		str	r2, [r3, #8]
 135              		.loc 1 144 0
 136 0040 BDE8F001 		pop	{r4, r5, r6, r7, r8}
 137 0044 7047     		bx	lr
 138              		.cfi_endproc
 139              	.LFE120:
 140              		.size	usart_stop, .-usart_stop
 141 0046 00BFAFF3 		.section	.text.uart_lld_serve_tx_end_irq,"ax",%progbits
 141      0080AFF3 
 141      0080
 142              		.align	2
 143              		.p2align 4,,15
 144              		.thumb
 145              		.thumb_func
 146              		.type	uart_lld_serve_tx_end_irq, %function
 147              	uart_lld_serve_tx_end_irq:
 148              	.LFB123:
 149              		.loc 1 237 0
 150              		.cfi_startproc
 151              		@ args = 0, pretend = 0, frame = 0
 152              		@ frame_needed = 0, uses_anonymous_args = 0
 153              	.LVL7:
 154 0000 38B5     		push	{r3, r4, r5, lr}
 155              	.LCFI2:
 156              		.cfi_def_cfa_offset 16
 157              		.cfi_offset 3, -16
 158              		.cfi_offset 4, -12
 159              		.cfi_offset 5, -8
 160              		.cfi_offset 14, -4
 161              		.loc 1 241 0
 162 0002 0B07     		lsls	r3, r1, #28
 163              		.loc 1 237 0
 164 0004 0446     		mov	r4, r0
 165              		.loc 1 241 0
 166 0006 19D4     		bmi	.L17
 167              	.LVL8:
 168              	.L6:
 169              		.loc 1 248 0
ARM GAS  /tmp/ccPhbTL6.s 			page 4


 170 0008 6369     		ldr	r3, [r4, #20]
 171              		.loc 1 252 0
 172 000a 6168     		ldr	r1, [r4, #4]
 173              		.loc 1 248 0
 174 000c 1A68     		ldr	r2, [r3, #0]
 175 000e 5868     		ldr	r0, [r3, #4]
 176 0010 1568     		ldr	r5, [r2, #0]
 177              		.loc 1 252 0
 178 0012 0968     		ldr	r1, [r1, #0]
 179              		.loc 1 248 0
 180 0014 25F00F05 		bic	r5, r5, #15
 181 0018 1560     		str	r5, [r2, #0]
 182 001a 1B7A     		ldrb	r3, [r3, #8]	@ zero_extendqisi2
 183 001c 0F22     		movs	r2, #15
 184 001e 02FA03F3 		lsl	r3, r2, r3
 185 0022 0360     		str	r3, [r0, #0]
 186              		.loc 1 251 0
 187 0024 0220     		movs	r0, #2
 188 0026 6070     		strb	r0, [r4, #1]
 189              		.loc 1 252 0
 190 0028 29B1     		cbz	r1, .L9
 191              		.loc 1 253 0
 192 002a 2046     		mov	r0, r4
 193 002c 8847     		blx	r1
 194              	.LVL9:
 195              		.loc 1 257 0
 196 002e 6178     		ldrb	r1, [r4, #1]	@ zero_extendqisi2
 197 0030 0229     		cmp	r1, #2
 198 0032 00D0     		beq	.L9
 199 0034 38BD     		pop	{r3, r4, r5, pc}
 200              	.L9:
 201              		.loc 1 258 0
 202 0036 0022     		movs	r2, #0
 203 0038 6270     		strb	r2, [r4, #1]
 204 003a 38BD     		pop	{r3, r4, r5, pc}
 205              	.LVL10:
 206              	.L17:
 207              		.loc 1 242 0
 208 003c FFF7FEFF 		bl	port_halt
 209              	.LVL11:
 210 0040 E2E7     		b	.L6
 211              		.cfi_endproc
 212              	.LFE123:
 213              		.size	uart_lld_serve_tx_end_irq, .-uart_lld_serve_tx_end_irq
 214 0042 00BFAFF3 		.section	.text.uart_lld_serve_rx_end_irq,"ax",%progbits
 214      0080AFF3 
 214      0080AFF3 
 214      0080
 215              		.align	2
 216              		.p2align 4,,15
 217              		.thumb
 218              		.thumb_func
 219              		.type	uart_lld_serve_rx_end_irq, %function
 220              	uart_lld_serve_rx_end_irq:
 221              	.LFB122:
 222              		.loc 1 197 0
 223              		.cfi_startproc
ARM GAS  /tmp/ccPhbTL6.s 			page 5


 224              		@ args = 0, pretend = 0, frame = 0
 225              		@ frame_needed = 0, uses_anonymous_args = 0
 226              	.LVL12:
 227              		.loc 1 201 0
 228 0000 0A07     		lsls	r2, r1, #28
 229              		.loc 1 197 0
 230 0002 38B5     		push	{r3, r4, r5, lr}
 231              	.LCFI3:
 232              		.cfi_def_cfa_offset 16
 233              		.cfi_offset 3, -16
 234              		.cfi_offset 4, -12
 235              		.cfi_offset 5, -8
 236              		.cfi_offset 14, -4
 237              		.loc 1 197 0
 238 0004 0446     		mov	r4, r0
 239              		.loc 1 201 0
 240 0006 20D4     		bmi	.L32
 241              	.LVL13:
 242              	.L19:
 243              		.loc 1 208 0
 244 0008 A378     		ldrb	r3, [r4, #2]	@ zero_extendqisi2
 245 000a 3BB9     		cbnz	r3, .L20
 246              		.loc 1 211 0
 247 000c 6368     		ldr	r3, [r4, #4]
 248 000e DA68     		ldr	r2, [r3, #12]
 249 0010 D2B1     		cbz	r2, .L18
 250              		.loc 1 212 0
 251 0012 218B     		ldrh	r1, [r4, #24]
 252 0014 2046     		mov	r0, r4
 253 0016 89B2     		uxth	r1, r1
 254 0018 9047     		blx	r2
 255              	.LVL14:
 256 001a 38BD     		pop	{r3, r4, r5, pc}
 257              	.L20:
 258              	.LVL15:
 259              	.LBB4:
 260              	.LBB5:
 261              		.loc 1 217 0
 262 001c 2369     		ldr	r3, [r4, #16]
 263              		.loc 1 219 0
 264 001e 6168     		ldr	r1, [r4, #4]
 265              		.loc 1 217 0
 266 0020 1A68     		ldr	r2, [r3, #0]
 267 0022 5868     		ldr	r0, [r3, #4]
 268 0024 1568     		ldr	r5, [r2, #0]
 269              		.loc 1 219 0
 270 0026 8968     		ldr	r1, [r1, #8]
 271              		.loc 1 217 0
 272 0028 25F00F05 		bic	r5, r5, #15
 273 002c 1560     		str	r5, [r2, #0]
 274 002e 1B7A     		ldrb	r3, [r3, #8]	@ zero_extendqisi2
 275 0030 0F22     		movs	r2, #15
 276 0032 02FA03F3 		lsl	r3, r2, r3
 277 0036 0360     		str	r3, [r0, #0]
 278              		.loc 1 218 0
 279 0038 0220     		movs	r0, #2
 280 003a A070     		strb	r0, [r4, #2]
ARM GAS  /tmp/ccPhbTL6.s 			page 6


 281              		.loc 1 219 0
 282 003c 41B1     		cbz	r1, .L24
 283              		.loc 1 220 0
 284 003e 2046     		mov	r0, r4
 285 0040 8847     		blx	r1
 286              	.LVL16:
 287              		.loc 1 224 0
 288 0042 A178     		ldrb	r1, [r4, #2]	@ zero_extendqisi2
 289 0044 0229     		cmp	r1, #2
 290 0046 03D0     		beq	.L24
 291              	.LVL17:
 292              	.L18:
 293 0048 38BD     		pop	{r3, r4, r5, pc}
 294              	.LVL18:
 295              	.L32:
 296              	.LBE5:
 297              	.LBE4:
 298              		.loc 1 202 0
 299 004a FFF7FEFF 		bl	port_halt
 300              	.LVL19:
 301 004e DBE7     		b	.L19
 302              	.LVL20:
 303              	.L24:
 304              	.LBB8:
 305              	.LBB6:
 306              		.loc 1 225 0
 307 0050 0022     		movs	r2, #0
 308              		.loc 1 226 0
 309 0052 2046     		mov	r0, r4
 310              		.loc 1 225 0
 311 0054 A270     		strb	r2, [r4, #2]
 312              	.LBE6:
 313              	.LBE8:
 314              		.loc 1 229 0
 315 0056 BDE83840 		pop	{r3, r4, r5, lr}
 316              	.LBB9:
 317              	.LBB7:
 318              		.loc 1 226 0
 319 005a FFF7FEBF 		b	set_rx_idle_loop
 320              	.LVL21:
 321              	.LBE7:
 322              	.LBE9:
 323              		.cfi_endproc
 324              	.LFE122:
 325              		.size	uart_lld_serve_rx_end_irq, .-uart_lld_serve_rx_end_irq
 326 005e 00BF     		.section	.text.VectorD4,"ax",%progbits
 327              		.align	2
 328              		.p2align 4,,15
 329              		.global	VectorD4
 330              		.thumb
 331              		.thumb_func
 332              		.type	VectorD4, %function
 333              	VectorD4:
 334              	.LFB125:
 335              		.loc 1 299 0
 336              		.cfi_startproc
 337              		@ args = 0, pretend = 0, frame = 0
ARM GAS  /tmp/ccPhbTL6.s 			page 7


 338              		@ frame_needed = 0, uses_anonymous_args = 0
 339              	.LVL22:
 340 0000 38B5     		push	{r3, r4, r5, lr}
 341              	.LCFI4:
 342              		.cfi_def_cfa_offset 16
 343              		.cfi_offset 3, -16
 344              		.cfi_offset 4, -12
 345              		.cfi_offset 5, -8
 346              		.cfi_offset 14, -4
 347              	.LBB14:
 348              	.LBB15:
 349              		.loc 1 268 0
 350 0002 164D     		ldr	r5, .L66
 351 0004 AA68     		ldr	r2, [r5, #8]
 352              	.LVL23:
 353              		.loc 1 271 0
 354 0006 D469     		ldr	r4, [r2, #28]
 355              	.LVL24:
 356              		.loc 1 274 0
 357 0008 40F20F13 		movw	r3, #271
 358 000c 2340     		ands	r3, r3, r4
 359              		.loc 1 272 0
 360 000e 1462     		str	r4, [r2, #32]
 361              		.loc 1 274 0
 362 0010 CBB1     		cbz	r3, .L34
 363              		.loc 1 276 0
 364 0012 6868     		ldr	r0, [r5, #4]
 365 0014 0369     		ldr	r3, [r0, #16]
 366 0016 B3B1     		cbz	r3, .L34
 367              	.LVL25:
 368              	.LBB16:
 369              	.LBB17:
 370              		.loc 1 96 0
 371 0018 14F0080F 		tst	r4, #8
 372 001c 0CBF     		ite	eq
 373 001e 0021     		moveq	r1, #0
 374 0020 1021     		movne	r1, #16
 375              	.LVL26:
 376              		.loc 1 97 0
 377 0022 E207     		lsls	r2, r4, #31
 378              	.LVL27:
 379              		.loc 1 98 0
 380 0024 48BF     		it	mi
 381 0026 41F00401 		orrmi	r1, r1, #4
 382              	.LVL28:
 383              		.loc 1 99 0
 384 002a A007     		lsls	r0, r4, #30
 385              		.loc 1 100 0
 386 002c 48BF     		it	mi
 387 002e 41F00801 		orrmi	r1, r1, #8
 388              	.LVL29:
 389              		.loc 1 101 0
 390 0032 6207     		lsls	r2, r4, #29
 391              		.loc 1 102 0
 392 0034 48BF     		it	mi
 393 0036 41F02001 		orrmi	r1, r1, #32
 394              	.LVL30:
ARM GAS  /tmp/ccPhbTL6.s 			page 8


 395              		.loc 1 103 0
 396 003a E005     		lsls	r0, r4, #23
 397              		.loc 1 104 0
 398 003c 48BF     		it	mi
 399 003e 41F04001 		orrmi	r1, r1, #64
 400              	.LVL31:
 401              	.LBE17:
 402              	.LBE16:
 403              		.loc 1 277 0
 404 0042 0648     		ldr	r0, .L66
 405 0044 9847     		blx	r3
 406              	.LVL32:
 407              	.L34:
 408              		.loc 1 279 0
 409 0046 6106     		lsls	r1, r4, #25
 410 0048 04D5     		bpl	.L40
 411              		.loc 1 281 0
 412 004a 6968     		ldr	r1, [r5, #4]
 413 004c 4A68     		ldr	r2, [r1, #4]
 414 004e 0AB1     		cbz	r2, .L40
 415              		.loc 1 282 0
 416 0050 0248     		ldr	r0, .L66
 417 0052 9047     		blx	r2
 418              	.LVL33:
 419              	.L40:
 420              	.LBE15:
 421              	.LBE14:
 422              		.loc 1 306 0
 423 0054 BDE83840 		pop	{r3, r4, r5, lr}
 424              		.loc 1 305 0
 425 0058 FFF7FEBF 		b	_port_irq_epilogue
 426              	.LVL34:
 427              	.L67:
 428              		.align	2
 429              	.L66:
 430 005c 00000000 		.word	.LANCHOR0
 431              		.cfi_endproc
 432              	.LFE125:
 433              		.size	VectorD4, .-VectorD4
 434              		.section	.text.uart_lld_init,"ax",%progbits
 435              		.align	2
 436              		.p2align 4,,15
 437              		.global	uart_lld_init
 438              		.thumb
 439              		.thumb_func
 440              		.type	uart_lld_init, %function
 441              	uart_lld_init:
 442              	.LFB126:
 443              		.loc 1 356 0
 444              		.cfi_startproc
 445              		@ args = 0, pretend = 0, frame = 0
 446              		@ frame_needed = 0, uses_anonymous_args = 0
 447 0000 10B5     		push	{r4, lr}
 448              	.LCFI5:
 449              		.cfi_def_cfa_offset 8
 450              		.cfi_offset 4, -8
 451              		.cfi_offset 14, -4
ARM GAS  /tmp/ccPhbTL6.s 			page 9


 452              		.loc 1 359 0
 453 0002 40F20004 		movw	r4, #:lower16:.LANCHOR0
 454 0006 C0F20004 		movt	r4, #:upper16:.LANCHOR0
 455 000a 2046     		mov	r0, r4
 456 000c FFF7FEFF 		bl	uartObjectInit
 457              	.LVL35:
 458              		.loc 1 362 0
 459 0010 064B     		ldr	r3, .L69
 460              		.loc 1 360 0
 461 0012 4FF46052 		mov	r2, #14336
 462 0016 C4F20102 		movt	r2, 16385
 463              		.loc 1 363 0
 464 001a A3F10C01 		sub	r1, r3, #12
 465              		.loc 1 361 0
 466 001e 0820     		movs	r0, #8
 467              		.loc 1 360 0
 468 0020 A260     		str	r2, [r4, #8]
 469              		.loc 1 361 0
 470 0022 E060     		str	r0, [r4, #12]
 471              		.loc 1 362 0
 472 0024 2361     		str	r3, [r4, #16]
 473              		.loc 1 363 0
 474 0026 6161     		str	r1, [r4, #20]
 475 0028 10BD     		pop	{r4, pc}
 476              	.L70:
 477 002a 00BF     		.align	2
 478              	.L69:
 479 002c 30000000 		.word	_stm32_dma_streams+48
 480              		.cfi_endproc
 481              	.LFE126:
 482              		.size	uart_lld_init, .-uart_lld_init
 483              		.section	.text.uart_lld_start,"ax",%progbits
 484              		.align	2
 485              		.p2align 4,,15
 486              		.global	uart_lld_start
 487              		.thumb
 488              		.thumb_func
 489              		.type	uart_lld_start, %function
 490              	uart_lld_start:
 491              	.LFB127:
 492              		.loc 1 390 0
 493              		.cfi_startproc
 494              		@ args = 0, pretend = 0, frame = 0
 495              		@ frame_needed = 0, uses_anonymous_args = 0
 496              	.LVL36:
 497 0000 F8B5     		push	{r3, r4, r5, r6, r7, lr}
 498              	.LCFI6:
 499              		.cfi_def_cfa_offset 24
 500              		.cfi_offset 3, -24
 501              		.cfi_offset 4, -20
 502              		.cfi_offset 5, -16
 503              		.cfi_offset 6, -12
 504              		.cfi_offset 7, -8
 505              		.cfi_offset 14, -4
 506              		.loc 1 392 0
 507 0002 0378     		ldrb	r3, [r0, #0]	@ zero_extendqisi2
 508 0004 012B     		cmp	r3, #1
ARM GAS  /tmp/ccPhbTL6.s 			page 10


 509              		.loc 1 390 0
 510 0006 0446     		mov	r4, r0
 511              		.loc 1 392 0
 512 0008 2CD0     		beq	.L80
 513 000a 8568     		ldr	r5, [r0, #8]
 514              	.LVL37:
 515              	.L72:
 516              		.loc 1 465 0
 517 000c 0026     		movs	r6, #0
 518 000e A670     		strb	r6, [r4, #2]
 519              		.loc 1 466 0
 520 0010 6670     		strb	r6, [r4, #1]
 521              	.LVL38:
 522              	.LBB21:
 523              	.LBB22:
 524              		.loc 1 157 0
 525 0012 2046     		mov	r0, r4
 526 0014 FFF7FEFF 		bl	usart_stop
 527              	.LVL39:
 528              		.loc 1 167 0
 529 0018 6368     		ldr	r3, [r4, #4]
 530 001a 4FF4A247 		mov	r7, #20736
 531 001e 5869     		ldr	r0, [r3, #20]
 532 0020 C0F22527 		movt	r7, 549
 533 0024 B7FBF0F1 		udiv	r1, r7, r0
 534              		.loc 1 185 0
 535 0028 03F11806 		add	r6, r3, #24
 536              		.loc 1 167 0
 537 002c 8AB2     		uxth	r2, r1
 538 002e AA81     		strh	r2, [r5, #12]	@ movhi
 539              		.loc 1 185 0
 540 0030 96E80700 		ldmia	r6, {r0, r1, r2}
 541              		.loc 1 180 0
 542 0034 5F68     		ldr	r7, [r3, #4]
 543              		.loc 1 181 0
 544 0036 40F20D16 		movw	r6, #269
 545 003a 40F24D13 		movw	r3, #333
 546 003e 002F     		cmp	r7, #0
 547 0040 08BF     		it	eq
 548 0042 3346     		moveq	r3, r6
 549              	.LVL40:
 550              		.loc 1 185 0
 551 0044 0343     		orrs	r3, r3, r0
 552              	.LVL41:
 553              		.loc 1 173 0
 554 0046 4FF0FF30 		mov	r0, #-1
 555 004a 2862     		str	r0, [r5, #32]
 556              		.loc 1 177 0
 557 004c 41F04001 		orr	r1, r1, #64
 558              		.loc 1 178 0
 559 0050 42F0C102 		orr	r2, r2, #193
 560              		.loc 1 188 0
 561 0054 2046     		mov	r0, r4
 562              		.loc 1 177 0
 563 0056 6960     		str	r1, [r5, #4]
 564              		.loc 1 178 0
 565 0058 AA60     		str	r2, [r5, #8]
ARM GAS  /tmp/ccPhbTL6.s 			page 11


 566              		.loc 1 185 0
 567 005a 2B60     		str	r3, [r5, #0]
 568              	.LBE22:
 569              	.LBE21:
 570              		.loc 1 468 0
 571 005c BDE8F840 		pop	{r3, r4, r5, r6, r7, lr}
 572              	.LBB24:
 573              	.LBB23:
 574              		.loc 1 188 0
 575 0060 FFF7FEBF 		b	set_rx_idle_loop
 576              	.LVL42:
 577              	.L80:
 578              	.LBE23:
 579              	.LBE24:
 580              		.loc 1 394 0
 581 0064 1A48     		ldr	r0, .L83
 582              	.LVL43:
 583 0066 8442     		cmp	r4, r0
 584 0068 19D0     		beq	.L81
 585              	.L73:
 586              		.loc 1 458 0
 587 006a 6668     		ldr	r6, [r4, #4]
 588 006c B769     		ldr	r7, [r6, #24]
 589 006e 07F4A053 		and	r3, r7, #5120
 590 0072 B3F5805F 		cmp	r3, #4096
 591 0076 0DD0     		beq	.L82
 592              	.L74:
 593              		.loc 1 460 0
 594 0078 2269     		ldr	r2, [r4, #16]
 595              		.loc 1 461 0
 596 007a 6669     		ldr	r6, [r4, #20]
 597              		.loc 1 460 0
 598 007c A568     		ldr	r5, [r4, #8]
 599 007e 1768     		ldr	r7, [r2, #0]
 600              		.loc 1 461 0
 601 0080 3368     		ldr	r3, [r6, #0]
 602              		.loc 1 460 0
 603 0082 05F12400 		add	r0, r5, #36
 604              		.loc 1 461 0
 605 0086 05F12801 		add	r1, r5, #40
 606              		.loc 1 462 0
 607 008a 0022     		movs	r2, #0
 608              		.loc 1 460 0
 609 008c B860     		str	r0, [r7, #8]
 610              		.loc 1 461 0
 611 008e 9960     		str	r1, [r3, #8]
 612              		.loc 1 462 0
 613 0090 2283     		strh	r2, [r4, #24]	@ movhi
 614 0092 BBE7     		b	.L72
 615              	.L82:
 616              		.loc 1 459 0
 617 0094 E068     		ldr	r0, [r4, #12]
 618 0096 40F4A061 		orr	r1, r0, #1280
 619 009a E160     		str	r1, [r4, #12]
 620 009c ECE7     		b	.L74
 621              	.L81:
 622              	.LBB25:
ARM GAS  /tmp/ccPhbTL6.s 			page 12


 623              		.loc 1 396 0
 624 009e 0C21     		movs	r1, #12
 625 00a0 2346     		mov	r3, r4
 626 00a2 0C4A     		ldr	r2, .L83+4
 627 00a4 2069     		ldr	r0, [r4, #16]
 628 00a6 FFF7FEFF 		bl	dmaStreamAllocate
 629              	.LVL44:
 630              		.loc 1 401 0
 631 00aa 0C21     		movs	r1, #12
 632 00ac 6069     		ldr	r0, [r4, #20]
 633 00ae 0A4A     		ldr	r2, .L83+8
 634 00b0 2346     		mov	r3, r4
 635 00b2 FFF7FEFF 		bl	dmaStreamAllocate
 636              	.LVL45:
 637              		.loc 1 406 0
 638 00b6 4FF48051 		mov	r1, #4096
 639 00ba C4F20201 		movt	r1, 16386
 640              		.loc 1 407 0
 641 00be 2520     		movs	r0, #37
 642              		.loc 1 406 0
 643 00c0 8A69     		ldr	r2, [r1, #24]
 644 00c2 42F48045 		orr	r5, r2, #16384
 645 00c6 8D61     		str	r5, [r1, #24]
 646              		.loc 1 407 0
 647 00c8 C021     		movs	r1, #192
 648 00ca FFF7FEFF 		bl	nvicEnableVector
 649              	.LVL46:
 650 00ce CCE7     		b	.L73
 651              	.L84:
 652              		.align	2
 653              	.L83:
 654 00d0 00000000 		.word	.LANCHOR0
 655 00d4 00000000 		.word	uart_lld_serve_rx_end_irq
 656 00d8 00000000 		.word	uart_lld_serve_tx_end_irq
 657              	.LBE25:
 658              		.cfi_endproc
 659              	.LFE127:
 660              		.size	uart_lld_start, .-uart_lld_start
 661 00dc AFF30080 		.section	.text.uart_lld_stop,"ax",%progbits
 662              		.align	2
 663              		.p2align 4,,15
 664              		.global	uart_lld_stop
 665              		.thumb
 666              		.thumb_func
 667              		.type	uart_lld_stop, %function
 668              	uart_lld_stop:
 669              	.LFB128:
 670              		.loc 1 477 0
 671              		.cfi_startproc
 672              		@ args = 0, pretend = 0, frame = 0
 673              		@ frame_needed = 0, uses_anonymous_args = 0
 674              	.LVL47:
 675              		.loc 1 479 0
 676 0000 0378     		ldrb	r3, [r0, #0]	@ zero_extendqisi2
 677 0002 022B     		cmp	r3, #2
 678              		.loc 1 477 0
 679 0004 10B5     		push	{r4, lr}
ARM GAS  /tmp/ccPhbTL6.s 			page 13


 680              	.LCFI7:
 681              		.cfi_def_cfa_offset 8
 682              		.cfi_offset 4, -8
 683              		.cfi_offset 14, -4
 684              		.loc 1 477 0
 685 0006 0446     		mov	r4, r0
 686              		.loc 1 479 0
 687 0008 00D0     		beq	.L89
 688              	.LVL48:
 689              	.L85:
 690 000a 10BD     		pop	{r4, pc}
 691              	.LVL49:
 692              	.L89:
 693              		.loc 1 480 0
 694 000c FFF7FEFF 		bl	usart_stop
 695              	.LVL50:
 696              		.loc 1 481 0
 697 0010 2069     		ldr	r0, [r4, #16]
 698 0012 FFF7FEFF 		bl	dmaStreamRelease
 699              	.LVL51:
 700              		.loc 1 482 0
 701 0016 6069     		ldr	r0, [r4, #20]
 702 0018 FFF7FEFF 		bl	dmaStreamRelease
 703              	.LVL52:
 704              		.loc 1 485 0
 705 001c 0748     		ldr	r0, .L90
 706 001e 8442     		cmp	r4, r0
 707 0020 F3D1     		bne	.L85
 708              		.loc 1 486 0
 709 0022 2520     		movs	r0, #37
 710 0024 FFF7FEFF 		bl	nvicDisableVector
 711              	.LVL53:
 712              		.loc 1 487 0
 713 0028 4FF48051 		mov	r1, #4096
 714 002c C4F20201 		movt	r1, 16386
 715 0030 8A69     		ldr	r2, [r1, #24]
 716 0032 22F48043 		bic	r3, r2, #16384
 717 0036 8B61     		str	r3, [r1, #24]
 718              		.loc 1 488 0
 719 0038 E7E7     		b	.L85
 720              	.L91:
 721 003a 00BF     		.align	2
 722              	.L90:
 723 003c 00000000 		.word	.LANCHOR0
 724              		.cfi_endproc
 725              	.LFE128:
 726              		.size	uart_lld_stop, .-uart_lld_stop
 727              		.section	.text.uart_lld_start_send,"ax",%progbits
 728              		.align	2
 729              		.p2align 4,,15
 730              		.global	uart_lld_start_send
 731              		.thumb
 732              		.thumb_func
 733              		.type	uart_lld_start_send, %function
 734              	uart_lld_start_send:
 735              	.LFB129:
 736              		.loc 1 521 0
ARM GAS  /tmp/ccPhbTL6.s 			page 14


 737              		.cfi_startproc
 738              		@ args = 0, pretend = 0, frame = 0
 739              		@ frame_needed = 0, uses_anonymous_args = 0
 740              		@ link register save eliminated.
 741              	.LVL54:
 742              		.loc 1 524 0
 743 0000 4369     		ldr	r3, [r0, #20]
 744              		.loc 1 526 0
 745 0002 C068     		ldr	r0, [r0, #12]
 746              	.LVL55:
 747              		.loc 1 524 0
 748 0004 1B68     		ldr	r3, [r3, #0]
 749              		.loc 1 526 0
 750 0006 40F09200 		orr	r0, r0, #146
 751              		.loc 1 524 0
 752 000a DA60     		str	r2, [r3, #12]
 753              		.loc 1 525 0
 754 000c 5960     		str	r1, [r3, #4]
 755              		.loc 1 526 0
 756 000e 1860     		str	r0, [r3, #0]
 757              		.loc 1 528 0
 758 0010 1A68     		ldr	r2, [r3, #0]
 759              	.LVL56:
 760 0012 42F00101 		orr	r1, r2, #1
 761              	.LVL57:
 762 0016 1960     		str	r1, [r3, #0]
 763 0018 7047     		bx	lr
 764              		.cfi_endproc
 765              	.LFE129:
 766              		.size	uart_lld_start_send, .-uart_lld_start_send
 767 001a 00BFAFF3 		.section	.text.uart_lld_stop_send,"ax",%progbits
 767      0080
 768              		.align	2
 769              		.p2align 4,,15
 770              		.global	uart_lld_stop_send
 771              		.thumb
 772              		.thumb_func
 773              		.type	uart_lld_stop_send, %function
 774              	uart_lld_stop_send:
 775              	.LFB130:
 776              		.loc 1 542 0
 777              		.cfi_startproc
 778              		@ args = 0, pretend = 0, frame = 0
 779              		@ frame_needed = 0, uses_anonymous_args = 0
 780              		@ link register save eliminated.
 781              	.LVL58:
 782              		.loc 1 544 0
 783 0000 4269     		ldr	r2, [r0, #20]
 784 0002 1368     		ldr	r3, [r2, #0]
 785 0004 5168     		ldr	r1, [r2, #4]
 786 0006 1868     		ldr	r0, [r3, #0]
 787              	.LVL59:
 788 0008 20F00F00 		bic	r0, r0, #15
 789 000c 1860     		str	r0, [r3, #0]
 790 000e 127A     		ldrb	r2, [r2, #8]	@ zero_extendqisi2
 791 0010 0F20     		movs	r0, #15
 792 0012 00FA02F2 		lsl	r2, r0, r2
ARM GAS  /tmp/ccPhbTL6.s 			page 15


 793 0016 0A60     		str	r2, [r1, #0]
 794              		.loc 1 545 0
 795 0018 5868     		ldr	r0, [r3, #4]
 796              		.loc 1 546 0
 797 001a 7047     		bx	lr
 798              		.cfi_endproc
 799              	.LFE130:
 800              		.size	uart_lld_stop_send, .-uart_lld_stop_send
 801 001c AFF30080 		.section	.text.uart_lld_start_receive,"ax",%progbits
 802              		.align	2
 803              		.p2align 4,,15
 804              		.global	uart_lld_start_receive
 805              		.thumb
 806              		.thumb_func
 807              		.type	uart_lld_start_receive, %function
 808              	uart_lld_start_receive:
 809              	.LFB131:
 810              		.loc 1 559 0
 811              		.cfi_startproc
 812              		@ args = 0, pretend = 0, frame = 0
 813              		@ frame_needed = 0, uses_anonymous_args = 0
 814              		@ link register save eliminated.
 815              	.LVL60:
 816 0000 70B4     		push	{r4, r5, r6}
 817              	.LCFI8:
 818              		.cfi_def_cfa_offset 12
 819              		.cfi_offset 4, -12
 820              		.cfi_offset 5, -8
 821              		.cfi_offset 6, -4
 822              		.loc 1 562 0
 823 0002 0469     		ldr	r4, [r0, #16]
 824 0004 94E82800 		ldmia	r4, {r3, r5}
 825 0008 1E68     		ldr	r6, [r3, #0]
 826 000a 26F00F06 		bic	r6, r6, #15
 827 000e 1E60     		str	r6, [r3, #0]
 828 0010 247A     		ldrb	r4, [r4, #8]	@ zero_extendqisi2
 829 0012 0F26     		movs	r6, #15
 830 0014 06FA04F4 		lsl	r4, r6, r4
 831 0018 2C60     		str	r4, [r5, #0]
 832              		.loc 1 567 0
 833 001a C068     		ldr	r0, [r0, #12]
 834              	.LVL61:
 835              		.loc 1 565 0
 836 001c DA60     		str	r2, [r3, #12]
 837              		.loc 1 567 0
 838 001e 40F08200 		orr	r0, r0, #130
 839              		.loc 1 566 0
 840 0022 5960     		str	r1, [r3, #4]
 841              		.loc 1 567 0
 842 0024 1860     		str	r0, [r3, #0]
 843              		.loc 1 569 0
 844 0026 1A68     		ldr	r2, [r3, #0]
 845              	.LVL62:
 846 0028 42F00101 		orr	r1, r2, #1
 847              	.LVL63:
 848 002c 1960     		str	r1, [r3, #0]
 849              		.loc 1 570 0
ARM GAS  /tmp/ccPhbTL6.s 			page 16


 850 002e 70BC     		pop	{r4, r5, r6}
 851 0030 7047     		bx	lr
 852              		.cfi_endproc
 853              	.LFE131:
 854              		.size	uart_lld_start_receive, .-uart_lld_start_receive
 855 0032 00BFAFF3 		.section	.text.uart_lld_stop_receive,"ax",%progbits
 855      0080AFF3 
 855      0080AFF3 
 855      0080
 856              		.align	2
 857              		.p2align 4,,15
 858              		.global	uart_lld_stop_receive
 859              		.thumb
 860              		.thumb_func
 861              		.type	uart_lld_stop_receive, %function
 862              	uart_lld_stop_receive:
 863              	.LFB132:
 864              		.loc 1 583 0
 865              		.cfi_startproc
 866              		@ args = 0, pretend = 0, frame = 0
 867              		@ frame_needed = 0, uses_anonymous_args = 0
 868              	.LVL64:
 869              		.loc 1 586 0
 870 0000 0269     		ldr	r2, [r0, #16]
 871 0002 1368     		ldr	r3, [r2, #0]
 872 0004 5168     		ldr	r1, [r2, #4]
 873              		.loc 1 583 0
 874 0006 10B5     		push	{r4, lr}
 875              	.LCFI9:
 876              		.cfi_def_cfa_offset 8
 877              		.cfi_offset 4, -8
 878              		.cfi_offset 14, -4
 879              		.loc 1 586 0
 880 0008 1C68     		ldr	r4, [r3, #0]
 881 000a 24F00F04 		bic	r4, r4, #15
 882 000e 1C60     		str	r4, [r3, #0]
 883 0010 127A     		ldrb	r2, [r2, #8]	@ zero_extendqisi2
 884 0012 0F24     		movs	r4, #15
 885 0014 04FA02F2 		lsl	r2, r4, r2
 886 0018 0A60     		str	r2, [r1, #0]
 887              		.loc 1 587 0
 888 001a 5C68     		ldr	r4, [r3, #4]
 889              	.LVL65:
 890              		.loc 1 588 0
 891 001c FFF7FEFF 		bl	set_rx_idle_loop
 892              	.LVL66:
 893              		.loc 1 590 0
 894 0020 2046     		mov	r0, r4
 895 0022 10BD     		pop	{r4, pc}
 896              		.cfi_endproc
 897              	.LFE132:
 898              		.size	uart_lld_stop_receive, .-uart_lld_stop_receive
 899              		.global	UARTD1
 900              		.section	.bss.UARTD1,"aw",%nobits
 901              		.align	2
 902              		.set	.LANCHOR0,. + 0
 903              		.type	UARTD1, %object
ARM GAS  /tmp/ccPhbTL6.s 			page 17


 904              		.size	UARTD1, 28
 905              	UARTD1:
 906 0000 00000000 		.space	28
 906      00000000 
 906      00000000 
 906      00000000 
 906      00000000 
 907              		.text
 908              	.Letext0:
 909              		.file 2 "/opt/ARM/gcc-arm-none-eabi-4_7-2013q3/bin/../lib/gcc/arm-none-eabi/4.7.4/include/stddef.h
 910              		.file 3 "/opt/ARM/gcc-arm-none-eabi-4_7-2013q3/bin/../lib/gcc/arm-none-eabi/4.7.4/../../../../arm-
 911              		.file 4 "chibios/os/ports/GCC/ARMCMx/chtypes.h"
 912              		.file 5 "chibios/os/hal/platforms/STM32F30x/stm32f30x.h"
 913              		.file 6 "chibios/os/hal/platforms/STM32F30x/stm32_dma.h"
 914              		.file 7 "chibios/os/hal/include/uart.h"
 915              		.file 8 "chibios/os/hal/platforms/STM32/USARTv2/uart_lld.h"
 916              		.file 9 "chibios/os/ports/common/ARMCMx/CMSIS/include/core_cm4.h"
 917              		.file 10 "chibios/os/ports/GCC/ARMCMx/chcore_v7m.h"
 918              		.file 11 "chibios/os/ports/common/ARMCMx/nvic.h"